 OleDBThread

 Timestamp is 41ef49e1 (Thu Jan 20 15:04:17 2005)

 Preferred load address is 50000000

 Start         Length     Name                   Class
 0001:00000000 00029570H .text                   CODE
 0001:00029570 00000168H .text$x                 CODE
 0002:00000000 00000244H .idata$5                DATA
 0002:00000250 00006b4aH .rdata                  DATA
 0002:00006d9c 00000051H .rdata$debug            DATA
 0002:00006df0 00000004H .rtc$IAA                DATA
 0002:00006df4 00000024H .rtc$IMZ                DATA
 0002:00006e18 00000004H .rtc$IZZ                DATA
 0002:00006e1c 00000004H .rtc$TAA                DATA
 0002:00006e20 00000024H .rtc$TMZ                DATA
 0002:00006e44 00000004H .rtc$TZZ                DATA
 0002:00006e48 00000160H .xdata$x                DATA
 0002:00006fa8 000000a0H .idata$2                DATA
 0002:00007048 00000014H .idata$3                DATA
 0002:0000705c 00000244H .idata$4                DATA
 0002:000072a0 000009d4H .idata$6                DATA
 0002:00007c80 000000a8H .edata                  DATA
 0003:00000000 00000004H .CRT$XCA                DATA
 0003:00000004 00000004H .CRT$XCAA               DATA
 0003:00000008 00000004H .CRT$XCZ                DATA
 0003:0000000c 00000004H .CRT$XIA                DATA
 0003:00000010 0000000cH .CRT$XIC                DATA
 0003:0000001c 00000004H .CRT$XIY                DATA
 0003:00000020 00000004H .CRT$XIZ                DATA
 0003:00000024 00000004H .CRT$XPA                DATA
 0003:00000028 00000004H .CRT$XPX                DATA
 0003:0000002c 00000004H .CRT$XPZ                DATA
 0003:00000030 00000004H .CRT$XTA                DATA
 0003:00000034 00000004H .CRT$XTB                DATA
 0003:00000038 00000004H .CRT$XTZ                DATA
 0003:00000040 00000c50H .data                   DATA
 0003:00000ca0 00001964H .bss                    DATA
 0004:00000000 00000058H .rsrc$01                DATA
 0004:00000060 00000460H .rsrc$02                DATA

  Address         Publics by Value              Rva+Base     Lib:Object

 0000:00000000       ___safe_se_handler_count   00000000     <absolute>
 0000:00000000       __except_list              00000000     <absolute>
 0000:00000000       ___safe_se_handler_table   00000000     <absolute>
 0001:00000000       ??0CFOleDBThread@@QAE@XZ   50001000 f   Factory.obj
 0001:00000060       ??0IClassFactory@@QAE@XZ   50001060 f i Factory.obj
 0001:000000b0       ??0IUnknown@@QAE@XZ        500010b0 f i Factory.obj
 0001:000000e0       ??1CFOleDBThread@@QAE@XZ   500010e0 f   Factory.obj
 0001:00000120       ?QueryInterface@CFOleDBThread@@UAGJABU_GUID@@PAPAX@Z 50001120 f   Factory.obj
 0001:000001c0       _==                        500011c0 f i Factory.obj
 0001:00000210       _IsEqualGUID               50001210 f i Factory.obj
 0001:00000260       ?AddRef@CFOleDBThread@@UAGKXZ 50001260 f   Factory.obj
 0001:000002a0       ?Release@CFOleDBThread@@UAGKXZ 500012a0 f   Factory.obj
 0001:00000330       ??_GCFOleDBThread@@QAEPAXI@Z 50001330 f i Factory.obj
 0001:00000390       ?CreateInstance@CFOleDBThread@@UAGJPAUIUnknown@@ABU_GUID@@PAPAX@Z 50001390 f   Factory.obj
 0001:000004e0       ??_GCOleDBThreadCls@@QAEPAXI@Z 500014e0 f i Factory.obj
 0001:00000540       ?LockServer@CFOleDBThread@@UAGJH@Z 50001540 f   Factory.obj
 0001:00000570       ?OLEDBExcuteThread@@YGKPAX@Z 50001570 f   OleDBThread.obj
 0001:000005c0       ??0COleDBThread@@QAE@PAUDB_INITIALIZE_DESC@@PAVCOleDBThreadCls@@@Z 500015c0 f   OleDBThread.obj
 0001:00000720       ?Initialize@COleDBThread@@QAEHPAG000H@Z 50001720 f   OleDBThread.obj
 0001:00000cd0       ?Initialize@COleDBThread@@QAEHPAG000HHH@Z 50001cd0 f   OleDBThread.obj
 0001:000013f0       ?ChangeDB@COleDBThread@@QAEHPAG@Z 500023f0 f   OleDBThread.obj
 0001:00001550       ?OpenRecordEx@COleDBThread@@QAEPAUDBRECEIVEDATA@@PAGKK@Z 50002550 f   OleDBThread.obj
 0001:00001e00       ?GetColumnInfo@COleDBThread@@QAEPAUtagDBCOLUMNINFO@@PAGPAK@Z 50002e00 f   OleDBThread.obj
 0001:00001fd0       ?OpenRecordExForThread@COleDBThread@@QAEPAUDBRECEIVEDATA@@PAGKK@Z 50002fd0 f   OleDBThread.obj
 0001:00002830       ?GetOutputMsgPool@COleDBThreadCls@@QAEPAVCThreadSafeStaticMemPool@@XZ 50003830 f i OleDBThread.obj
 0001:00002870       ?GetBindingPool@COleDBThreadCls@@QAEPAVCThreadSafeStaticMemPool@@XZ 50003870 f i OleDBThread.obj
 0001:000028b0       ?GetResultPool@COleDBThreadCls@@QAEPAVCThreadSafeStaticMemPool@@XZ 500038b0 f i OleDBThread.obj
 0001:000028f0       ?ReleaseRecordset@COleDBThread@@QAEHPAUDBRECEIVEDATA@@@Z 500038f0 f   OleDBThread.obj
 0001:00002990       ?OpenRecord@COleDBThread@@QAEHPAGPAXK@Z 50003990 f   OleDBThread.obj
 0001:000030e0       ?QueryDBCatalog@COleDBThread@@QAEHPAUDBSCHEMA@@K@Z 500040e0 f   OleDBThread.obj
 0001:00003650       ?QueryDBTable@COleDBThread@@QAEHPAUDBSCHEMA@@K@Z 50004650 f   OleDBThread.obj
 0001:00003c50       ?GetData@COleDBThread@@QAEHPAXPAUDBRECEIVEDATA@@KG@Z 50004c50 f   OleDBThread.obj
 0001:00003ce0       ?ExecuteSQL@COleDBThread@@QAEHPAG@Z 50004ce0 f   OleDBThread.obj
 0001:00003dc0       ?CreateParamInfo@COleDBThread@@QAEPAUtagDBBINDING@@G@Z 50004dc0 f   OleDBThread.obj
 0001:00003f20       ?ReleaseParamInfo@COleDBThread@@QAEHPAUtagDBBINDING@@@Z 50004f20 f   OleDBThread.obj
 0001:00003f80       ?ExecuteSQLByParam@COleDBThread@@QAEHPAGPAUtagDBBINDING@@PAXE@Z 50004f80 f   OleDBThread.obj
 0001:00004230       ?GetBLOBData@COleDBThread@@QAEHPAG00PAXK@Z 50005230 f   OleDBThread.obj
 0001:00004b70       ?GetBLOBData@COleDBThread@@QAEHPAG000K@Z 50005b70 f   OleDBThread.obj
 0001:00004d10       ?SetBLOBData@COleDBThread@@QAEHPAG000@Z 50005d10 f   OleDBThread.obj
 0001:00004ee0       ?SetBLOBData@COleDBThread@@QAEHPAG00PAXK@Z 50005ee0 f   OleDBThread.obj
 0001:00005a00       ?ErrorDisplay@COleDBThread@@QAEXJ@Z 50006a00 f   OleDBThread.obj
 0001:00005e60       ?ErrorDisplayEx@COleDBThread@@QAEXJPAG@Z 50006e60 f   OleDBThread.obj
 0001:000062c0       ??1COleDBThread@@QAE@XZ    500072c0 f   OleDBThread.obj
 0001:000064d0       ?GetExcuteEndEvent@COleDBThread@@IAEPAXXZ 500074d0 f i OleDBThread.obj
 0001:00006510       ?GetExcuteThreadHandle@COleDBThread@@IAEPAXXZ 50007510 f i OleDBThread.obj
 0001:00006540       ??_GCThreadSafeStaticMemPool@@QAEPAXI@Z 50007540 f i OleDBThread.obj
 0001:000065a0       ?SetCommandExecute@COleDBThread@@QAEJPAGEPAPAUIRowsetChange@@PAPAUIRowset@@PAUtagDBPARAMS@@HPAJ@Z 500075a0 f   OleDBThread.obj
 0001:00006800       ?GetExcuteEvent@COleDBThread@@IAEPAXXZ 50007800 f i OleDBThread.obj
 0001:00006840       ?SetExcuteInit@COleDBThread@@IAEXXZ 50007840 f i OleDBThread.obj
 0001:00006880       ?OleDBExecuteThreadFunc@COleDBThread@@QAEKXZ 50007880 f   OleDBThread.obj
 0001:00006b40       ?GetExcuteType@COleDBThread@@IAEEXZ 50007b40 f i OleDBThread.obj
 0001:00006b70       ?GetCommandTimeOutTime@COleDBThread@@IAEKXZ 50007b70 f i OleDBThread.obj
 0001:00006ba0       ?GetCommandText@COleDBThread@@IAEPAUICommandText@@XZ 50007ba0 f i OleDBThread.obj
 0001:00006bd0       ?OLEDBThread@@YGKPAX@Z     50007bd0 f   OleDBThreadCls.obj
 0001:00006c20       ?InformInputQueryThreadAPC@@YGXK@Z 50007c20 f   OleDBThreadCls.obj
 0001:00006c50       ?QueryInterface@COleDBThreadCls@@UAGJABU_GUID@@PAPAX@Z 50007c50 f   OleDBThreadCls.obj
 0001:00006cf0       ?AddRef@COleDBThreadCls@@UAGKXZ 50007cf0 f   OleDBThreadCls.obj
 0001:00006d30       ?Release@COleDBThreadCls@@UAGKXZ 50007d30 f   OleDBThreadCls.obj
 0001:00006dc0       ??0COleDBThreadCls@@QAE@XZ 50007dc0 f   OleDBThreadCls.obj
 0001:00006ed0       ?SetDBResultEvent@COleDBThreadCls@@UAGXPAX@Z 50007ed0 f i OleDBThreadCls.obj
 0001:00006f00       ?GetOLEDBSize@COleDBThreadCls@@UAGKXZ 50007f00 f i OleDBThreadCls.obj
 0001:00006f30       ??0IOleDBThread@@QAE@XZ    50007f30 f i OleDBThreadCls.obj
 0001:00006f80       ??1COleDBThreadCls@@QAE@XZ 50007f80 f   OleDBThreadCls.obj
 0001:00007290       ??_GCOleDBThread@@QAEPAXI@Z 50008290 f i OleDBThreadCls.obj
 0001:000072f0       ??_GCMsgQueue@@QAEPAXI@Z   500082f0 f i OleDBThreadCls.obj
 0001:00007350       ?KSCToUnicode@COleDBThreadCls@@UAGHPBDPAG@Z 50008350 f   OleDBThreadCls.obj
 0001:00007410       ?UnicodeToKSC@COleDBThreadCls@@UAGHPAGPADH@Z 50008410 f   OleDBThreadCls.obj
 0001:00007490       ?THIgnoreQueryInput@COleDBThreadCls@@UAGXXZ 50008490 f   OleDBThreadCls.obj
 0001:000074d0       ?ProtectInputMessage@COleDBThreadCls@@QAEXH@Z 500084d0 f i OleDBThreadCls.obj
 0001:00007510       ?THAcceptQueryInput@COleDBThreadCls@@UAGXXZ 50008510 f   OleDBThreadCls.obj
 0001:00007550       ?CheckSafeIndex@COleDBThreadCls@@QAEHE@Z 50008550 f   OleDBThreadCls.obj
 0001:000075b0       ?SetDefaultDBIndex@COleDBThreadCls@@UAGHE@Z 500085b0 f   OleDBThreadCls.obj
 0001:00007610       ?GetDefaultDBIndex@COleDBThreadCls@@UAGEXZ 50008610 f   OleDBThreadCls.obj
 0001:00007650       ?InitDBModule@COleDBThreadCls@@UAGHPAUDB_INITIALIZE_DESC@@@Z 50008650 f   OleDBThreadCls.obj
 0001:00007bb0       ?CreateDBConnection@COleDBThreadCls@@UAGHXZ 50008bb0 f   OleDBThreadCls.obj
 0001:00007cb0       ?ReleaseDBConnectionForSingleThread@COleDBThreadCls@@UAGHE@Z 50008cb0 f   OleDBThreadCls.obj
 0001:00007df0       ?Connect@COleDBThreadCls@@UAGHPBD000HHHE@Z 50008df0 f   OleDBThreadCls.obj
 0001:00007ff0       ?Connect@COleDBThreadCls@@UAGHPBD000HE@Z 50008ff0 f   OleDBThreadCls.obj
 0001:000081e0       ?ExecuteSQL@COleDBThreadCls@@UAGHPADE@Z 500091e0 f   OleDBThreadCls.obj
 0001:000082c0       ?ExecuteSQLByParam@COleDBThreadCls@@UAGHPADPAUtagDBBINDING@@PAXEE@Z 500092c0 f   OleDBThreadCls.obj
 0001:000083b0       ?CreateParamInfo@COleDBThreadCls@@UAGPAUtagDBBINDING@@GE@Z 500093b0 f   OleDBThreadCls.obj
 0001:00008420       ?ReleaseParamInfo@COleDBThreadCls@@UAGHPAUtagDBBINDING@@E@Z 50009420 f   OleDBThreadCls.obj
 0001:00008490       ?THCreateParamInfo@COleDBThreadCls@@UAGPAUtagDBBINDING@@G@Z 50009490 f   OleDBThreadCls.obj
 0001:000085e0       ?GetParamPool@COleDBThreadCls@@QAEPAVCThreadSafeStaticMemPool@@XZ 500095e0 f i OleDBThreadCls.obj
 0001:00008620       ?THReleaseParamInfo@COleDBThreadCls@@QAEXPAUtagDBBINDING@@@Z 50009620 f   OleDBThreadCls.obj
 0001:00008690       ?OpenRecord@COleDBThreadCls@@UAGHPADPAXKE@Z 50009690 f   OleDBThreadCls.obj
 0001:00008780       ?OpenRecordEx@COleDBThreadCls@@UAGPAUDBRECEIVEDATA@@PADKKE@Z 50009780 f   OleDBThreadCls.obj
 0001:00008870       ?GetColumnInfo@COleDBThreadCls@@UAGPAUtagDBCOLUMNINFO@@PADPAKE@Z 50009870 f   OleDBThreadCls.obj
 0001:00008960       ?GetData@COleDBThreadCls@@UAGHPAXPAUDBRECEIVEDATA@@KGE@Z 50009960 f   OleDBThreadCls.obj
 0001:000089e0       ?ReleaseRecordset@COleDBThreadCls@@UAGHPAUDBRECEIVEDATA@@E@Z 500099e0 f   OleDBThreadCls.obj
 0001:00008a50       ?GetBLOBData@COleDBThreadCls@@UAGHPAD00PAXKE@Z 50009a50 f   OleDBThreadCls.obj
 0001:00008bf0       ?GetBLOBData@COleDBThreadCls@@UAGHPAD000KE@Z 50009bf0 f   OleDBThreadCls.obj
 0001:00008de0       ?SetBLOBData@COleDBThreadCls@@UAGHPAD00PAXKE@Z 50009de0 f   OleDBThreadCls.obj
 0001:00008f80       ?SetBLOBData@COleDBThreadCls@@UAGHPAD000E@Z 50009f80 f   OleDBThreadCls.obj
 0001:00009170       ?ChangeDB@COleDBThreadCls@@UAGHPADE@Z 5000a170 f   OleDBThreadCls.obj
 0001:00009250       ?QueryDBCatalog@COleDBThreadCls@@UAGHPAUDBSCHEMA@@KE@Z 5000a250 f   OleDBThreadCls.obj
 0001:000092c0       ?QueryDBTable@COleDBThreadCls@@UAGHPAUDBSCHEMA@@KE@Z 5000a2c0 f   OleDBThreadCls.obj
 0001:00009330       ?THOpenRecord@COleDBThreadCls@@UAGXPADKPAXKE@Z 5000a330 f   OleDBThreadCls.obj
 0001:00009490       ?GetInputMsgPool@COleDBThreadCls@@QAEPAVCThreadSafeStaticMemPool@@XZ 5000a490 f i OleDBThreadCls.obj
 0001:000094d0       ?THExecuteSQL@COleDBThreadCls@@UAGXPADEKPAXE@Z 5000a4d0 f   OleDBThreadCls.obj
 0001:00009620       ?THExecuteSQLByParam@COleDBThreadCls@@UAGXPADPAUtagDBBINDING@@PAXKEEK2E@Z 5000a620 f   OleDBThreadCls.obj
 0001:000097d0       ?THChangeDB@COleDBThreadCls@@UAGHPADEKE@Z 5000a7d0 f   OleDBThreadCls.obj
 0001:000098c0       ?GetDBResult@COleDBThreadCls@@UAGXXZ 5000a8c0 f   OleDBThreadCls.obj
 0001:00009a10       ?GetDBResultEvent@COleDBThreadCls@@QAEPAXXZ 5000aa10 f i OleDBThreadCls.obj
 0001:00009a40       ?GetOutputMsgQueue@COleDBThreadCls@@QBEPAVCMsgQueue@@XZ 5000aa40 f i OleDBThreadCls.obj
 0001:00009a80       ?FreeResultMessage@COleDBThreadCls@@UAGXPAUDBRECEIVEDATA@@@Z 5000aa80 f   OleDBThreadCls.obj
 0001:00009ad0       ?THReleaseRecordset@COleDBThreadCls@@UAGHPAUDBRECEIVEDATA@@@Z 5000aad0 f   OleDBThreadCls.obj
 0001:00009b60       ?SetPerformanceReport@COleDBThreadCls@@UAGXH@Z 5000ab60 f   OleDBThreadCls.obj
 0001:00009b90       ?PostDBMessage@COleDBThreadCls@@QAEHPAUDBCommandMsg@@@Z 5000ab90 f   OleDBThreadCls.obj
 0001:00009c40       ?GetInputMsgQueue@COleDBThreadCls@@QBEPAVCMsgQueue@@XZ 5000ac40 f i OleDBThreadCls.obj
 0001:00009c80       ?SwitchInputQueue@COleDBThreadCls@@QAEXXZ 5000ac80 f   OleDBThreadCls.obj
 0001:00009cd0       ?SwitchOutputQueue@COleDBThreadCls@@QAEXXZ 5000acd0 f   OleDBThreadCls.obj
 0001:00009d20       ?OutputMessage@COleDBThreadCls@@QAEXPAD@Z 5000ad20 f   OleDBThreadCls.obj
 0001:00009d70       ?OutputReport@COleDBThreadCls@@QAEXPAD@Z 5000ad70 f   OleDBThreadCls.obj
 0001:00009dc0       ?CheckSafeIndexChk@COleDBThreadCls@@QAEHE@Z 5000adc0 f   OleDBThreadCls.obj
 0001:00009e20       ?GetResultIndex@COleDBThreadCls@@QAEGE@Z 5000ae20 f   OleDBThreadCls.obj
 0001:00009e90       ?InformDBInput@COleDBThreadCls@@QAEXXZ 5000ae90 f   OleDBThreadCls.obj
 0001:00009ef0       ?InformDBOutput@COleDBThreadCls@@QAEXPAUDBRECEIVEDATA@@@Z 5000aef0 f   OleDBThreadCls.obj
 0001:00009f90       ?ProcessSelectQuery@COleDBThreadCls@@AAEXPAUDBCommandMsg@@@Z 5000af90 f   OleDBThreadCls.obj
 0001:0000a130       ?GetConnection@COleDBThreadCls@@QAEPAVCOleDBThread@@E@Z 5000b130 f i OleDBThreadCls.obj
 0001:0000a170       ?ProcessExecuteQuery@COleDBThreadCls@@AAEXPAUDBCommandMsg@@@Z 5000b170 f   OleDBThreadCls.obj
 0001:0000a330       ?ProcessExecuteWithParamQuery@COleDBThreadCls@@AAEXPAUDBCommandMsg@@@Z 5000b330 f   OleDBThreadCls.obj
 0001:0000a520       ?ProcessChangeDBQuery@COleDBThreadCls@@AAEXPAUDBCommandMsg@@@Z 5000b520 f   OleDBThreadCls.obj
 0001:0000a6c0       ?OleDBThreadFunc@COleDBThreadCls@@QAEKXZ 5000b6c0 f   OleDBThreadCls.obj
 0001:0000a9f0       ?GetDBKillEvent@COleDBThreadCls@@QAEPAXXZ 5000b9f0 f i OleDBThreadCls.obj
 0001:0000aa20       _DllMain@12                5000ba20 f   OleDBThreadNew.obj
 0001:0000aab0       _DllGetClassObject@12      5000bab0 f   OleDBThreadNew.obj
 0001:0000aba0       _DllCanUnloadNow@0         5000bba0 f   OleDBThreadNew.obj
 0001:0000abe0       _DllRegisterServer@0       5000bbe0 f   OleDBThreadNew.obj
 0001:0000ada0       _DllUnregisterServer@0     5000bda0 f   OleDBThreadNew.obj
 0001:0000af90       ?SetRegKeyValue@@YAHPAD00@Z 5000bf90 f   OleDBThreadNew.obj
 0001:0000b100       ?AddRef@CSeqStream@@UAGKXZ 5000c100 f   SeqStream.obj
 0001:0000b140       ?Release@CSeqStream@@UAGKXZ 5000c140 f   SeqStream.obj
 0001:0000b1f0       ?QueryInterface@CSeqStream@@UAGJABU_GUID@@PAPAX@Z 5000c1f0 f   SeqStream.obj
 0001:0000b2a0       ??0CSeqStream@@QAE@XZ      5000c2a0 f   SeqStream.obj
 0001:0000b320       ?Length@CSeqStream@@UAEKXZ 5000c320 f i SeqStream.obj
 0001:0000b350       ??BCSeqStream@@UAEQAXXZ    5000c350 f i SeqStream.obj
 0001:0000b380       ??_GCSeqStream@@UAEPAXI@Z  5000c380 f i SeqStream.obj
 0001:0000b380       ??_ECSeqStream@@UAEPAXI@Z  5000c380 f i SeqStream.obj
 0001:0000b3e0       ??0ISequentialStream@@QAE@XZ 5000c3e0 f i SeqStream.obj
 0001:0000b430       ??1CSeqStream@@UAE@XZ      5000c430 f   SeqStream.obj
 0001:0000b490       ?Seek@CSeqStream@@UAEHK@Z  5000c490 f   SeqStream.obj
 0001:0000b4d0       ?Clear@CSeqStream@@UAEHXZ  5000c4d0 f   SeqStream.obj
 0001:0000b540       ?CompareData@CSeqStream@@UAEHPAX@Z 5000c540 f   SeqStream.obj
 0001:0000b5a0       ?Read@CSeqStream@@UAGJPAXKPAK@Z 5000c5a0 f   SeqStream.obj
 0001:0000b690       ?Write@CSeqStream@@UAGJPBXKPAK@Z 5000c690 f   SeqStream.obj
 0001:0000b750       ?ExceptionFilter@@YGJPAU_EXCEPTION_POINTERS@@@Z 5000c750 f   ExceptionFilter.obj
 0001:0000bd10       ??0CThreadSafeStaticMemPool@@QAE@HKK@Z 5000cd10 f   TSMemPool.obj
 0001:0000bdb0       ??0CSpinLock@@QAE@XZ       5000cdb0 f i TSMemPool.obj
 0001:0000bdf0       ??1CThreadSafeStaticMemPool@@QAE@XZ 5000cdf0 f   TSMemPool.obj
 0001:0000be60       ??1CSpinLock@@QAE@XZ       5000ce60 f i TSMemPool.obj
 0001:0000be90       ?Alloc@CThreadSafeStaticMemPool@@QAEPAXXZ 5000ce90 f   TSMemPool.obj
 0001:0000bf40       ?Lock@CSpinLock@@QAEXXZ    5000cf40 f i TSMemPool.obj
 0001:0000bfa0       ?Unlock@CSpinLock@@QAEXXZ  5000cfa0 f i TSMemPool.obj
 0001:0000bff0       ?Free@CThreadSafeStaticMemPool@@QAEXPAX@Z 5000cff0 f   TSMemPool.obj
 0001:0000c060       ??0CMsgQueue@@QAE@K@Z      5000d060 f   DBMsgQueue.obj
 0001:0000c1c0       ??1CMsgQueue@@QAE@XZ       5000d1c0 f   DBMsgQueue.obj
 0001:0000c2b0       ??_GCMsgQueueUnit@@QAEPAXI@Z 5000d2b0 f i DBMsgQueue.obj
 0001:0000c310       ?SwitchQueues@CMsgQueue@@QAEXXZ 5000d310 f   DBMsgQueue.obj
 0001:0000c370       ?AddTail@CMsgQueue@@QAEPAXPAX@Z 5000d370 f   DBMsgQueue.obj
 0001:0000c3e0       ?GetForegroundQueue@CMsgQueue@@AAEPAVCMsgQueueUnit@@XZ 5000d3e0 f i DBMsgQueue.obj
 0001:0000c420       ?GetCount@CMsgQueue@@QAEHH@Z 5000d420 f   DBMsgQueue.obj
 0001:0000c4b0       ?GetCount@CMsgQueueUnit@@QBEHXZ 5000d4b0 f i DBMsgQueue.obj
 0001:0000c4e0       ?GetBackgroundQueue@CMsgQueue@@AAEPAVCMsgQueueUnit@@XZ 5000d4e0 f i DBMsgQueue.obj
 0001:0000c520       ?IsEmpty@CMsgQueue@@QAEHH@Z 5000d520 f   DBMsgQueue.obj
 0001:0000c570       ?RemoveAll@CMsgQueue@@QAEXXZ 5000d570 f   DBMsgQueue.obj
 0001:0000c5c0       ?GetHeadPosition@CMsgQueue@@QAEPAXXZ 5000d5c0 f   DBMsgQueue.obj
 0001:0000c610       ?GetHeadPosition@CMsgQueueUnit@@QBEPAXXZ 5000d610 f i DBMsgQueue.obj
 0001:0000c640       ?GetNext@CMsgQueue@@QAEPAXAAPAX@Z 5000d640 f   DBMsgQueue.obj
 0001:0000c690       ??0CMsgQueueUnit@@QAE@K@Z  5000d690 f   SimpleVoidList.obj
 0001:0000c790       ??1CMsgQueueUnit@@QAE@XZ   5000d790 f   SimpleVoidList.obj
 0001:0000c810       ?NewNode@CMsgQueueUnit@@AAEPAU__CNode@@PAU2@0@Z 5000d810 f   SimpleVoidList.obj
 0001:0000c890       ?FreeNode@CMsgQueueUnit@@AAEXPAU__CNode@@@Z 5000d890 f   SimpleVoidList.obj
 0001:0000c8f0       ?AddTail@CMsgQueueUnit@@QAEPAXPAX@Z 5000d8f0 f   SimpleVoidList.obj
 0001:0000c970       ?RemoveAll@CMsgQueueUnit@@QAEXXZ 5000d970 f   SimpleVoidList.obj
 0001:0000ca00       ?GetNext@CMsgQueueUnit@@QBEPAXAAPAX@Z 5000da00 f   SimpleVoidList.obj
 0001:0000ca4e       _timeGetTime@0             5000da4e f   winmm:WINMM.dll
 0001:0000ca54       _OutputDebugStringW@4      5000da54 f   kernel32:KERNEL32.dll
 0001:0000ca5a       _CreateEventA@16           5000da5a f   kernel32:KERNEL32.dll
 0001:0000ca60       _CloseHandle@4             5000da60 f   kernel32:KERNEL32.dll
 0001:0000ca66       _WriteFile@20              5000da66 f   kernel32:KERNEL32.dll
 0001:0000ca6c       _CreateFileW@28            5000da6c f   kernel32:KERNEL32.dll
 0001:0000ca72       _ReadFile@20               5000da72 f   kernel32:KERNEL32.dll
 0001:0000ca78       _GetFileSize@8             5000da78 f   kernel32:KERNEL32.dll
 0001:0000ca7e       _WideCharToMultiByte@32    5000da7e f   kernel32:KERNEL32.dll
 0001:0000ca84       _GetUserDefaultLCID@0      5000da84 f   kernel32:KERNEL32.dll
 0001:0000ca8a       _WaitForSingleObject@8     5000da8a f   kernel32:KERNEL32.dll
 0001:0000ca90       _SetEvent@4                5000da90 f   kernel32:KERNEL32.dll
 0001:0000ca96       _MultiByteToWideChar@24    5000da96 f   kernel32:KERNEL32.dll
 0001:0000ca9c       _QueueUserAPC@12           5000da9c f   kernel32:KERNEL32.dll
 0001:0000caa2       _GetTickCount@0            5000daa2 f   kernel32:KERNEL32.dll
 0001:0000caa8       _WaitForSingleObjectEx@12  5000daa8 f   kernel32:KERNEL32.dll
 0001:0000caae       _DeleteCriticalSection@4   5000daae f   kernel32:KERNEL32.dll
 0001:0000cab4       _InitializeCriticalSection@4 5000dab4 f   kernel32:KERNEL32.dll
 0001:0000caba       _lstrcatA@8                5000daba f   kernel32:KERNEL32.dll
 0001:0000cac0       _lstrcpyA@8                5000dac0 f   kernel32:KERNEL32.dll
 0001:0000cac6       _GetModuleFileNameA@12     5000dac6 f   kernel32:KERNEL32.dll
 0001:0000cacc       _lstrlenA@4                5000dacc f   kernel32:KERNEL32.dll
 0001:0000cad2       _GetLastError@0            5000dad2 f   kernel32:KERNEL32.dll
 0001:0000cad8       _GetCurrentThread@0        5000dad8 f   kernel32:KERNEL32.dll
 0001:0000cade       _GetCurrentThreadId@0      5000dade f   kernel32:KERNEL32.dll
 0001:0000cae4       _GetCurrentProcessId@0     5000dae4 f   kernel32:KERNEL32.dll
 0001:0000caea       _LeaveCriticalSection@4    5000daea f   kernel32:KERNEL32.dll
 0001:0000caf0       _GetCurrentProcess@0       5000daf0 f   kernel32:KERNEL32.dll
 0001:0000caf6       _EnterCriticalSection@4    5000daf6 f   kernel32:KERNEL32.dll
 0001:0000cafc       _InterlockedCompareExchange@12 5000dafc f   kernel32:KERNEL32.dll
 0001:0000cb02       _InterlockedExchange@8     5000db02 f   kernel32:KERNEL32.dll
 0001:0000cb08       _MessageBoxW@16            5000db08 f   user32:USER32.dll
 0001:0000cb0e       _GetActiveWindow@0         5000db0e f   user32:USER32.dll
 0001:0000cb14       _PostMessageA@16           5000db14 f   user32:USER32.dll
 0001:0000cb1a       _wsprintfA                 5000db1a f   user32:USER32.dll
 0001:0000cb20       _RegDeleteKeyA@8           5000db20 f   advapi32:ADVAPI32.dll
 0001:0000cb26       _RegCloseKey@4             5000db26 f   advapi32:ADVAPI32.dll
 0001:0000cb2c       _RegSetValueExA@24         5000db2c f   advapi32:ADVAPI32.dll
 0001:0000cb32       _RegCreateKeyExA@36        5000db32 f   advapi32:ADVAPI32.dll
 0001:0000cb38       _CoCreateInstance@20       5000db38 f   ole32:ole32.dll
 0001:0000cb3e       _CoInitialize@4            5000db3e f   ole32:ole32.dll
 0001:0000cb44       _CoUninitialize@0          5000db44 f   ole32:ole32.dll
 0001:0000cb4a       _StringFromGUID2@12        5000db4a f   ole32:ole32.dll
 0001:0000cb50       _CoTaskMemFree@4           5000db50 f   ole32:ole32.dll
 0001:0000cb56       _CoTaskMemRealloc@8        5000db56 f   ole32:ole32.dll
 0001:0000cb5c       _SysFreeString@4           5000db5c f   oleaut32:OLEAUT32.dll
 0001:0000cb62       _SysAllocString@4          5000db62 f   oleaut32:OLEAUT32.dll
 0001:0000cb68       _VariantInit@4             5000db68 f   oleaut32:OLEAUT32.dll
 0001:0000cb6e       _GetErrorInfo@8            5000db6e f   oleaut32:OLEAUT32.dll
 0001:0000cb74       _InitializeStaticMemoryPool@16 5000db74 f   SS3DGFunc:SS3DGFunc.dll
 0001:0000cb7a       _CreateStaticMemoryPool@0  5000db7a f   SS3DGFunc:SS3DGFunc.dll
 0001:0000cb80       _ReleaseStaticMemoryPool@4 5000db80 f   SS3DGFunc:SS3DGFunc.dll
 0001:0000cb86       _LALAlloc@4                5000db86 f   SS3DGFunc:SS3DGFunc.dll
 0001:0000cb8c       _LALFree@8                 5000db8c f   SS3DGFunc:SS3DGFunc.dll
 0001:0000cba0       __RTC_CheckEsp             5000dba0 f   LIBCMTD:stack.obj
 0001:0000cbd0       @_RTC_CheckStackVars@8     5000dbd0 f   LIBCMTD:stack.obj
 0001:0000cc40       __RTC_InitBase             5000dc40 f   LIBCMTD:init.obj
 0001:0000cc70       __RTC_Shutdown             5000dc70 f   LIBCMTD:init.obj
 0001:0000cc90       _memcmp                    5000dc90 f   LIBCMTD:memcmp.obj
 0001:0000cd50       ??3@YAXPAX@Z               5000dd50 f   LIBCMTD:dbgdel.obj
 0001:0000ce30       ??2@YAPAXI@Z               5000de30 f   LIBCMTD:new.obj
 0001:0000ce50       ?_JumpToContinuation@@YGXPAXPAUEHRegistrationNode@@@Z 5000de50 f   LIBCMTD:trnsctrl.obj
 0001:0000ce90       ?_CallMemberFunction0@@YGXPAX0@Z 5000de90 f   LIBCMTD:trnsctrl.obj
 0001:0000cea0       ?_CallMemberFunction1@@YGXPAX00@Z 5000dea0 f   LIBCMTD:trnsctrl.obj
 0001:0000ceb0       ?_CallMemberFunction2@@YGXPAX00H@Z 5000deb0 f   LIBCMTD:trnsctrl.obj
 0001:0000cec0       ?_UnwindNestedFrames@@YGXPAUEHRegistrationNode@@PAUEHExceptionRecord@@@Z 5000dec0 f   LIBCMTD:trnsctrl.obj
 0001:0000cf20       ___CxxFrameHandler         5000df20 f   LIBCMTD:trnsctrl.obj
 0001:0000cf60       ___CxxLongjmpUnwind@4      5000df60 f   LIBCMTD:trnsctrl.obj
 0001:0000cf90       ?_CallCatchBlock2@@YAPAXPAUEHRegistrationNode@@PBU_s_FuncInfo@@PAXHK@Z 5000df90 f   LIBCMTD:trnsctrl.obj
 0001:0000d060       ?_CallSETranslator@@YAHPAUEHExceptionRecord@@PAUEHRegistrationNode@@PAX2PBU_s_FuncInfo@@H1@Z 5000e060 f   LIBCMTD:trnsctrl.obj
 0001:0000d210       ?_GetRangeOfTrysToCheck@@YAPBU_s_TryBlockMapEntry@@PBU_s_FuncInfo@@HHPAI1@Z 5000e210 f   LIBCMTD:trnsctrl.obj
 0001:0000d2a0       ?_CreateFrameInfo@@YAPAUFrameInfo@@PAU1@PAX@Z 5000e2a0 f   LIBCMTD:trnsctrl.obj
 0001:0000d2d0       ?IsExceptionObjectToBeDestroyed@@YAHPAX@Z 5000e2d0 f   LIBCMTD:trnsctrl.obj
 0001:0000d300       ?_FindAndUnlinkFrame@@YAXPAUFrameInfo@@@Z 5000e300 f   LIBCMTD:trnsctrl.obj
 0001:0000d358       __global_unwind2           5000e358 f   LIBCMTD:exsup.obj
 0001:0000d39a       __local_unwind2            5000e39a f   LIBCMTD:exsup.obj
 0001:0000d3f2       __NLG_Return2              5000e3f2     LIBCMTD:exsup.obj
 0001:0000d402       __abnormal_termination     5000e402 f   LIBCMTD:exsup.obj
 0001:0000d425       __NLG_Notify1              5000e425 f   LIBCMTD:exsup.obj
 0001:0000d42e       __NLG_Notify               5000e42e f   LIBCMTD:exsup.obj
 0001:0000d441       __NLG_Dispatch             5000e441     LIBCMTD:exsup.obj
 0001:0000d450       __except_handler3          5000e450 f   LIBCMTD:exsup3.obj
 0001:0000d536       __seh_longjmp_unwind@4     5000e536 f   LIBCMTD:exsup3.obj
 0001:0000d560       ?_RTC_Failure@@YAXPAXH@Z   5000e560 f   LIBCMTD:error.obj
 0001:0000d7c0       ?_RTC_MemFailure@@YAXPAXHPBX@Z 5000e7c0 f   LIBCMTD:error.obj
 0001:0000da10       ?_RTC_StackFailure@@YAXPAXPBD@Z 5000ea10 f   LIBCMTD:error.obj
 0001:0000dad0       __RTC_UninitUse            5000ead0 f   LIBCMTD:error.obj
 0001:0000dc90       __beginthreadex            5000ec90 f   LIBCMTD:threadex.obj
 0001:0000de80       __endthreadex              5000ee80 f   LIBCMTD:threadex.obj
 0001:0000ded0       ??_V@YAXPAX@Z              5000eed0 f   LIBCMTD:delete2.obj
 0001:0000def0       _memcpy                    5000eef0 f   LIBCMTD:memcpy.obj
 0001:0000e230       _memset                    5000f230 f   LIBCMTD:memset.obj
 0001:0000e290       ??_U@YAPAXI@Z              5000f290 f   LIBCMTD:new2.obj
 0001:0000e2b0       _strlen                    5000f2b0 f   LIBCMTD:strlen.obj
 0001:0000e340       _sprintf                   5000f340 f   LIBCMTD:sprintf.obj
 0001:0000e430       __scprintf                 5000f430 f   LIBCMTD:sprintf.obj
 0001:0000e4b0       _swprintf                  5000f4b0 f   LIBCMTD:swprintf.obj
 0001:0000e5f0       __scwprintf                5000f5f0 f   LIBCMTD:swprintf.obj
 0001:0000e670       _wcslen                    5000f670 f   LIBCMTD:wcslen.obj
 0001:0000e6a0       __alloca_probe             5000f6a0     LIBCMTD:chkstk.obj
 0001:0000e6a0       __chkstk                   5000f6a0 f   LIBCMTD:chkstk.obj
 0001:0000e6e0       __purecall                 5000f6e0 f   LIBCMTD:purevirt.obj
 0001:0000e700       __set_purecall_handler     5000f700 f   LIBCMTD:purevirt.obj
 0001:0000e730       _malloc                    5000f730 f   LIBCMTD:dbgheap.obj
 0001:0000e760       __malloc_dbg               5000f760 f   LIBCMTD:dbgheap.obj
 0001:0000e790       __nh_malloc                5000f790 f   LIBCMTD:dbgheap.obj
 0001:0000e7b0       __nh_malloc_dbg            5000f7b0 f   LIBCMTD:dbgheap.obj
 0001:0000e850       __heap_alloc               5000f850 f   LIBCMTD:dbgheap.obj
 0001:0000e870       __heap_alloc_dbg           5000f870 f   LIBCMTD:dbgheap.obj
 0001:0000eb90       _calloc                    5000fb90 f   LIBCMTD:dbgheap.obj
 0001:0000ebc0       __calloc_dbg               5000fbc0 f   LIBCMTD:dbgheap.obj
 0001:0000ec20       _realloc                   5000fc20 f   LIBCMTD:dbgheap.obj
 0001:0000ec50       __realloc_dbg              5000fc50 f   LIBCMTD:dbgheap.obj
 0001:0000f1f0       __expand                   500101f0 f   LIBCMTD:dbgheap.obj
 0001:0000f220       __expand_dbg               50010220 f   LIBCMTD:dbgheap.obj
 0001:0000f2b0       _free                      500102b0 f   LIBCMTD:dbgheap.obj
 0001:0000f2d0       __free_lk                  500102d0 f   LIBCMTD:dbgheap.obj
 0001:0000f2f0       __free_dbg                 500102f0 f   LIBCMTD:dbgheap.obj
 0001:0000f360       __free_dbg_lk              50010360 f   LIBCMTD:dbgheap.obj
 0001:0000f770       __msize                    50010770 f   LIBCMTD:dbgheap.obj
 0001:0000f790       __msize_dbg                50010790 f   LIBCMTD:dbgheap.obj
 0001:0000f900       __CrtSetBreakAlloc         50010900 f   LIBCMTD:dbgheap.obj
 0001:0000f920       __CrtSetDbgBlockType       50010920 f   LIBCMTD:dbgheap.obj
 0001:0000fa00       __CrtSetAllocHook          50010a00 f   LIBCMTD:dbgheap.obj
 0001:0000fa70       __CrtCheckMemory           50010a70 f   LIBCMTD:dbgheap.obj
 0001:0000fde0       __CrtSetDbgFlag            50010de0 f   LIBCMTD:dbgheap.obj
 0001:0000fe90       __CrtDoForAllClientObjects 50010e90 f   LIBCMTD:dbgheap.obj
 0001:0000ff40       __CrtIsValidPointer        50010f40 f   LIBCMTD:dbgheap.obj
 0001:0000ff90       __CrtIsValidHeapPointer    50010f90 f   LIBCMTD:dbgheap.obj
 0001:00010040       __CrtIsMemoryBlock         50011040 f   LIBCMTD:dbgheap.obj
 0001:00010170       __CrtReportBlockType       50011170 f   LIBCMTD:dbgheap.obj
 0001:000101a0       __CrtSetDumpClient         500111a0 f   LIBCMTD:dbgheap.obj
 0001:000101c0       __CrtMemCheckpoint         500111c0 f   LIBCMTD:dbgheap.obj
 0001:00010360       __CrtMemDifference         50011360 f   LIBCMTD:dbgheap.obj
 0001:00010480       __CrtMemDumpAllObjectsSince 50011480 f   LIBCMTD:dbgheap.obj
 0001:00010880       __CrtDumpMemoryLeaks       50011880 f   LIBCMTD:dbgheap.obj
 0001:000108f0       __CrtMemDumpStatistics     500118f0 f   LIBCMTD:dbgheap.obj
 0001:000109a0       __aligned_malloc           500119a0 f   LIBCMTD:dbgheap.obj
 0001:000109c0       __aligned_malloc_dbg       500119c0 f   LIBCMTD:dbgheap.obj
 0001:000109e0       __aligned_realloc          500119e0 f   LIBCMTD:dbgheap.obj
 0001:00010a00       __aligned_realloc_dbg      50011a00 f   LIBCMTD:dbgheap.obj
 0001:00010a30       __aligned_offset_malloc    50011a30 f   LIBCMTD:dbgheap.obj
 0001:00010a50       __aligned_offset_malloc_dbg 50011a50 f   LIBCMTD:dbgheap.obj
 0001:00010b90       __aligned_offset_realloc   50011b90 f   LIBCMTD:dbgheap.obj
 0001:00010bc0       __aligned_offset_realloc_dbg 50011bc0 f   LIBCMTD:dbgheap.obj
 0001:00010e20       __aligned_free             50011e20 f   LIBCMTD:dbgheap.obj
 0001:00010e40       __aligned_free_dbg         50011e40 f   LIBCMTD:dbgheap.obj
 0001:00010ef0       _wcstombs                  50011ef0 f   LIBCMTD:wcstombs.obj
 0001:00010f30       ___wcstombs_mt             50011f30 f   LIBCMTD:wcstombs.obj
 0001:00011270       _fclose                    50012270 f   LIBCMTD:fclose.obj
 0001:00011330       __fclose_lk                50012330 f   LIBCMTD:fclose.obj
 0001:000113e0       __strtime                  500123e0 f   LIBCMTD:strtime.obj
 0001:000114a0       __strdate                  500124a0 f   LIBCMTD:strdate.obj
 0001:00011560       _fprintf                   50012560 f   LIBCMTD:fprintf.obj
 0001:00011650       __fsopen                   50012650 f   LIBCMTD:fopen.obj
 0001:00011780       _fopen                     50012780 f   LIBCMTD:fopen.obj
 0001:000117a0       __CRT_INIT@12              500127a0 f   LIBCMTD:dllcrt0.obj
 0001:000119f0       __DllMainCRTStartup@12     500129f0 f   LIBCMTD:dllcrt0.obj
 0001:00011b70       __amsg_exit                50012b70 f   LIBCMTD:dllcrt0.obj
 0001:00011bb0       __RTC_NumErrors            50012bb0 f   LIBCMTD:userapi.obj
 0001:00011bc0       __RTC_GetErrDesc           50012bc0 f   LIBCMTD:userapi.obj
 0001:00011be0       __RTC_SetErrorType         50012be0 f   LIBCMTD:userapi.obj
 0001:00011c10       __RTC_SetErrorFunc         50012c10 f   LIBCMTD:userapi.obj
 0001:00011c30       ?_RTC_GetErrorFunc@@YAP6AHHPBDH00ZZPBX@Z 50012c30 f   LIBCMTD:userapi.obj
 0001:00011c40       __chkesp                   50012c40 f   LIBCMTD:chkesp.obj
 0001:00011c80       __CRT_RTC_INIT             50012c80 f   LIBCMTD:chkesp.obj
 0001:00011c90       __mtinitlocks              50012c90 f   LIBCMTD:mlock.obj
 0001:00011d20       __mtdeletelocks            50012d20 f   LIBCMTD:mlock.obj
 0001:00011de0       __mtinitlocknum            50012de0 f   LIBCMTD:mlock.obj
 0001:00011f00       __lock                     50012f00 f   LIBCMTD:mlock.obj
 0001:00011f40       __unlock                   50012f40 f   LIBCMTD:mlock.obj
 0001:00011f60       __lockerr_exit             50012f60 f   LIBCMTD:mlock.obj
 0001:00011f80       __CrtDbgBreak              50012f80 f   LIBCMTD:dbgrpt.obj
 0001:00011f90       __CrtSetReportMode         50012f90 f   LIBCMTD:dbgrpt.obj
 0001:00011ff0       __CrtSetReportFile         50012ff0 f   LIBCMTD:dbgrpt.obj
 0001:00012070       __CrtSetReportHook         50013070 f   LIBCMTD:dbgrpt.obj
 0001:00012090       __CrtSetReportHook2        50013090 f   LIBCMTD:dbgrpt.obj
 0001:000122e0       __CrtDbgReport             500132e0 f   LIBCMTD:dbgrpt.obj
 0001:00012a50       ___InternalCxxFrameHandler 50013a50 f   LIBCMTD:frame.obj
 0001:00012fc0       ___FrameUnwindToState      50013fc0 f   LIBCMTD:frame.obj
 0001:00013730       ___DestructExceptionObject 50014730 f   LIBCMTD:frame.obj
 0001:00013810       ?__uncaught_exception@@YA_NXZ 50014810 f   LIBCMTD:frame.obj
 0001:00013830       ___CxxExceptionFilter      50014830 f   LIBCMTD:frame.obj
 0001:000139e0       ___CxxRegisterExceptionObject 500149e0 f   LIBCMTD:frame.obj
 0001:00013b00       ___CxxDetectRethrow        50014b00 f   LIBCMTD:frame.obj
 0001:00013b60       ___CxxUnregisterExceptionObject 50014b60 f   LIBCMTD:frame.obj
 0001:00013c30       ___CxxQueryExceptionSize   50014c30 f   LIBCMTD:frame.obj
 0001:00013c40       ___CxxCallUnwindDtor       50014c40 f   LIBCMTD:frame.obj
 0001:00013cb0       ___CxxCallUnwindVecDtor    50014cb0 f   LIBCMTD:frame.obj
 0001:00013d30       __CallSettingFrame@12      50014d30 f   LIBCMTD:lowhelpr.obj
 0001:00013d57       __NLG_Return               50014d57     LIBCMTD:lowhelpr.obj
 0001:00013d80       ___crtTlsAlloc@4           50014d80 f   LIBCMTD:tidtable.obj
 0001:00013d90       __mtinit                   50014d90 f   LIBCMTD:tidtable.obj
 0001:00013ee0       __mtterm                   50014ee0 f   LIBCMTD:tidtable.obj
 0001:00013f10       __initptd                  50014f10 f   LIBCMTD:tidtable.obj
 0001:00013f30       __getptd                   50014f30 f   LIBCMTD:tidtable.obj
 0001:00013fd0       __freefls@4                50014fd0 f   LIBCMTD:tidtable.obj
 0001:00014250       __freeptd                  50015250 f   LIBCMTD:tidtable.obj
 0001:00014290       ___threadid                50015290 f   LIBCMTD:tidtable.obj
 0001:000142a0       ___threadhandle            500152a0 f   LIBCMTD:tidtable.obj
 0001:000142b0       ?terminate@@YAXXZ          500152b0 f   LIBCMTD:hooks.obj
 0001:00014320       ?unexpected@@YAXXZ         50015320 f   LIBCMTD:hooks.obj
 0001:00014340       ?_inconsistency@@YAXXZ     50015340 f   LIBCMTD:hooks.obj
 0001:000143b0       __ValidateEH3RN            500153b0 f   LIBCMTD:eh3valid.obj
 0001:000147a0       ?_RTC_GetSrcLine@@YAHKPADHPAHPAPAD@Z 500157a0 f   LIBCMTD:pdblkup.obj
 0001:00015040       __dosmaperr                50016040 f   LIBCMTD:dosmap.obj
 0001:000150e0       __errno                    500160e0 f   LIBCMTD:dosmap.obj
 0001:000150f0       ___doserrno                500160f0 f   LIBCMTD:dosmap.obj
 0001:00015100       __cinit                    50016100 f   LIBCMTD:crt0dat.obj
 0001:00015160       _exit                      50016160 f   LIBCMTD:crt0dat.obj
 0001:00015180       __exit                     50016180 f   LIBCMTD:crt0dat.obj
 0001:000151a0       __cexit                    500161a0 f   LIBCMTD:crt0dat.obj
 0001:000151c0       __c_exit                   500161c0 f   LIBCMTD:crt0dat.obj
 0001:00015310       ___crtExitProcess          50016310 f   LIBCMTD:crt0dat.obj
 0001:00015360       __lockexit                 50016360 f   LIBCMTD:crt0dat.obj
 0001:00015370       __unlockexit               50016370 f   LIBCMTD:crt0dat.obj
 0001:000153f0       ___CppXcptFilter           500163f0 f   LIBCMTD:winxfltr.obj
 0001:00015420       __XcptFilter               50016420 f   LIBCMTD:winxfltr.obj
 0001:00015640       __flsbuf                   50016640 f   LIBCMTD:_flsbuf.obj
 0001:000158a0       __output                   500168a0 f   LIBCMTD:output.obj
 0001:00016820       __woutput                  50017820 f   LIBCMTD:woutput.obj
 0001:000176f0       ?_set_new_handler@@YAP6AHI@ZP6AHI@Z@Z 500186f0 f   LIBCMTD:handler.obj
 0001:00017720       ?_query_new_handler@@YAP6AHI@ZXZ 50018720 f   LIBCMTD:handler.obj
 0001:00017730       __callnewh                 50018730 f   LIBCMTD:handler.obj
 0001:00017760       __malloc_base              50018760 f   LIBCMTD:malloc.obj
 0001:00017780       __nh_malloc_base           50018780 f   LIBCMTD:malloc.obj
 0001:000177e0       __heap_alloc_base          500187e0 f   LIBCMTD:malloc.obj
 0001:000178b0       __CrtDefaultAllocHook      500188b0 f   LIBCMTD:dbghook.obj
 0001:000178c0       __expand_base              500188c0 f   LIBCMTD:expand.obj
 0001:000179e0       __realloc_base             500189e0 f   LIBCMTD:realloc.obj
 0001:00017c90       __free_base                50018c90 f   LIBCMTD:free.obj
 0001:00017d60       __heapchk                  50018d60 f   LIBCMTD:heapchk.obj
 0001:00017e20       __heapset                  50018e20 f   LIBCMTD:heapchk.obj
 0001:00017e30       ___heap_select             50018e30 f   LIBCMTD:heapinit.obj
 0001:00017e60       __heap_init                50018e60 f   LIBCMTD:heapinit.obj
 0001:00017ed0       __heap_term                50018ed0 f   LIBCMTD:heapinit.obj
 0001:00017f80       __get_heap_handle          50018f80 f   LIBCMTD:heapinit.obj
 0001:00017f90       __get_sbh_threshold        50018f90 f   LIBCMTD:sbheap.obj
 0001:00017fb0       __set_sbh_threshold        50018fb0 f   LIBCMTD:sbheap.obj
 0001:00018020       ___sbh_heap_init           50019020 f   LIBCMTD:sbheap.obj
 0001:00018090       ___sbh_find_block          50019090 f   LIBCMTD:sbheap.obj
 0001:000180f0       ___sbh_verify_block        500190f0 f   LIBCMTD:sbheap.obj
 0001:00018150       ___sbh_free_block          50019150 f   LIBCMTD:sbheap.obj
 0001:00018710       ___sbh_alloc_block         50019710 f   LIBCMTD:sbheap.obj
 0001:00018c30       ___sbh_alloc_new_region    50019c30 f   LIBCMTD:sbheap.obj
 0001:00018d40       ___sbh_alloc_new_group     50019d40 f   LIBCMTD:sbheap.obj
 0001:00018f30       ___sbh_resize_block        50019f30 f   LIBCMTD:sbheap.obj
 0001:00019500       ___sbh_heapmin             5001a500 f   LIBCMTD:sbheap.obj
 0001:00019630       ___sbh_heap_check          5001a630 f   LIBCMTD:sbheap.obj
 0001:00019b40       ____setlc_active_func      5001ab40 f   LIBCMTD:setlocal.obj
 0001:00019b50       ____unguarded_readlc_active_add_func 5001ab50 f   LIBCMTD:setlocal.obj
 0001:00019b60       ___freetlocinfo            5001ab60 f   LIBCMTD:setlocal.obj
 0001:00019ce0       ___updatetlocinfo          5001ace0 f   LIBCMTD:setlocal.obj
 0001:00019f20       _setlocale                 5001af20 f   LIBCMTD:setlocal.obj
 0001:0001a9d0       __expandlocale             5001b9d0 f   LIBCMTD:setlocal.obj
 0001:0001abb0       ___init_dummy              5001bbb0 f   LIBCMTD:setlocal.obj
 0001:0001abc0       __strcats                  5001bbc0 f   LIBCMTD:setlocal.obj
 0001:0001ac10       ___lc_strtolc              5001bc10 f   LIBCMTD:setlocal.obj
 0001:0001ad80       ___lc_lctostr              5001bd80 f   LIBCMTD:setlocal.obj
 0001:0001adf0       __chvalidator              5001bdf0 f   LIBCMTD:isctype.obj
 0001:0001ae30       __chvalidator_mt           5001be30 f   LIBCMTD:isctype.obj
 0001:0001ae70       __isctype                  5001be70 f   LIBCMTD:isctype.obj
 0001:0001aeb0       ___isctype_mt              5001beb0 f   LIBCMTD:isctype.obj
 0001:0001af70       @__security_check_cookie@4 5001bf70 f   LIBCMTD:secchk.obj
 0001:0001aff0       ___iob_func                5001bff0 f   LIBCMTD:_file.obj
 0001:0001b000       ___initstdio               5001c000 f   LIBCMTD:_file.obj
 0001:0001b130       ___endstdio                5001c130 f   LIBCMTD:_file.obj
 0001:0001b150       __lock_file                5001c150 f   LIBCMTD:_file.obj
 0001:0001b190       __lock_file2               5001c190 f   LIBCMTD:_file.obj
 0001:0001b1c0       __unlock_file              5001c1c0 f   LIBCMTD:_file.obj
 0001:0001b200       __unlock_file2             5001c200 f   LIBCMTD:_file.obj
 0001:0001b230       __close                    5001c230 f   LIBCMTD:close.obj
 0001:0001b320       __close_lk                 5001c320 f   LIBCMTD:close.obj
 0001:0001b3d0       __freebuf                  5001c3d0 f   LIBCMTD:_freebuf.obj
 0001:0001b460       _fflush                    5001c460 f   LIBCMTD:fflush.obj
 0001:0001b4f0       __fflush_lk                5001c4f0 f   LIBCMTD:fflush.obj
 0001:0001b530       __flush                    5001c530 f   LIBCMTD:fflush.obj
 0001:0001b5f0       __flushall                 5001c5f0 f   LIBCMTD:fflush.obj
 0001:0001b790       __stbuf                    5001c790 f   LIBCMTD:_sftbuf.obj
 0001:0001b8e0       __ftbuf                    5001c8e0 f   LIBCMTD:_sftbuf.obj
 0001:0001b970       __openfile                 5001c970 f   LIBCMTD:_open.obj
 0001:0001bd00       __getstream                5001cd00 f   LIBCMTD:stream.obj
 0001:0001bf30       __ioinit                   5001cf30 f   LIBCMTD:ioinit.obj
 0001:0001c2c0       __ioterm                   5001d2c0 f   LIBCMTD:ioinit.obj
 0001:0001c360       __setenvp                  5001d360 f   LIBCMTD:stdenvp.obj
 0001:0001c4e0       __setargv                  5001d4e0 f   LIBCMTD:stdargv.obj
 0001:0001c940       ___crtGetEnvironmentStringsA 5001d940 f   LIBCMTD:a_env.obj
 0001:0001cb60       __RTC_Initialize           5001db60 f   LIBCMTD:initsect.obj
 0001:0001cbe0       __RTC_Terminate            5001dbe0 f   LIBCMTD:initsect.obj
 0001:0001cc60       __FF_MSGBANNER             5001dc60 f   LIBCMTD:crt0msg.obj
 0001:0001ccb0       __NMSG_WRITE               5001dcb0 f   LIBCMTD:crt0msg.obj
 0001:0001cec0       __GET_RTERRMSG             5001dec0 f   LIBCMTD:crt0msg.obj
 0001:0001cf10       ___crtInitCritSecAndSpinCount 5001df10 f   LIBCMTD:initcrit.obj
 0001:0001d030       __itoa                     5001e030 f   LIBCMTD:xtoa.obj
 0001:0001d150       __ltoa                     5001e150 f   LIBCMTD:xtoa.obj
 0001:0001d190       __ultoa                    5001e190 f   LIBCMTD:xtoa.obj
 0001:0001d1b0       __i64toa                   5001e1b0 f   LIBCMTD:xtoa.obj
 0001:0001d300       __ui64toa                  5001e300 f   LIBCMTD:xtoa.obj
 0001:0001d320       __snprintf                 5001e320 f   LIBCMTD:snprintf.obj
 0001:0001d410       _strcpy                    5001e410 f   LIBCMTD:strcat.obj
 0001:0001d420       _strcat                    5001e420 f   LIBCMTD:strcat.obj
 0001:0001d510       __vsnprintf                5001e510 f   LIBCMTD:vsnprint.obj
 0001:0001d5e0       _signal                    5001e5e0 f   LIBCMTD:winsig.obj
 0001:0001d920       _raise                     5001e920 f   LIBCMTD:winsig.obj
 0001:0001dbe0       ___fpecode                 5001ebe0 f   LIBCMTD:winsig.obj
 0001:0001dbf0       ___pxcptinfoptrs           5001ebf0 f   LIBCMTD:winsig.obj
 0001:0001dc00       ___crtMessageBoxA          5001ec00 f   LIBCMTD:crtmbox.obj
 0001:0001dd70       _strncpy                   5001ed70 f   LIBCMTD:strncpy.obj
 0001:0001dea0       ?__CxxUnhandledExceptionFilter@@YGJPAU_EXCEPTION_POINTERS@@@Z 5001eea0 f   LIBCMTD:unhandld.obj
 0001:0001df10       ?__CxxSetUnhandledExceptionFilter@@YAHXZ 5001ef10 f   LIBCMTD:unhandld.obj
 0001:0001df30       ?__CxxRestoreUnhandledExceptionFilter@@YAXXZ 5001ef30 f   LIBCMTD:unhandld.obj
 0001:0001df50       ?_ValidateRead@@YAHPBXI@Z  5001ef50 f   LIBCMTD:validate.obj
 0001:0001df80       ?_ValidateWrite@@YAHPAXI@Z 5001ef80 f   LIBCMTD:validate.obj
 0001:0001dfb0       ?_ValidateExecute@@YAHP6GHXZ@Z 5001efb0 f   LIBCMTD:validate.obj
 0001:0001dfe0       _strcmp                    5001efe0 f   LIBCMTD:strcmp.obj
 0001:0001e070       _memmove                   5001f070 f   LIBCMTD:memmove.obj
 0001:0001e3b0       ___updatetmbcinfo          5001f3b0 f   LIBCMTD:mbctype.obj
 0001:0001e480       __setmbcp                  5001f480 f   LIBCMTD:mbctype.obj
 0001:0001edc0       __getmbcp                  5001fdc0 f   LIBCMTD:mbctype.obj
 0001:0001ede0       ___initmbctable            5001fde0 f   LIBCMTD:mbctype.obj
 0001:0001ee10       _abort                     5001fe10 f   LIBCMTD:abort.obj
 0001:0001ee30       __onexit                   5001fe30 f   LIBCMTD:onexit.obj
 0001:0001ef90       _atexit                    5001ff90 f   LIBCMTD:onexit.obj
 0001:0001efb0       ___onexitinit              5001ffb0 f   LIBCMTD:onexit.obj
 0001:0001f000       __lseek                    50020000 f   LIBCMTD:lseek.obj
 0001:0001f110       __lseek_lk                 50020110 f   LIBCMTD:lseek.obj
 0001:0001f1d0       __write                    500201d0 f   LIBCMTD:write.obj
 0001:0001f2e0       __write_lk                 500202e0 f   LIBCMTD:write.obj
 0001:0001f5d0       __getbuf                   500205d0 f   LIBCMTD:_getbuf.obj
 0001:0001f690       __isatty                   50020690 f   LIBCMTD:isatty.obj
 0001:0001f6d0       _wctomb                    500206d0 f   LIBCMTD:wctomb.obj
 0001:0001f710       ___wctomb_mt               50020710 f   LIBCMTD:wctomb.obj
 0001:0001f7b0       ___pwctype_func            500207b0 f   LIBCMTD:ctype.obj
 0001:0001f7c0       ___pctype_func             500207c0 f   LIBCMTD:ctype.obj
 0001:0001f7d0       __aulldiv                  500207d0 f   LIBCMTD:ulldiv.obj
 0001:0001f840       __aullrem                  50020840 f   LIBCMTD:ullrem.obj
 0001:0001f8c0       _mbtowc                    500208c0 f   LIBCMTD:mbtowc.obj
 0001:0001f900       ___mbtowc_mt               50020900 f   LIBCMTD:mbtowc.obj
 0001:0001fa50       _fputwc                    50020a50 f   LIBCMTD:fputwc.obj
 0001:0001fb00       __putwc_lk                 50020b00 f   LIBCMTD:fputwc.obj
 0001:0001fc90       _putwc                     50020c90 f   LIBCMTD:fputwc.obj
 0001:0001fcb0       __Getdays                  50020cb0 f   LIBCMTD:strftime.obj
 0001:0001fde0       __Getmonths                50020de0 f   LIBCMTD:strftime.obj
 0001:0001ff10       __Gettnames                50020f10 f   LIBCMTD:strftime.obj
 0001:000202a0       _strftime                  500212a0 f   LIBCMTD:strftime.obj
 0001:000202c0       __Strftime                 500212c0 f   LIBCMTD:strftime.obj
 0001:00020310       __Strftime_mt              50021310 f   LIBCMTD:strftime.obj
 0001:00021530       _localeconv                50022530 f   LIBCMTD:lconv.obj
 0001:00021540       ___init_time               50022540 f   LIBCMTD:inittime.obj
 0001:00021b50       ___free_lc_time            50022b50 f   LIBCMTD:inittime.obj
 0001:00021e60       ___init_numeric            50022e60 f   LIBCMTD:initnum.obj
 0001:000221a0       ___free_lconv_num          500231a0 f   LIBCMTD:initnum.obj
 0001:00022240       ___init_monetary           50023240 f   LIBCMTD:initmon.obj
 0001:00022640       ___free_lconv_mon          50023640 f   LIBCMTD:initmon.obj
 0001:000227a0       ___init_ctype              500237a0 f   LIBCMTD:initctyp.obj
 0001:00022a60       ____mb_cur_max_func        50023a60 f   LIBCMTD:initctyp.obj
 0001:00022a70       ____lc_codepage_func       50023a70 f   LIBCMTD:initctyp.obj
 0001:00022aa0       ____lc_collate_cp_func     50023aa0 f   LIBCMTD:initctyp.obj
 0001:00022ad0       ____lc_handle_func         50023ad0 f   LIBCMTD:initctyp.obj
 0001:00022b00       ___init_collate            50023b00 f   LIBCMTD:initcoll.obj
 0001:00022b10       _strcspn                   50023b10 f   LIBCMTD:strcspn.obj
 0001:00022b60       _strncmp                   50023b60 f   LIBCMTD:strncmp.obj
 0001:00022ba0       _strpbrk                   50023ba0 f   LIBCMTD:strpbrk.obj
 0001:00022be0       ___crtGetStringTypeA       50023be0 f   LIBCMTD:a_str.obj
 0001:00022e80       ___get_qualified_locale    50023e80 f   LIBCMTD:getqloc.obj
 0001:00023cb0       ___security_init_cookie    50024cb0 f   LIBCMTD:seccinit.obj
 0001:00023d50       ___security_error_handler  50024d50 f   LIBCMTD:secfail.obj
 0001:00023f80       __set_security_error_handler 50024f80 f   LIBCMTD:secfail.obj
 0001:00023fa0       ___buffer_overrun          50024fa0 f   LIBCMTD:secfail.obj
 0001:00023fc0       ___set_buffer_overrun_handler 50024fc0 f   LIBCMTD:secfail.obj
 0001:00023fe0       __fcloseall                50024fe0 f   LIBCMTD:closeall.obj
 0001:00024100       __alloc_osfhnd             50025100 f   LIBCMTD:osfinfo.obj
 0001:00024380       __set_osfhnd               50025380 f   LIBCMTD:osfinfo.obj
 0001:00024440       __free_osfhnd              50025440 f   LIBCMTD:osfinfo.obj
 0001:00024520       __get_osfhandle            50025520 f   LIBCMTD:osfinfo.obj
 0001:00024590       __open_osfhandle           50025590 f   LIBCMTD:osfinfo.obj
 0001:000246e0       __lock_fhandle             500256e0 f   LIBCMTD:osfinfo.obj
 0001:000247d0       __unlock_fhandle           500257d0 f   LIBCMTD:osfinfo.obj
 0001:00024800       __commit                   50025800 f   LIBCMTD:commit.obj
 0001:00024910       __open                     50025910 f   LIBCMTD:open.obj
 0001:000249c0       __sopen                    500259c0 f   LIBCMTD:open.obj
 0001:00024f70       ___crtLCMapStringA         50025f70 f   LIBCMTD:a_map.obj
 0001:00025530       __lseeki64                 50026530 f   LIBCMTD:lseeki64.obj
 0001:00025650       __lseeki64_lk              50026650 f   LIBCMTD:lseeki64.obj
 0001:00025720       __fptrap                   50026720 f   LIBCMTD:crt0fp.obj
 0001:00025730       __flswbuf                  50026730 f   LIBCMTD:_flswbuf.obj
 0001:000259a0       ___tzset                   500269a0 f   LIBCMTD:tzset.obj
 0001:00025a30       __tzset                    50026a30 f   LIBCMTD:tzset.obj
 0001:00025ec0       __isindst                  50026ec0 f   LIBCMTD:tzset.obj
 0001:000264a0       ___ascii_stricmp           500274a0 f   LIBCMTD:_stricmp.obj
 0001:000264f0       __resetstkoflw             500274f0 f   LIBCMTD:resetstk.obj
 0001:00026640       ___getlocaleinfo           50027640 f   LIBCMTD:inithelp.obj
 0001:000268a0       ___ansicp                  500278a0 f   LIBCMTD:convrtcp.obj
 0001:00026900       ___convertcp               50027900 f   LIBCMTD:convrtcp.obj
 0001:00026ba0       __stricmp                  50027ba0 f   LIBCMTD:stricmp.obj
 0001:00026c50       __strnicmp                 50027c50 f   LIBCMTD:strnicmp.obj
 0001:00026d10       _atol                      50027d10 f   LIBCMTD:atox.obj
 0001:00026e20       _atoi                      50027e20 f   LIBCMTD:atox.obj
 0001:00026e40       __atoi64                   50027e40 f   LIBCMTD:atox.obj
 0001:00026f80       __chsize                   50027f80 f   LIBCMTD:chsize.obj
 0001:00027070       __chsize_lk                50028070 f   LIBCMTD:chsize.obj
 0001:00027250       __read                     50028250 f   LIBCMTD:read.obj
 0001:00027360       __read_lk                  50028360 f   LIBCMTD:read.obj
 0001:000277a0       _getenv                    500287a0 f   LIBCMTD:getenv.obj
 0001:00027810       __getenv_lk                50028810 f   LIBCMTD:getenv.obj
 0001:000278e0       _isalpha                   500288e0 f   LIBCMTD:_ctype.obj
 0001:00027950       _isupper                   50028950 f   LIBCMTD:_ctype.obj
 0001:000279b0       _islower                   500289b0 f   LIBCMTD:_ctype.obj
 0001:00027a10       _isdigit                   50028a10 f   LIBCMTD:_ctype.obj
 0001:00027a70       _isxdigit                  50028a70 f   LIBCMTD:_ctype.obj
 0001:00027ae0       _isspace                   50028ae0 f   LIBCMTD:_ctype.obj
 0001:00027b40       _ispunct                   50028b40 f   LIBCMTD:_ctype.obj
 0001:00027ba0       _isalnum                   50028ba0 f   LIBCMTD:_ctype.obj
 0001:00027c10       _isprint                   50028c10 f   LIBCMTD:_ctype.obj
 0001:00027c80       _isgraph                   50028c80 f   LIBCMTD:_ctype.obj
 0001:00027cf0       _iscntrl                   50028cf0 f   LIBCMTD:_ctype.obj
 0001:00027d50       ___isascii                 50028d50 f   LIBCMTD:_ctype.obj
 0001:00027d60       ___toascii                 50028d60 f   LIBCMTD:_ctype.obj
 0001:00027d70       ___iscsymf                 50028d70 f   LIBCMTD:_ctype.obj
 0001:00027db0       ___iscsym                  50028db0 f   LIBCMTD:_ctype.obj
 0001:00027df0       ___crtGetLocaleInfoW       50028df0 f   LIBCMTD:w_loc.obj
 0001:00027fd0       ___crtGetLocaleInfoA       50028fd0 f   LIBCMTD:a_loc.obj
 0001:000281c0       __tolower                  500291c0 f   LIBCMTD:tolower.obj
 0001:000281d0       _tolower                   500291d0 f   LIBCMTD:tolower.obj
 0001:00028210       ___tolower_mt              50029210 f   LIBCMTD:tolower.obj
 0001:00028350       ___ascii_strnicmp          50029350 f   LIBCMTD:_strnicm.obj
 0001:000283c0       __allmul                   500293c0 f   LIBCMTD:llmul.obj
 0001:00028400       __setmode                  50029400 f   LIBCMTD:setmode.obj
 0001:000284f0       __setmode_lk               500294f0 f   LIBCMTD:setmode.obj
 0001:000285d0       __mbsnbicoll               500295d0 f   LIBCMTD:mbsnbico.obj
 0001:00028640       ___wtomb_environ           50029640 f   LIBCMTD:wtombenv.obj
 0001:00028730       ___crtCompareStringA       50029730 f   LIBCMTD:a_cmp.obj
 0001:00028cf0       ___crtsetenv               50029cf0 f   LIBCMTD:setenv.obj
 0001:000291e0       __mbschr                   5002a1e0 f   LIBCMTD:mbschr.obj
 0001:000292c0       _strchr                    5002a2c0 f   LIBCMTD:strchr.obj
 0001:000292c6       ___from_strstr_to_strchr   5002a2c6     LIBCMTD:strchr.obj
 0001:0002937e       _SymCleanup@4              5002a37e f   imagehlp:imagehlp.dll
 0001:00029384       _SymGetLineFromAddr@16     5002a384 f   imagehlp:imagehlp.dll
 0001:0002938a       _SymGetModuleInfo@12       5002a38a f   imagehlp:imagehlp.dll
 0001:00029390       _SymGetSymFromAddr@16      5002a390 f   imagehlp:imagehlp.dll
 0001:00029396       _StackWalk@36              5002a396 f   imagehlp:imagehlp.dll
 0001:0002939c       _SymFunctionTableAccess@8  5002a39c f   imagehlp:imagehlp.dll
 0001:000293a2       _SymGetModuleBase@8        5002a3a2 f   imagehlp:imagehlp.dll
 0001:000293a8       _SymInitialize@12          5002a3a8 f   imagehlp:imagehlp.dll
 0001:000293ae       _SymSetOptions@4           5002a3ae f   imagehlp:imagehlp.dll
 0001:000293b4       _RtlUnwind@16              5002a3b4 f   kernel32:KERNEL32.dll
 0001:000293ba       _DebugBreak@0              5002a3ba f   kernel32:KERNEL32.dll
 0001:000293c0       _RaiseException@16         5002a3c0 f   kernel32:KERNEL32.dll
 0001:000293c6       _GetVersionExA@4           5002a3c6 f   kernel32:KERNEL32.dll
 0001:000293cc       _GetProcAddress@8          5002a3cc f   kernel32:KERNEL32.dll
 0001:000293d2       _LoadLibraryA@4            5002a3d2 f   kernel32:KERNEL32.dll
 0001:000293d8       _CreateThread@24           5002a3d8 f   kernel32:KERNEL32.dll
 0001:000293de       _ExitThread@4              5002a3de f   kernel32:KERNEL32.dll
 0001:000293e4       _IsBadWritePtr@8           5002a3e4 f   kernel32:KERNEL32.dll
 0001:000293ea       _IsBadReadPtr@8            5002a3ea f   kernel32:KERNEL32.dll
 0001:000293f0       _HeapValidate@12           5002a3f0 f   kernel32:KERNEL32.dll
 0001:000293f6       _GetLocalTime@4            5002a3f6 f   kernel32:KERNEL32.dll
 0001:000293fc       _GetCommandLineA@0         5002a3fc f   kernel32:KERNEL32.dll
 0001:00029402       _FatalAppExitA@8           5002a402 f   kernel32:KERNEL32.dll
 0001:00029408       _GetStdHandle@4            5002a408 f   kernel32:KERNEL32.dll
 0001:0002940e       _InterlockedDecrement@4    5002a40e f   kernel32:KERNEL32.dll
 0001:00029414       _OutputDebugStringA@4      5002a414 f   kernel32:KERNEL32.dll
 0001:0002941a       _InterlockedIncrement@4    5002a41a f   kernel32:KERNEL32.dll
 0001:00029420       _TlsAlloc@0                5002a420 f   kernel32:KERNEL32.dll
 0001:00029426       _TlsFree@4                 5002a426 f   kernel32:KERNEL32.dll
 0001:0002942c       _TlsSetValue@8             5002a42c f   kernel32:KERNEL32.dll
 0001:00029432       _TlsGetValue@4             5002a432 f   kernel32:KERNEL32.dll
 0001:00029438       _GetModuleHandleA@4        5002a438 f   kernel32:KERNEL32.dll
 0001:0002943e       _SetLastError@4            5002a43e f   kernel32:KERNEL32.dll
 0001:00029444       _VirtualQuery@12           5002a444 f   kernel32:KERNEL32.dll
 0001:0002944a       _HeapFree@12               5002a44a f   kernel32:KERNEL32.dll
 0001:00029450       _HeapAlloc@12              5002a450 f   kernel32:KERNEL32.dll
 0001:00029456       _GetProcessHeap@0          5002a456 f   kernel32:KERNEL32.dll
 0001:0002945c       _FreeLibrary@4             5002a45c f   kernel32:KERNEL32.dll
 0001:00029462       _TerminateProcess@8        5002a462 f   kernel32:KERNEL32.dll
 0001:00029468       _ExitProcess@4             5002a468 f   kernel32:KERNEL32.dll
 0001:0002946e       _UnhandledExceptionFilter@4 5002a46e f   kernel32:KERNEL32.dll
 0001:00029474       _HeapReAlloc@16            5002a474 f   kernel32:KERNEL32.dll
 0001:0002947a       _HeapDestroy@4             5002a47a f   kernel32:KERNEL32.dll
 0001:00029480       _HeapCreate@12             5002a480 f   kernel32:KERNEL32.dll
 0001:00029486       _VirtualFree@12            5002a486 f   kernel32:KERNEL32.dll
 0001:0002948c       _VirtualAlloc@16           5002a48c f   kernel32:KERNEL32.dll
 0001:00029492       _SetHandleCount@4          5002a492 f   kernel32:KERNEL32.dll
 0001:00029498       _GetFileType@4             5002a498 f   kernel32:KERNEL32.dll
 0001:0002949e       _GetStartupInfoA@4         5002a49e f   kernel32:KERNEL32.dll
 0001:000294a4       _FreeEnvironmentStringsA@4 5002a4a4 f   kernel32:KERNEL32.dll
 0001:000294aa       _GetEnvironmentStrings@0   5002a4aa f   kernel32:KERNEL32.dll
 0001:000294b0       _FreeEnvironmentStringsW@4 5002a4b0 f   kernel32:KERNEL32.dll
 0001:000294b6       _GetEnvironmentStringsW@0  5002a4b6 f   kernel32:KERNEL32.dll
 0001:000294bc       _SetConsoleCtrlHandler@8   5002a4bc f   kernel32:KERNEL32.dll
 0001:000294c2       _SetUnhandledExceptionFilter@4 5002a4c2 f   kernel32:KERNEL32.dll
 0001:000294c8       _IsBadCodePtr@4            5002a4c8 f   kernel32:KERNEL32.dll
 0001:000294ce       _GetACP@0                  5002a4ce f   kernel32:KERNEL32.dll
 0001:000294d4       _GetOEMCP@0                5002a4d4 f   kernel32:KERNEL32.dll
 0001:000294da       _GetCPInfo@8               5002a4da f   kernel32:KERNEL32.dll
 0001:000294e0       _SetFilePointer@16         5002a4e0 f   kernel32:KERNEL32.dll
 0001:000294e6       _GetTimeFormatA@24         5002a4e6 f   kernel32:KERNEL32.dll
 0001:000294ec       _GetDateFormatA@24         5002a4ec f   kernel32:KERNEL32.dll
 0001:000294f2       _GetStringTypeA@20         5002a4f2 f   kernel32:KERNEL32.dll
 0001:000294f8       _GetStringTypeW@16         5002a4f8 f   kernel32:KERNEL32.dll
 0001:000294fe       _IsValidLocale@8           5002a4fe f   kernel32:KERNEL32.dll
 0001:00029504       _IsValidCodePage@4         5002a504 f   kernel32:KERNEL32.dll
 0001:0002950a       _GetLocaleInfoA@16         5002a50a f   kernel32:KERNEL32.dll
 0001:00029510       _EnumSystemLocalesA@8      5002a510 f   kernel32:KERNEL32.dll
 0001:00029516       _QueryPerformanceCounter@4 5002a516 f   kernel32:KERNEL32.dll
 0001:0002951c       _GetSystemTimeAsFileTime@4 5002a51c f   kernel32:KERNEL32.dll
 0001:00029522       _SetStdHandle@8            5002a522 f   kernel32:KERNEL32.dll
 0001:00029528       _FlushFileBuffers@4        5002a528 f   kernel32:KERNEL32.dll
 0001:0002952e       _CreateFileA@28            5002a52e f   kernel32:KERNEL32.dll
 0001:00029534       _LCMapStringA@24           5002a534 f   kernel32:KERNEL32.dll
 0001:0002953a       _LCMapStringW@24           5002a53a f   kernel32:KERNEL32.dll
 0001:00029540       _GetTimeZoneInformation@4  5002a540 f   kernel32:KERNEL32.dll
 0001:00029546       _VirtualProtect@16         5002a546 f   kernel32:KERNEL32.dll
 0001:0002954c       _GetSystemInfo@4           5002a54c f   kernel32:KERNEL32.dll
 0001:00029552       _SetEndOfFile@4            5002a552 f   kernel32:KERNEL32.dll
 0001:00029558       _GetLocaleInfoW@16         5002a558 f   kernel32:KERNEL32.dll
 0001:0002955e       _CompareStringA@24         5002a55e f   kernel32:KERNEL32.dll
 0001:00029564       _CompareStringW@24         5002a564 f   kernel32:KERNEL32.dll
 0001:0002956a       _SetEnvironmentVariableA@8 5002a56a f   kernel32:KERNEL32.dll
 0002:00000000       __imp__RegSetValueExA@24   5002b000     advapi32:ADVAPI32.dll
 0002:00000004       __imp__RegCloseKey@4       5002b004     advapi32:ADVAPI32.dll
 0002:00000008       __imp__RegDeleteKeyA@8     5002b008     advapi32:ADVAPI32.dll
 0002:0000000c       __imp__RegCreateKeyExA@36  5002b00c     advapi32:ADVAPI32.dll
 0002:00000010       \177ADVAPI32_NULL_THUNK_DATA 5002b010     advapi32:ADVAPI32.dll
 0002:00000014       __imp__WriteFile@20        5002b014     kernel32:KERNEL32.dll
 0002:00000018       __imp__CreateFileW@28      5002b018     kernel32:KERNEL32.dll
 0002:0000001c       __imp__ReadFile@20         5002b01c     kernel32:KERNEL32.dll
 0002:00000020       __imp__GetFileSize@8       5002b020     kernel32:KERNEL32.dll
 0002:00000024       __imp__WideCharToMultiByte@32 5002b024     kernel32:KERNEL32.dll
 0002:00000028       __imp__GetUserDefaultLCID@0 5002b028     kernel32:KERNEL32.dll
 0002:0000002c       __imp__WaitForSingleObject@8 5002b02c     kernel32:KERNEL32.dll
 0002:00000030       __imp__SetEvent@4          5002b030     kernel32:KERNEL32.dll
 0002:00000034       __imp__MultiByteToWideChar@24 5002b034     kernel32:KERNEL32.dll
 0002:00000038       __imp__QueueUserAPC@12     5002b038     kernel32:KERNEL32.dll
 0002:0000003c       __imp__GetTickCount@0      5002b03c     kernel32:KERNEL32.dll
 0002:00000040       __imp__WaitForSingleObjectEx@12 5002b040     kernel32:KERNEL32.dll
 0002:00000044       __imp__DeleteCriticalSection@4 5002b044     kernel32:KERNEL32.dll
 0002:00000048       __imp__InitializeCriticalSection@4 5002b048     kernel32:KERNEL32.dll
 0002:0000004c       __imp__lstrcatA@8          5002b04c     kernel32:KERNEL32.dll
 0002:00000050       __imp__lstrcpyA@8          5002b050     kernel32:KERNEL32.dll
 0002:00000054       __imp__CloseHandle@4       5002b054     kernel32:KERNEL32.dll
 0002:00000058       __imp__lstrlenA@4          5002b058     kernel32:KERNEL32.dll
 0002:0000005c       __imp__GetLastError@0      5002b05c     kernel32:KERNEL32.dll
 0002:00000060       __imp__GetCurrentThread@0  5002b060     kernel32:KERNEL32.dll
 0002:00000064       __imp__GetCurrentThreadId@0 5002b064     kernel32:KERNEL32.dll
 0002:00000068       __imp__GetCurrentProcessId@0 5002b068     kernel32:KERNEL32.dll
 0002:0000006c       __imp__LeaveCriticalSection@4 5002b06c     kernel32:KERNEL32.dll
 0002:00000070       __imp__GetCurrentProcess@0 5002b070     kernel32:KERNEL32.dll
 0002:00000074       __imp__EnterCriticalSection@4 5002b074     kernel32:KERNEL32.dll
 0002:00000078       __imp__InterlockedCompareExchange@12 5002b078     kernel32:KERNEL32.dll
 0002:0000007c       __imp__InterlockedExchange@8 5002b07c     kernel32:KERNEL32.dll
 0002:00000080       __imp__CompareStringA@24   5002b080     kernel32:KERNEL32.dll
 0002:00000084       __imp__GetLocaleInfoW@16   5002b084     kernel32:KERNEL32.dll
 0002:00000088       __imp__SetEndOfFile@4      5002b088     kernel32:KERNEL32.dll
 0002:0000008c       __imp__GetSystemInfo@4     5002b08c     kernel32:KERNEL32.dll
 0002:00000090       __imp__VirtualProtect@16   5002b090     kernel32:KERNEL32.dll
 0002:00000094       __imp__CreateEventA@16     5002b094     kernel32:KERNEL32.dll
 0002:00000098       __imp__OutputDebugStringW@4 5002b098     kernel32:KERNEL32.dll
 0002:0000009c       __imp__CompareStringW@24   5002b09c     kernel32:KERNEL32.dll
 0002:000000a0       __imp__GetModuleFileNameA@12 5002b0a0     kernel32:KERNEL32.dll
 0002:000000a4       __imp__DebugBreak@0        5002b0a4     kernel32:KERNEL32.dll
 0002:000000a8       __imp__GetTimeZoneInformation@4 5002b0a8     kernel32:KERNEL32.dll
 0002:000000ac       __imp__LCMapStringW@24     5002b0ac     kernel32:KERNEL32.dll
 0002:000000b0       __imp__LCMapStringA@24     5002b0b0     kernel32:KERNEL32.dll
 0002:000000b4       __imp__CreateFileA@28      5002b0b4     kernel32:KERNEL32.dll
 0002:000000b8       __imp__FlushFileBuffers@4  5002b0b8     kernel32:KERNEL32.dll
 0002:000000bc       __imp__SetStdHandle@8      5002b0bc     kernel32:KERNEL32.dll
 0002:000000c0       __imp__GetSystemTimeAsFileTime@4 5002b0c0     kernel32:KERNEL32.dll
 0002:000000c4       __imp__QueryPerformanceCounter@4 5002b0c4     kernel32:KERNEL32.dll
 0002:000000c8       __imp__EnumSystemLocalesA@8 5002b0c8     kernel32:KERNEL32.dll
 0002:000000cc       __imp__GetLocaleInfoA@16   5002b0cc     kernel32:KERNEL32.dll
 0002:000000d0       __imp__IsValidCodePage@4   5002b0d0     kernel32:KERNEL32.dll
 0002:000000d4       __imp__IsValidLocale@8     5002b0d4     kernel32:KERNEL32.dll
 0002:000000d8       __imp__GetStringTypeW@16   5002b0d8     kernel32:KERNEL32.dll
 0002:000000dc       __imp__GetStringTypeA@20   5002b0dc     kernel32:KERNEL32.dll
 0002:000000e0       __imp__GetDateFormatA@24   5002b0e0     kernel32:KERNEL32.dll
 0002:000000e4       __imp__GetTimeFormatA@24   5002b0e4     kernel32:KERNEL32.dll
 0002:000000e8       __imp__SetFilePointer@16   5002b0e8     kernel32:KERNEL32.dll
 0002:000000ec       __imp__GetCPInfo@8         5002b0ec     kernel32:KERNEL32.dll
 0002:000000f0       __imp__GetOEMCP@0          5002b0f0     kernel32:KERNEL32.dll
 0002:000000f4       __imp__GetACP@0            5002b0f4     kernel32:KERNEL32.dll
 0002:000000f8       __imp__IsBadCodePtr@4      5002b0f8     kernel32:KERNEL32.dll
 0002:000000fc       __imp__SetUnhandledExceptionFilter@4 5002b0fc     kernel32:KERNEL32.dll
 0002:00000100       __imp__SetConsoleCtrlHandler@8 5002b100     kernel32:KERNEL32.dll
 0002:00000104       __imp__GetEnvironmentStringsW@0 5002b104     kernel32:KERNEL32.dll
 0002:00000108       __imp__FreeEnvironmentStringsW@4 5002b108     kernel32:KERNEL32.dll
 0002:0000010c       __imp__GetEnvironmentStrings@0 5002b10c     kernel32:KERNEL32.dll
 0002:00000110       __imp__FreeEnvironmentStringsA@4 5002b110     kernel32:KERNEL32.dll
 0002:00000114       __imp__GetStartupInfoA@4   5002b114     kernel32:KERNEL32.dll
 0002:00000118       __imp__RtlUnwind@16        5002b118     kernel32:KERNEL32.dll
 0002:0000011c       __imp__SetEnvironmentVariableA@8 5002b11c     kernel32:KERNEL32.dll
 0002:00000120       __imp__RaiseException@16   5002b120     kernel32:KERNEL32.dll
 0002:00000124       __imp__GetVersionExA@4     5002b124     kernel32:KERNEL32.dll
 0002:00000128       __imp__GetProcAddress@8    5002b128     kernel32:KERNEL32.dll
 0002:0000012c       __imp__LoadLibraryA@4      5002b12c     kernel32:KERNEL32.dll
 0002:00000130       __imp__CreateThread@24     5002b130     kernel32:KERNEL32.dll
 0002:00000134       __imp__ExitThread@4        5002b134     kernel32:KERNEL32.dll
 0002:00000138       __imp__IsBadWritePtr@8     5002b138     kernel32:KERNEL32.dll
 0002:0000013c       __imp__IsBadReadPtr@8      5002b13c     kernel32:KERNEL32.dll
 0002:00000140       __imp__HeapValidate@12     5002b140     kernel32:KERNEL32.dll
 0002:00000144       __imp__GetLocalTime@4      5002b144     kernel32:KERNEL32.dll
 0002:00000148       __imp__GetCommandLineA@0   5002b148     kernel32:KERNEL32.dll
 0002:0000014c       __imp__FatalAppExitA@8     5002b14c     kernel32:KERNEL32.dll
 0002:00000150       __imp__GetStdHandle@4      5002b150     kernel32:KERNEL32.dll
 0002:00000154       __imp__InterlockedDecrement@4 5002b154     kernel32:KERNEL32.dll
 0002:00000158       __imp__OutputDebugStringA@4 5002b158     kernel32:KERNEL32.dll
 0002:0000015c       __imp__InterlockedIncrement@4 5002b15c     kernel32:KERNEL32.dll
 0002:00000160       __imp__TlsAlloc@0          5002b160     kernel32:KERNEL32.dll
 0002:00000164       __imp__TlsFree@4           5002b164     kernel32:KERNEL32.dll
 0002:00000168       __imp__TlsSetValue@8       5002b168     kernel32:KERNEL32.dll
 0002:0000016c       __imp__TlsGetValue@4       5002b16c     kernel32:KERNEL32.dll
 0002:00000170       __imp__GetModuleHandleA@4  5002b170     kernel32:KERNEL32.dll
 0002:00000174       __imp__SetLastError@4      5002b174     kernel32:KERNEL32.dll
 0002:00000178       __imp__VirtualQuery@12     5002b178     kernel32:KERNEL32.dll
 0002:0000017c       __imp__HeapFree@12         5002b17c     kernel32:KERNEL32.dll
 0002:00000180       __imp__HeapAlloc@12        5002b180     kernel32:KERNEL32.dll
 0002:00000184       __imp__GetProcessHeap@0    5002b184     kernel32:KERNEL32.dll
 0002:00000188       __imp__FreeLibrary@4       5002b188     kernel32:KERNEL32.dll
 0002:0000018c       __imp__TerminateProcess@8  5002b18c     kernel32:KERNEL32.dll
 0002:00000190       __imp__ExitProcess@4       5002b190     kernel32:KERNEL32.dll
 0002:00000194       __imp__UnhandledExceptionFilter@4 5002b194     kernel32:KERNEL32.dll
 0002:00000198       __imp__HeapReAlloc@16      5002b198     kernel32:KERNEL32.dll
 0002:0000019c       __imp__HeapDestroy@4       5002b19c     kernel32:KERNEL32.dll
 0002:000001a0       __imp__HeapCreate@12       5002b1a0     kernel32:KERNEL32.dll
 0002:000001a4       __imp__VirtualFree@12      5002b1a4     kernel32:KERNEL32.dll
 0002:000001a8       __imp__VirtualAlloc@16     5002b1a8     kernel32:KERNEL32.dll
 0002:000001ac       __imp__SetHandleCount@4    5002b1ac     kernel32:KERNEL32.dll
 0002:000001b0       __imp__GetFileType@4       5002b1b0     kernel32:KERNEL32.dll
 0002:000001b4       \177KERNEL32_NULL_THUNK_DATA 5002b1b4     kernel32:KERNEL32.dll
 0002:000001b8       __imp__GetErrorInfo@8      5002b1b8     oleaut32:OLEAUT32.dll
 0002:000001bc       __imp__VariantInit@4       5002b1bc     oleaut32:OLEAUT32.dll
 0002:000001c0       __imp__SysAllocString@4    5002b1c0     oleaut32:OLEAUT32.dll
 0002:000001c4       __imp__SysFreeString@4     5002b1c4     oleaut32:OLEAUT32.dll
 0002:000001c8       \177OLEAUT32_NULL_THUNK_DATA 5002b1c8     oleaut32:OLEAUT32.dll
 0002:000001cc       __imp__InitializeStaticMemoryPool@16 5002b1cc     SS3DGFunc:SS3DGFunc.dll
 0002:000001d0       __imp__CreateStaticMemoryPool@0 5002b1d0     SS3DGFunc:SS3DGFunc.dll
 0002:000001d4       __imp__ReleaseStaticMemoryPool@4 5002b1d4     SS3DGFunc:SS3DGFunc.dll
 0002:000001d8       __imp__LALAlloc@4          5002b1d8     SS3DGFunc:SS3DGFunc.dll
 0002:000001dc       __imp__LALFree@8           5002b1dc     SS3DGFunc:SS3DGFunc.dll
 0002:000001e0       \177SS3DGFunc_NULL_THUNK_DATA 5002b1e0     SS3DGFunc:SS3DGFunc.dll
 0002:000001e4       __imp__MessageBoxW@16      5002b1e4     user32:USER32.dll
 0002:000001e8       __imp__GetActiveWindow@0   5002b1e8     user32:USER32.dll
 0002:000001ec       __imp__wsprintfA           5002b1ec     user32:USER32.dll
 0002:000001f0       __imp__PostMessageA@16     5002b1f0     user32:USER32.dll
 0002:000001f4       \177USER32_NULL_THUNK_DATA 5002b1f4     user32:USER32.dll
 0002:000001f8       __imp__timeGetTime@0       5002b1f8     winmm:WINMM.dll
 0002:000001fc       \177WINMM_NULL_THUNK_DATA  5002b1fc     winmm:WINMM.dll
 0002:00000200       __imp__SymCleanup@4        5002b200     imagehlp:imagehlp.dll
 0002:00000204       __imp__SymGetLineFromAddr@16 5002b204     imagehlp:imagehlp.dll
 0002:00000208       __imp__SymGetModuleInfo@12 5002b208     imagehlp:imagehlp.dll
 0002:0000020c       __imp__SymSetOptions@4     5002b20c     imagehlp:imagehlp.dll
 0002:00000210       __imp__SymInitialize@12    5002b210     imagehlp:imagehlp.dll
 0002:00000214       __imp__SymGetModuleBase@8  5002b214     imagehlp:imagehlp.dll
 0002:00000218       __imp__SymFunctionTableAccess@8 5002b218     imagehlp:imagehlp.dll
 0002:0000021c       __imp__StackWalk@36        5002b21c     imagehlp:imagehlp.dll
 0002:00000220       __imp__SymGetSymFromAddr@16 5002b220     imagehlp:imagehlp.dll
 0002:00000224       \177imagehlp_NULL_THUNK_DATA 5002b224     imagehlp:imagehlp.dll
 0002:00000228       __imp__CoUninitialize@0    5002b228     ole32:ole32.dll
 0002:0000022c       __imp__StringFromGUID2@12  5002b22c     ole32:ole32.dll
 0002:00000230       __imp__CoTaskMemFree@4     5002b230     ole32:ole32.dll
 0002:00000234       __imp__CoTaskMemRealloc@8  5002b234     ole32:ole32.dll
 0002:00000238       __imp__CoInitialize@4      5002b238     ole32:ole32.dll
 0002:0000023c       __imp__CoCreateInstance@20 5002b23c     ole32:ole32.dll
 0002:00000240       \177ole32_NULL_THUNK_DATA  5002b240     ole32:ole32.dll
 0002:0000026c       _IID_OLEDBTHREAD           5002b26c     Factory.obj
 0002:0000027c       _CLSID_OLEDBTHREAD         5002b27c     Factory.obj
 0002:0000028c       ??_7CFOleDBThread@@6B@     5002b28c     Factory.obj
 0002:000002a0       _DBGUID_DBSQL              5002b2a0     OleDBThread.obj
 0002:000002b0       _DBPROPSET_ROWSET          5002b2b0     OleDBThread.obj
 0002:000002c0       _DBPROPSET_DBINIT          5002b2c0     OleDBThread.obj
 0002:000002d0       _DBPROPSET_DATASOURCE      5002b2d0     OleDBThread.obj
 0002:000002e0       _DBSCHEMA_TABLES           5002b2e0     OleDBThread.obj
 0002:000002f0       _DBSCHEMA_CATALOGS         5002b2f0     OleDBThread.obj
 0002:00000300       _DB_NULLID                 5002b300     OleDBThread.obj
 0002:00000330       ??_C@_1GA@BACHELGD@?$AAI?$AAn?$AAi?$AAt?$AAi?$AAa?$AAl?$AAi?$AAz?$AAe?$AAS?$AAt?$AAa?$AAt?$AAi?$AAc?$AAM?$AAe?$AAm?$AAo@ 5002b330     OleDBThread.obj
 0002:000003b0       ??_C@_1FA@HDBLAHGF@?$AAF?$AAa?$AAi?$AAl?$AAe?$AA?5?$AAt?$AAo?$AA?5?$AAa?$AAl?$AAl?$AAo?$AAc?$AAa?$AAt?$AAe?$AA?5?$AAD?$AAB@ 5002b3b0     OleDBThread.obj
 0002:00000400       ??_C@_1EC@OFFBMEAK@?$AAF?$AAa?$AAi?$AAl?$AAe?$AAd?$AA?5?$AAt?$AAo?$AA?5?$AAa?$AAl?$AAl?$AAo?$AAc?$AAa?$AAt?$AAe?$AA?5?$AAR@ 5002b400     OleDBThread.obj
 0002:00000444       ??_C@_1DI@CLKGLDKF@?$AAR?$AAe?$AAs?$AAu?$AAl?$AAt?$AA?5?$AAM?$AAe?$AAm?$AAo?$AAr?$AAy?$AA?5?$AAP?$AAo?$AAo?$AAl?$AA?5?$AAi@ 5002b444     OleDBThread.obj
 0002:0000047c       ??_C@_1DK@EBHMHCCN@?$AAB?$AAi?$AAn?$AAd?$AAi?$AAn?$AAg?$AA?5?$AAM?$AAe?$AAm?$AAo?$AAr?$AAy?$AA?5?$AAP?$AAo?$AAo?$AAl?$AA?5@ 5002b47c     OleDBThread.obj
 0002:000004b8       ??_C@_1EK@LOPNBDPN@?$AAF?$AAa?$AAi?$AAl?$AAe?$AAd?$AA?5?$AAt?$AAo?$AA?5?$AAa?$AAl?$AAl?$AAo?$AAc?$AAa?$AAt?$AAe?$AA?5?$AAO@ 5002b4b8     OleDBThread.obj
 0002:00000504       ??_C@_1DE@PCMKDCEN@?$AAf?$AAa?$AAi?$AAl?$AAe?$AAd?$AA?5?$AAt?$AAo?$AA?5?$AAa?$AAc?$AAq?$AAu?$AAi?$AAr?$AAe?$AA?5?$AAr?$AAo@ 5002b504     OleDBThread.obj
 0002:00000538       ??_C@_02KPKOKMHB@?$CFS?$AA@ 5002b538     OleDBThread.obj
 0002:0000053c       ??_C@_1M@HFMHJDPF@?$AAT?$AAA?$AAB?$AAL?$AAE?$AA?$AA@ 5002b53c     OleDBThread.obj
 0002:00000548       ??_C@_1DG@FKAGODNB@?$AAs?$AAe?$AAl?$AAe?$AAc?$AAt?$AA?5?$AA?$CF?$AAs?$AA?5?$AAf?$AAr?$AAo?$AAm?$AA?5?$AA?$CF?$AAs?$AA?5?$AAw?$AAh@ 5002b548     OleDBThread.obj
 0002:00000580       ??_C@_1HG@DOHDIFIJ@?$AAH?$AAR?$AAE?$AAS?$AAU?$AAL?$AAT?$AA?3?$AA?5?$AA?$CF?$AAl?$AAx?$AA?0?$AA?5?$AAM?$AAi?$AAn?$AAo?$AAr?$AA?5@ 5002b580     OleDBThread.obj
 0002:000005f8       ??_C@_1IO@GCEDIIPN@?$AAH?$AAR?$AAE?$AAS?$AAU?$AAL?$AAT?$AA?3?$AA?5?$AA?$CF?$AAl?$AAx?$AA?0?$AA?5?$AAM?$AAi?$AAn?$AAo?$AAr?$AA?5@ 5002b5f8     OleDBThread.obj
 0002:00000688       ??_C@_1CK@IAMOAILL@?$AAU?$AAn?$AAi?$AAn?$AAi?$AAt?$AAi?$AAa?$AAl?$AAi?$AAz?$AAe?$AA?5?$AAf?$AAa?$AAi?$AAl?$AAe?$AAd?$AA?4@ 5002b688     OleDBThread.obj
 0002:000006b4       ??_C@_1BC@FFEDKIMM@?$AAW?$AAa?$AAr?$AAn?$AAi?$AAn?$AAg?$AA?$CB?$AA?$AA@ 5002b6b4     OleDBThread.obj
 0002:000006d8       ??_C@_1EG@DBFLFJPA@?$AA?$CK?$AA?$CK?$AA?$CK?$AA?5?$AAQ?$AAu?$AAe?$AAr?$AAy?$AA?5?$AAc?$AAa?$AAn?$AAc?$AAe?$AAl?$AAe?$AAd?$AA?5?$AAb@ 5002b6d8     OleDBThread.obj
 0002:00000720       ??_7COleDBThreadCls@@6B@   5002b720     OleDBThreadCls.obj
 0002:000007c8       ??_7IOleDBThread@@6B@      5002b7c8     OleDBThreadCls.obj
 0002:0000086c       ??_C@_0DE@HPEEJFKA@OLEDBThread?5Error?$CB?5?9?5Parameter?5M@ 5002b86c     OleDBThreadCls.obj
 0002:000008a0       ??_C@_0EL@IOLOECKP@?$FLOLEDB?5Fatal?5Error?$FN?5pBinding?5is?5@ 5002b8a0     OleDBThreadCls.obj
 0002:000008f0       ??_C@_0FI@DKEEGOP@?$FLOLEDB?5Fatal?5Error?$FN?5InputMessage@ 5002b8f0     OleDBThreadCls.obj
 0002:00000948       ??_C@_0FI@CIEKHEAG@?$FLOLEDB?5Fatal?5Error?$FN?5InputMessage@ 5002b948     OleDBThreadCls.obj
 0002:000009a0       ??_C@_0FJ@KDPFKKCJ@?$FLOLEDB?5Fatal?5Error?$FN?5_CrtCheckMem@ 5002b9a0     OleDBThreadCls.obj
 0002:00000a00       ??_C@_0FP@PPCFPJND@?$FLOLEDB?5Fatal?5Error?$FN?5InputMessage@ 5002ba00     OleDBThreadCls.obj
 0002:00000a60       ??_C@_0FF@OGOKPKBP@?$FLOLEDB?5Fatal?5Error?$FN?5Param?5value?5@ 5002ba60     OleDBThreadCls.obj
 0002:00000ab8       ??_C@_0EM@KPFPJGIJ@?$FLOLEDB?5Fatal?5Error?$FN?5InputMessage@ 5002bab8     OleDBThreadCls.obj
 0002:00000b08       ??_C@_0FE@OIFKCINH@?$FLOLEDB?5Fatal?5Error?$FN?5DBInput?5Mess@ 5002bb08     OleDBThreadCls.obj
 0002:00000b60       ??_C@_0EI@NFDEMIKA@?$FLOLEDB?5Fatal?5Error?$FN?5LPDBCMDMSG?5i@ 5002bb60     OleDBThreadCls.obj
 0002:00000ba8       ??_C@_0EL@CLIJNJGI@?$FLOLEDB?5Fatal?5Error?$FN?5Invalid?5Conn@ 5002bba8     OleDBThreadCls.obj
 0002:00000bf8       ??_C@_1FM@DAPOOIAG@?$AA?$FL?$AAO?$AAL?$AAE?$AAD?$AAB?$AA?5?$AAQ?$AAu?$AAe?$AAr?$AAy?$AA?5?$AAE?$AAr?$AAr?$AAo?$AAr?$AA?$FN?$AA?5@ 5002bbf8     OleDBThreadCls.obj
 0002:00000c58       ??_C@_0FL@IGCIHJFL@OLEDBThread?5Error?$CB?5?9?5?5Output?5Mes@ 5002bc58     OleDBThreadCls.obj
 0002:00000cb8       ??_C@_1GO@CLDOIKBM@?$AA?$FL?$AAO?$AAL?$AAE?$AAD?$AAB?$AA?5?$AAQ?$AAu?$AAe?$AAr?$AAy?$AA?5?$AAE?$AAr?$AAr?$AAo?$AAr?$AA?$FN?$AA?5@ 5002bcb8     OleDBThreadCls.obj
 0002:00000d28       ??_C@_0FM@GOHCJKKB@OLEDBThread?5Error?$CB?5?9?5?5Output?5Mes@ 5002bd28     OleDBThreadCls.obj
 0002:00000d88       ??_C@_1LK@LODDLNEP@?$AA?$FL?$AAO?$AAL?$AAE?$AAD?$AAB?$AA?5?$AAQ?$AAu?$AAe?$AAr?$AAy?$AA?5?$AAE?$AAr?$AAr?$AAo?$AAr?$AA?$FN?$AA?5@ 5002bd88     OleDBThreadCls.obj
 0002:00000e48       ??_C@_0GD@FDLPPNBD@OLEDB?5Fatal?5Error?$CB?5?9?5Output?5Mess@ 5002be48     OleDBThreadCls.obj
 0002:00000eb0       ??_C@_0FM@MBBMNJGK@OLEDB?5Fatal?5Error?$CB?5?9?5Output?5Mess@ 5002beb0     OleDBThreadCls.obj
 0002:00000f10       ??_C@_0GL@BIGBLGOM@?$FLDB?5Report?5?9?5Connection?3?$CFu?0?5Quer@ 5002bf10     OleDBThreadCls.obj
 0002:00000f7c       ??_C@_0DG@IACKHLEH@?$CD?$CD?$CD?5OLEDB?5Warning?$CB?5?3?5InputMsg?5Po@ 5002bf7c     OleDBThreadCls.obj
 0002:00000fb4       ??_C@_0P@HGHLJHOB@InprocServer32?$AA@ 5002bfb4     OleDBThreadNew.obj
 0002:00000fc4       ??_C@_06FBGBHGJE@ProgID?$AA@ 5002bfc4     OleDBThreadNew.obj
 0002:00000fcc       ??_C@_0BG@CKEAOMAG@OleDBThread?5Component?$AA@ 5002bfcc     OleDBThreadNew.obj
 0002:00000fe4       ??_C@_05GIBEAPNE@CLSID?$AA@ 5002bfe4     OleDBThreadNew.obj
 0002:00000fec       ??_C@_0BK@FMHHPJLF@OleDBThread?4OleDBThread?41?$AA@ 5002bfec     OleDBThreadNew.obj
 0002:00001008       ??_C@_0CB@PLJABEMP@OLEDB?5COM?5Model?5by?5Byung?9Soo?5Koo@ 5002c008     OleDBThreadNew.obj
 0002:0000102c       ??_C@_06JHNIBAJK@CLSID?2?$AA@ 5002c02c     OleDBThreadNew.obj
 0002:00001034       ??_C@_05BMGBEOOC@?$CFs?2?$CFs?$AA@ 5002c034     OleDBThreadNew.obj
 0002:0000103c       ??_C@_0BM@INPACNBG@COleDBThread?4COleDBThread?41?$AA@ 5002c03c     OleDBThreadNew.obj
 0002:00001058       ??_C@_0CC@EBAJEGAM@COleDBThread?4COleDBThread?41?2CLSI@ 5002c058     OleDBThreadNew.obj
 0002:0000107c       ??_C@_01KICIPPFI@?2?$AA@   5002c07c     OleDBThreadNew.obj
 0002:00001080       ??_7CSeqStream@@6B@        5002c080     SeqStream.obj
 0002:000010ac       _DBGUID_SQL                5002c0ac     StdAfx.obj
 0002:000010bc       _DBGUID_DEFAULT            5002c0bc     StdAfx.obj
 0002:000010cc       _DBCOLUMN_DERIVEDCOLUMNNAME 5002c0cc     StdAfx.obj
 0002:000010e4       _DBGUID_HISTOGRAM_ROWSET   5002c0e4     StdAfx.obj
 0002:000010f4       _DBSCHEMA_CHECK_CONSTRAINTS_BY_TABLE 5002c0f4     StdAfx.obj
 0002:00001104       _DBSCHEMA_TABLE_STATISTICS 5002c104     StdAfx.obj
 0002:00001114       _DBPROPSET_STREAMALL       5002c114     StdAfx.obj
 0002:00001124       _DBPROPSET_STREAM          5002c124     StdAfx.obj
 0002:00001134       _DBPROPSET_VIEWALL         5002c134     StdAfx.obj
 0002:00001144       _DBPROPSET_VIEW            5002c144     StdAfx.obj
 0002:00001154       _DBPROPSET_PROPERTIESINERROR 5002c154     StdAfx.obj
 0002:00001164       _DBPROPSET_DBINITALL       5002c164     StdAfx.obj
 0002:00001174       _DBPROPSET_SESSIONALL      5002c174     StdAfx.obj
 0002:00001184       _DBPROPSET_SESSION         5002c184     StdAfx.obj
 0002:00001194       _DBPROPSET_ROWSETALL       5002c194     StdAfx.obj
 0002:000011a4       _DBPROPSET_DATASOURCEINFOALL 5002c1a4     StdAfx.obj
 0002:000011b4       _DBPROPSET_DATASOURCEALL   5002c1b4     StdAfx.obj
 0002:000011c4       _DBPROPSET_TABLE           5002c1c4     StdAfx.obj
 0002:000011d4       _DBPROPSET_INDEX           5002c1d4     StdAfx.obj
 0002:000011e4       _DBPROPSET_DATASOURCEINFO  5002c1e4     StdAfx.obj
 0002:000011f4       _DBPROPSET_COLUMN          5002c1f4     StdAfx.obj
 0002:00001204       _PSGUID_QUERY              5002c204     StdAfx.obj
 0002:00001214       _DBCOL_SPECIALCOL          5002c214     StdAfx.obj
 0002:00001224       _DBCOL_SELFCOLUMNS         5002c224     StdAfx.obj
 0002:00001234       _DBSCHEMA_PROCEDURE_COLUMNS 5002c234     StdAfx.obj
 0002:00001244       _DBSCHEMA_PRIMARY_KEYS     5002c244     StdAfx.obj
 0002:00001254       _DBSCHEMA_FOREIGN_KEYS     5002c254     StdAfx.obj
 0002:00001264       _DBSCHEMA_PROCEDURE_PARAMETERS 5002c264     StdAfx.obj
 0002:00001274       _DBSCHEMA_VIEW_TABLE_USAGE 5002c274     StdAfx.obj
 0002:00001284       _DBSCHEMA_VIEW_COLUMN_USAGE 5002c284     StdAfx.obj
 0002:00001294       _DBSCHEMA_VIEWS            5002c294     StdAfx.obj
 0002:000012a4       _DBSCHEMA_PROVIDER_TYPES   5002c2a4     StdAfx.obj
 0002:000012b4       _DBSCHEMA_TRANSLATIONS     5002c2b4     StdAfx.obj
 0002:000012c4       _DBSCHEMA_STATISTICS       5002c2c4     StdAfx.obj
 0002:000012d4       _DBSCHEMA_SQL_LANGUAGES    5002c2d4     StdAfx.obj
 0002:000012e4       _DBSCHEMA_SCHEMATA         5002c2e4     StdAfx.obj
 0002:000012f4       _DBSCHEMA_PROCEDURES       5002c2f4     StdAfx.obj
 0002:00001304       _DBSCHEMA_USAGE_PRIVILEGES 5002c304     StdAfx.obj
 0002:00001314       _DBSCHEMA_TABLE_PRIVILEGES 5002c314     StdAfx.obj
 0002:00001324       _DBSCHEMA_COLUMN_PRIVILEGES 5002c324     StdAfx.obj
 0002:00001334       _DBSCHEMA_INDEXES          5002c334     StdAfx.obj
 0002:00001344       _DBSCHEMA_COLUMN_DOMAIN_USAGE 5002c344     StdAfx.obj
 0002:00001354       _DBSCHEMA_TABLE_CONSTRAINTS 5002c354     StdAfx.obj
 0002:00001364       _DBSCHEMA_REFERENTIAL_CONSTRAINTS 5002c364     StdAfx.obj
 0002:00001374       _DBSCHEMA_KEY_COLUMN_USAGE 5002c374     StdAfx.obj
 0002:00001384       _DBSCHEMA_CONSTRAINT_TABLE_USAGE 5002c384     StdAfx.obj
 0002:00001394       _DBSCHEMA_CONSTRAINT_COLUMN_USAGE 5002c394     StdAfx.obj
 0002:000013a4       _DBSCHEMA_CHECK_CONSTRAINTS 5002c3a4     StdAfx.obj
 0002:000013b4       _DBSCHEMA_COLUMNS          5002c3b4     StdAfx.obj
 0002:000013c4       _DBSCHEMA_COLLATIONS       5002c3c4     StdAfx.obj
 0002:000013d4       _DBSCHEMA_CHARACTER_SETS   5002c3d4     StdAfx.obj
 0002:000013e4       _DBSCHEMA_ASSERTIONS       5002c3e4     StdAfx.obj
 0002:000013f4       _DBGUID_CONTAINEROBJECT    5002c3f4     StdAfx.obj
 0002:00001404       _DBROWCOL_DEFAULTSTREAM    5002c404     StdAfx.obj
 0002:0000141c       _DBROWCOL_ISROOT           5002c41c     StdAfx.obj
 0002:00001434       _DBROWCOL_DISPLAYNAME      5002c434     StdAfx.obj
 0002:0000144c       _DBROWCOL_DEFAULTDOCUMENT  5002c44c     StdAfx.obj
 0002:00001464       _DBROWCOL_ISSTRUCTUREDDOCUMENT 5002c464     StdAfx.obj
 0002:0000147c       _DBROWCOL_ISCOLLECTION     5002c47c     StdAfx.obj
 0002:00001494       _DBROWCOL_STREAMSIZE       5002c494     StdAfx.obj
 0002:000014ac       _DBROWCOL_LASTWRITETIME    5002c4ac     StdAfx.obj
 0002:000014c4       _DBROWCOL_LASTACCESSTIME   5002c4c4     StdAfx.obj
 0002:000014dc       _DBROWCOL_CREATIONTIME     5002c4dc     StdAfx.obj
 0002:000014f4       _DBROWCOL_CONTENTLANGUAGE  5002c4f4     StdAfx.obj
 0002:0000150c       _DBROWCOL_CONTENTCLASS     5002c50c     StdAfx.obj
 0002:00001524       _DBROWCOL_CONTENTTYPE      5002c524     StdAfx.obj
 0002:0000153c       _DBROWCOL_ISREADONLY       5002c53c     StdAfx.obj
 0002:00001554       _DBROWCOL_ISHIDDEN         5002c554     StdAfx.obj
 0002:0000156c       _DBROWCOL_ABSOLUTEPARSENAME 5002c56c     StdAfx.obj
 0002:00001584       _DBROWCOL_PARENTNAME       5002c584     StdAfx.obj
 0002:0000159c       _DBROWCOL_PARSENAME        5002c59c     StdAfx.obj
 0002:000015b4       _DBROWCOL_ROWURL           5002c5b4     StdAfx.obj
 0002:000015cc       _DBGUID_STREAM             5002c5cc     StdAfx.obj
 0002:000015dc       _DBGUID_COMMAND            5002c5dc     StdAfx.obj
 0002:000015ec       _DBGUID_ROW                5002c5ec     StdAfx.obj
 0002:000015fc       _DBGUID_ROWSET             5002c5fc     StdAfx.obj
 0002:0000160c       _DBGUID_SESSION            5002c60c     StdAfx.obj
 0002:0000161c       _DBGUID_DSO                5002c61c     StdAfx.obj
 0002:0000162c       _DBPROPSET_CONSTRAINTALL   5002c62c     StdAfx.obj
 0002:0000163c       _DBPROPSET_TRUSTEEALL      5002c63c     StdAfx.obj
 0002:0000164c       _DBPROPSET_TABLEALL        5002c64c     StdAfx.obj
 0002:0000165c       _DBPROPSET_INDEXALL        5002c65c     StdAfx.obj
 0002:0000166c       _DBPROPSET_COLUMNALL       5002c66c     StdAfx.obj
 0002:0000167c       _DBSCHEMA_TRUSTEE          5002c67c     StdAfx.obj
 0002:0000168c       _DBOBJECT_TRANSLATION      5002c68c     StdAfx.obj
 0002:0000169c       _DBOBJECT_CHARACTERSET     5002c69c     StdAfx.obj
 0002:000016ac       _DBOBJECT_SCHEMAROWSET     5002c6ac     StdAfx.obj
 0002:000016bc       _DBOBJECT_TRUSTEE          5002c6bc     StdAfx.obj
 0002:000016cc       _DBOBJECT_COLLATION        5002c6cc     StdAfx.obj
 0002:000016dc       _DBOBJECT_DOMAIN           5002c6dc     StdAfx.obj
 0002:000016ec       _DBOBJECT_SCHEMA           5002c6ec     StdAfx.obj
 0002:000016fc       _DBOBJECT_VIEW             5002c6fc     StdAfx.obj
 0002:0000170c       _DBOBJECT_PROCEDURE        5002c70c     StdAfx.obj
 0002:0000171c       _DBOBJECT_DATABASE         5002c71c     StdAfx.obj
 0002:0000172c       _DBOBJECT_COLUMN           5002c72c     StdAfx.obj
 0002:0000173c       _DBOBJECT_TABLE            5002c73c     StdAfx.obj
 0002:0000174c       _DBPROPSET_TRUSTEE         5002c74c     StdAfx.obj
 0002:0000175c       _DBCOLUMN_KEYCOLUMN        5002c75c     StdAfx.obj
 0002:00001774       _DBCOLUMN_BASETABLEVERSION 5002c774     StdAfx.obj
 0002:0000178c       _MDSCHEMA_MEMBERS          5002c78c     StdAfx.obj
 0002:0000179c       _MDSCHEMA_PROPERTIES       5002c79c     StdAfx.obj
 0002:000017ac       _MDSCHEMA_MEASURES         5002c7ac     StdAfx.obj
 0002:000017bc       _MDSCHEMA_LEVELS           5002c7bc     StdAfx.obj
 0002:000017cc       _MDSCHEMA_HIERARCHIES      5002c7cc     StdAfx.obj
 0002:000017dc       _MDSCHEMA_DIMENSIONS       5002c7dc     StdAfx.obj
 0002:000017ec       _MDSCHEMA_CUBES            5002c7ec     StdAfx.obj
 0002:000017fc       _DBGUID_MDX                5002c7fc     StdAfx.obj
 0002:0000180c       _MDGUID_MDX                5002c80c     StdAfx.obj
 0002:0000181c       _DBSCHEMA_TABLES_INFO      5002c81c     StdAfx.obj
 0002:0000182c       _MDSCHEMA_SETS             5002c82c     StdAfx.obj
 0002:0000183c       _MDSCHEMA_COMMANDS         5002c83c     StdAfx.obj
 0002:0000184c       _MDSCHEMA_ACTIONS          5002c84c     StdAfx.obj
 0002:0000185c       _MDSCHEMA_FUNCTIONS        5002c85c     StdAfx.obj
 0002:0000186c       _DBCOLUMN_MAYSORT          5002c86c     StdAfx.obj
 0002:00001884       _DBCOLUMN_CLSID            5002c884     StdAfx.obj
 0002:0000189c       _DBCOLUMN_COLUMNSIZE       5002c89c     StdAfx.obj
 0002:000018b4       _DBCOLUMN_OCTETLENGTH      5002c8b4     StdAfx.obj
 0002:000018cc       _DBCOLUMN_NUMERICPRECISIONRADIX 5002c8cc     StdAfx.obj
 0002:000018e4       _DBCOLUMN_DATETIMEPRECISION 5002c8e4     StdAfx.obj
 0002:000018fc       _DBCOLUMN_DOMAINSCHEMA     5002c8fc     StdAfx.obj
 0002:00001914       _DBCOLUMN_DOMAINCATALOG    5002c914     StdAfx.obj
 0002:0000192c       _DBCOLUMN_TYPEINFO         5002c92c     StdAfx.obj
 0002:00001944       _DBCOLUMN_PROPID           5002c944     StdAfx.obj
 0002:0000195c       _DBCOLUMN_GUID             5002c95c     StdAfx.obj
 0002:00001974       _DBCOLUMN_BASESCHEMANAME   5002c974     StdAfx.obj
 0002:0000198c       _DBCOLUMN_BASECATALOGNAME  5002c98c     StdAfx.obj
 0002:000019a4       _DBCOLUMN_ISUNIQUE         5002c9a4     StdAfx.obj
 0002:000019bc       _DBCOLUMN_ISSEARCHABLE     5002c9bc     StdAfx.obj
 0002:000019d4       _DBCOLUMN_ISCASESENSITIVE  5002c9d4     StdAfx.obj
 0002:000019ec       _DBCOLUMN_ISAUTOINCREMENT  5002c9ec     StdAfx.obj
 0002:00001a04       _DBCOLUMN_HASDEFAULT       5002ca04     StdAfx.obj
 0002:00001a1c       _DBCOLUMN_DOMAINNAME       5002ca1c     StdAfx.obj
 0002:00001a34       _DBCOLUMN_DEFAULTVALUE     5002ca34     StdAfx.obj
 0002:00001a4c       _DBCOLUMN_COMPUTEMODE      5002ca4c     StdAfx.obj
 0002:00001a64       _DBCOLUMN_COLLATINGSEQUENCE 5002ca64     StdAfx.obj
 0002:00001a7c       _DBCOLUMN_BASETABLENAME    5002ca7c     StdAfx.obj
 0002:00001a94       _DBCOLUMN_BASECOLUMNNAME   5002ca94     StdAfx.obj
 0002:00001aac       _DBCOLUMN_FLAGS            5002caac     StdAfx.obj
 0002:00001ac4       _DBCOLUMN_SCALE            5002cac4     StdAfx.obj
 0002:00001adc       _DBCOLUMN_PRECISION        5002cadc     StdAfx.obj
 0002:00001af4       _DBCOLUMN_TYPE             5002caf4     StdAfx.obj
 0002:00001b0c       _DBCOLUMN_NUMBER           5002cb0c     StdAfx.obj
 0002:00001b24       _DBCOLUMN_NAME             5002cb24     StdAfx.obj
 0002:00001b3c       _DBCOLUMN_IDNAME           5002cb3c     StdAfx.obj
 0002:00001b54       ??_C@_01EEMJAFIK@?6?$AA@   5002cb54     ExceptionFilter.obj
 0002:00001b58       ??_C@_0BF@LKCFIGGF@?7File?3?5?$CFs?0?5?$CFu?5Line?$AN?6?$AA@ 5002cb58     ExceptionFilter.obj
 0002:00001b70       ??_C@_0BG@HMOHICLF@?7LoadedImageName?3?5?$CFs?6?$AA@ 5002cb70     ExceptionFilter.obj
 0002:00001b88       ??_C@_0BA@OBCCILKO@?7ImageName?3?5?$CFs?6?$AA@ 5002cb88     ExceptionFilter.obj
 0002:00001b98       ??_C@_0CE@CAJOEMBA@0x?$CF08x?5?9?5?$FLUnknown?5Symbol?3Error?5?$CF@ 5002cb98     ExceptionFilter.obj
 0002:00001bbc       ??_C@_0BF@NEPMJFDO@0x?$CF08x?5?9?5?$CFs?$CI?$CJ?5?$CL?5?$CFxh?6?$AA@ 5002cbbc     ExceptionFilter.obj
 0002:00001bd8       ??_C@_0EA@NLGFMGKK@?$CK?9?9?9?9?9?9?9?9?9?9?9?9?9?9?9?9?9?9?9?9?9?9?9?9?9?9?9?9?9?9?9@ 5002cbd8     ExceptionFilter.obj
 0002:00001c18       ??_C@_0BK@LICGDHKD@?7ExceptionCode?7?7?3?50x?$CF08X?6?$AA@ 5002cc18     ExceptionFilter.obj
 0002:00001c34       ??_C@_07JLAIIGGI@0x?$CF08X?6?$AA@ 5002cc34     ExceptionFilter.obj
 0002:00001c3c       ??_C@_0CB@OGGPLNHH@?7ProcessID?5?1?5ThreadID?3?50x?$CF08X?5?1?5@ 5002cc3c     ExceptionFilter.obj
 0002:00001c60       ??_C@_03OFAPEBGM@?$CFs?6?$AA@ 5002cc60     ExceptionFilter.obj
 0002:00001c64       ??_C@_0BH@MBBLAKGH@?7Date?5?1?5Time?7?7?7?3?5?$CFs?5?5?5?$AA@ 5002cc64     ExceptionFilter.obj
 0002:00001c80       ??_C@_0EA@IHJNBDGG@?$CK?$DN?$DN?$DN?$DN?$DN?$DN?$DN?$DN?$DN?$DN?$DN?$DN?$DN?$DN?$DN?$DN?$DN?$DN?$DN?$DN?$DN?$DN?$DN?$DN?$DN?$DN?$DN?$DN?$DN?$DN?$DN@ 5002cc80     ExceptionFilter.obj
 0002:00001cc0       ??_C@_0BH@JCKMABOD@ExceptionStackDump?4txt?$AA@ 5002ccc0     ExceptionFilter.obj
 0002:00001cd8       ??_C@_02CPIDLAI@at?$AA@    5002ccd8     ExceptionFilter.obj
 0002:00001cdc       _IID_IClassFactory         5002ccdc     uuid:unknwn_i.obj
 0002:00001cec       _IID_AsyncIUnknown         5002ccec     uuid:unknwn_i.obj
 0002:00001cfc       _IID_IUnknown              5002ccfc     uuid:unknwn_i.obj
 0002:00001d0c       _IID_IAccessor             5002cd0c     uuid:oledbiid.obj
 0002:00001d1c       _IID_IRowset               5002cd1c     uuid:oledbiid.obj
 0002:00001d2c       _IID_IRowsetInfo           5002cd2c     uuid:oledbiid.obj
 0002:00001d3c       _IID_IRowsetLocate         5002cd3c     uuid:oledbiid.obj
 0002:00001d4c       _IID_IRowsetResynch        5002cd4c     uuid:oledbiid.obj
 0002:00001d5c       _IID_IRowsetScroll         5002cd5c     uuid:oledbiid.obj
 0002:00001d6c       _IID_IChapteredRowset      5002cd6c     uuid:oledbiid.obj
 0002:00001d7c       _IID_IRowsetFind           5002cd7c     uuid:oledbiid.obj
 0002:00001d8c       _IID_IRowPosition          5002cd8c     uuid:oledbiid.obj
 0002:00001d9c       _IID_IRowPositionChange    5002cd9c     uuid:oledbiid.obj
 0002:00001dac       _IID_IViewRowset           5002cdac     uuid:oledbiid.obj
 0002:00001dbc       _IID_IViewChapter          5002cdbc     uuid:oledbiid.obj
 0002:00001dcc       _IID_IViewSort             5002cdcc     uuid:oledbiid.obj
 0002:00001ddc       _IID_IViewFilter           5002cddc     uuid:oledbiid.obj
 0002:00001dec       _IID_IRowsetView           5002cdec     uuid:oledbiid.obj
 0002:00001dfc       _IID_IRowsetExactScroll    5002cdfc     uuid:oledbiid.obj
 0002:00001e0c       _IID_IRowsetChange         5002ce0c     uuid:oledbiid.obj
 0002:00001e1c       _IID_IRowsetUpdate         5002ce1c     uuid:oledbiid.obj
 0002:00001e2c       _IID_IRowsetIdentity       5002ce2c     uuid:oledbiid.obj
 0002:00001e3c       _IID_IRowsetNotify         5002ce3c     uuid:oledbiid.obj
 0002:00001e4c       _IID_IRowsetIndex          5002ce4c     uuid:oledbiid.obj
 0002:00001e5c       _IID_ICommand              5002ce5c     uuid:oledbiid.obj
 0002:00001e6c       _IID_IMultipleResults      5002ce6c     uuid:oledbiid.obj
 0002:00001e7c       _IID_IConvertType          5002ce7c     uuid:oledbiid.obj
 0002:00001e8c       _IID_ICommandPrepare       5002ce8c     uuid:oledbiid.obj
 0002:00001e9c       _IID_ICommandProperties    5002ce9c     uuid:oledbiid.obj
 0002:00001eac       _IID_ICommandText          5002ceac     uuid:oledbiid.obj
 0002:00001ebc       _IID_ICommandWithParameters 5002cebc     uuid:oledbiid.obj
 0002:00001ecc       _IID_IColumnsRowset        5002cecc     uuid:oledbiid.obj
 0002:00001edc       _IID_IColumnsInfo          5002cedc     uuid:oledbiid.obj
 0002:00001eec       _IID_IDBCreateCommand      5002ceec     uuid:oledbiid.obj
 0002:00001efc       _IID_IDBCreateSession      5002cefc     uuid:oledbiid.obj
 0002:00001f0c       _IID_ISourcesRowset        5002cf0c     uuid:oledbiid.obj
 0002:00001f1c       _IID_IDBProperties         5002cf1c     uuid:oledbiid.obj
 0002:00001f2c       _IID_IDBInitialize         5002cf2c     uuid:oledbiid.obj
 0002:00001f3c       _IID_IDBInfo               5002cf3c     uuid:oledbiid.obj
 0002:00001f4c       _IID_IDBDataSourceAdmin    5002cf4c     uuid:oledbiid.obj
 0002:00001f5c       _IID_IDBAsynchNotify       5002cf5c     uuid:oledbiid.obj
 0002:00001f6c       _IID_IDBAsynchStatus       5002cf6c     uuid:oledbiid.obj
 0002:00001f7c       _IID_ISessionProperties    5002cf7c     uuid:oledbiid.obj
 0002:00001f8c       _IID_IIndexDefinition      5002cf8c     uuid:oledbiid.obj
 0002:00001f9c       _IID_ITableDefinition      5002cf9c     uuid:oledbiid.obj
 0002:00001fac       _IID_IOpenRowset           5002cfac     uuid:oledbiid.obj
 0002:00001fbc       _IID_IDBSchemaRowset       5002cfbc     uuid:oledbiid.obj
 0002:00001fcc       _IID_IMDDataset            5002cfcc     uuid:oledbiid.obj
 0002:00001fdc       _IID_IMDFind               5002cfdc     uuid:oledbiid.obj
 0002:00001fec       _IID_IMDRangeRowset        5002cfec     uuid:oledbiid.obj
 0002:00001ffc       _IID_IAlterTable           5002cffc     uuid:oledbiid.obj
 0002:0000200c       _IID_IAlterIndex           5002d00c     uuid:oledbiid.obj
 0002:0000201c       _IID_IRowsetChapterMember  5002d01c     uuid:oledbiid.obj
 0002:0000202c       _IID_ICommandPersist       5002d02c     uuid:oledbiid.obj
 0002:0000203c       _IID_IRowsetRefresh        5002d03c     uuid:oledbiid.obj
 0002:0000204c       _IID_IParentRowset         5002d04c     uuid:oledbiid.obj
 0002:0000205c       _IID_IErrorRecords         5002d05c     uuid:oledbiid.obj
 0002:0000206c       _IID_IErrorLookup          5002d06c     uuid:oledbiid.obj
 0002:0000207c       _IID_ISQLErrorInfo         5002d07c     uuid:oledbiid.obj
 0002:0000208c       _IID_IGetDataSource        5002d08c     uuid:oledbiid.obj
 0002:0000209c       _IID_ITransactionLocal     5002d09c     uuid:oledbiid.obj
 0002:000020ac       _IID_ITransactionJoin      5002d0ac     uuid:oledbiid.obj
 0002:000020bc       _IID_ITransactionObject    5002d0bc     uuid:oledbiid.obj
 0002:000020cc       _IID_ITrusteeAdmin         5002d0cc     uuid:oledbiid.obj
 0002:000020dc       _IID_ITrusteeGroupAdmin    5002d0dc     uuid:oledbiid.obj
 0002:000020ec       _IID_IObjectAccessControl  5002d0ec     uuid:oledbiid.obj
 0002:000020fc       _IID_ISecurityInfo         5002d0fc     uuid:oledbiid.obj
 0002:0000210c       _IID_ITableCreation        5002d10c     uuid:oledbiid.obj
 0002:0000211c       _IID_ITableDefinitionWithConstraints 5002d11c     uuid:oledbiid.obj
 0002:0000212c       _IID_IRow                  5002d12c     uuid:oledbiid.obj
 0002:0000213c       _IID_IRowChange            5002d13c     uuid:oledbiid.obj
 0002:0000214c       _IID_IRowSchemaChange      5002d14c     uuid:oledbiid.obj
 0002:0000215c       _IID_IGetRow               5002d15c     uuid:oledbiid.obj
 0002:0000216c       _IID_IBindResource         5002d16c     uuid:oledbiid.obj
 0002:0000217c       _IID_IScopedOperations     5002d17c     uuid:oledbiid.obj
 0002:0000218c       _IID_ICreateRow            5002d18c     uuid:oledbiid.obj
 0002:0000219c       _IID_IDBBinderProperties   5002d19c     uuid:oledbiid.obj
 0002:000021ac       _IID_IColumnsInfo2         5002d1ac     uuid:oledbiid.obj
 0002:000021bc       _IID_IRegisterProvider     5002d1bc     uuid:oledbiid.obj
 0002:000021cc       _IID_IGetSession           5002d1cc     uuid:oledbiid.obj
 0002:000021dc       _IID_IGetSourceRow         5002d1dc     uuid:oledbiid.obj
 0002:000021ec       _IID_IRowsetCurrentIndex   5002d1ec     uuid:oledbiid.obj
 0002:000021fc       _IID_ICommandStream        5002d1fc     uuid:oledbiid.obj
 0002:0000220c       _IID_IRowsetBookmark       5002d20c     uuid:oledbiid.obj
 0002:0000221c       _IID_IInitializeSpy        5002d21c     uuid:objidl_i.obj
 0002:0000222c       _IID_IProcessInitControl   5002d22c     uuid:objidl_i.obj
 0002:0000223c       _IID_IComThreadingInfo     5002d23c     uuid:objidl_i.obj
 0002:0000224c       _IID_ISurrogateService     5002d24c     uuid:objidl_i.obj
 0002:0000225c       _IID_IProcessLock          5002d25c     uuid:objidl_i.obj
 0002:0000226c       _IID_IObjContext           5002d26c     uuid:objidl_i.obj
 0002:0000227c       _IID_IContext              5002d27c     uuid:objidl_i.obj
 0002:0000228c       _IID_IEnumContextProps     5002d28c     uuid:objidl_i.obj
 0002:0000229c       _IID_IDummyHICONIncluder   5002d29c     uuid:objidl_i.obj
 0002:000022ac       _IID_IThumbnailExtractor   5002d2ac     uuid:objidl_i.obj
 0002:000022bc       _IID_AsyncIPipeDouble      5002d2bc     uuid:objidl_i.obj
 0002:000022cc       _IID_IPipeDouble           5002d2cc     uuid:objidl_i.obj
 0002:000022dc       _IID_AsyncIPipeLong        5002d2dc     uuid:objidl_i.obj
 0002:000022ec       _IID_IPipeLong             5002d2ec     uuid:objidl_i.obj
 0002:000022fc       _IID_AsyncIPipeByte        5002d2fc     uuid:objidl_i.obj
 0002:0000230c       _IID_IPipeByte             5002d30c     uuid:objidl_i.obj
 0002:0000231c       _IID_IAddrExclusionControl 5002d31c     uuid:objidl_i.obj
 0002:0000232c       _IID_IAddrTrackingControl  5002d32c     uuid:objidl_i.obj
 0002:0000233c       _IID_IForegroundTransfer   5002d33c     uuid:objidl_i.obj
 0002:0000234c       _IID_IUrlMon               5002d34c     uuid:objidl_i.obj
 0002:0000235c       _IID_IWaitMultiple         5002d35c     uuid:objidl_i.obj
 0002:0000236c       _IID_IReleaseMarshalBuffers 5002d36c     uuid:objidl_i.obj
 0002:0000237c       _IID_IRpcHelper            5002d37c     uuid:objidl_i.obj
 0002:0000238c       _IID_ICallFactory          5002d38c     uuid:objidl_i.obj
 0002:0000239c       _IID_IAsyncManager         5002d39c     uuid:objidl_i.obj
 0002:000023ac       _IID_ICancelMethodCalls    5002d3ac     uuid:objidl_i.obj
 0002:000023bc       _IID_ISynchronizeMutex     5002d3bc     uuid:objidl_i.obj
 0002:000023cc       _IID_ISynchronizeContainer 5002d3cc     uuid:objidl_i.obj
 0002:000023dc       _IID_ISynchronizeEvent     5002d3dc     uuid:objidl_i.obj
 0002:000023ec       _IID_ISynchronizeHandle    5002d3ec     uuid:objidl_i.obj
 0002:000023fc       _IID_ISynchronize          5002d3fc     uuid:objidl_i.obj
 0002:0000240c       _IID_IDirectWriterLock     5002d40c     uuid:objidl_i.obj
 0002:0000241c       _IID_IGlobalInterfaceTable 5002d41c     uuid:objidl_i.obj
 0002:0000242c       _IID_ISurrogate            5002d42c     uuid:objidl_i.obj
 0002:0000243c       _IID_IOplockStorage        5002d43c     uuid:objidl_i.obj
 0002:0000244c       _IID_ITimeAndNoticeControl 5002d44c     uuid:objidl_i.obj
 0002:0000245c       _IID_IBlockingLock         5002d45c     uuid:objidl_i.obj
 0002:0000246c       _IID_ILayoutStorage        5002d46c     uuid:objidl_i.obj
 0002:0000247c       _IID_IProgressNotify       5002d47c     uuid:objidl_i.obj
 0002:0000248c       _IID_IFillLockBytes        5002d48c     uuid:objidl_i.obj
 0002:0000249c       _IID_IRpcOptions           5002d49c     uuid:objidl_i.obj
 0002:000024ac       _IID_IClassActivator       5002d4ac     uuid:objidl_i.obj
 0002:000024bc       _IID_IServerSecurity       5002d4bc     uuid:objidl_i.obj
 0002:000024cc       _IID_IClientSecurity       5002d4cc     uuid:objidl_i.obj
 0002:000024dc       _IID_IChannelHook          5002d4dc     uuid:objidl_i.obj
 0002:000024ec       _IID_IPSFactoryBuffer      5002d4ec     uuid:objidl_i.obj
 0002:000024fc       _IID_IRpcStubBuffer        5002d4fc     uuid:objidl_i.obj
 0002:0000250c       _IID_IRpcProxyBuffer       5002d50c     uuid:objidl_i.obj
 0002:0000251c       _IID_IRpcSyntaxNegotiate   5002d51c     uuid:objidl_i.obj
 0002:0000252c       _IID_IRpcChannelBuffer3    5002d52c     uuid:objidl_i.obj
 0002:0000253c       _IID_IAsyncRpcChannelBuffer 5002d53c     uuid:objidl_i.obj
 0002:0000254c       _IID_IRpcChannelBuffer2    5002d54c     uuid:objidl_i.obj
 0002:0000255c       _IID_IRpcChannelBuffer     5002d55c     uuid:objidl_i.obj
 0002:0000256c       _IID_IMessageFilter        5002d56c     uuid:objidl_i.obj
 0002:0000257c       _IID_IDataAdviseHolder     5002d57c     uuid:objidl_i.obj
 0002:0000258c       _IID_IDataObject           5002d58c     uuid:objidl_i.obj
 0002:0000259c       _IID_AsyncIAdviseSink2     5002d59c     uuid:objidl_i.obj
 0002:000025ac       _IID_IAdviseSink2          5002d5ac     uuid:objidl_i.obj
 0002:000025bc       _IID_AsyncIAdviseSink      5002d5bc     uuid:objidl_i.obj
 0002:000025cc       _IID_IAdviseSink           5002d5cc     uuid:objidl_i.obj
 0002:000025dc       _IID_IRootStorage          5002d5dc     uuid:objidl_i.obj
 0002:000025ec       _IID_IEnumSTATDATA         5002d5ec     uuid:objidl_i.obj
 0002:000025fc       _IID_IEnumFORMATETC        5002d5fc     uuid:objidl_i.obj
 0002:0000260c       _IID_ILockBytes            5002d60c     uuid:objidl_i.obj
 0002:0000261c       _IID_IPersistStorage       5002d61c     uuid:objidl_i.obj
 0002:0000262c       _IID_IPersistFile          5002d62c     uuid:objidl_i.obj
 0002:0000263c       _IID_IStorage              5002d63c     uuid:objidl_i.obj
 0002:0000264c       _IID_IEnumSTATSTG          5002d64c     uuid:objidl_i.obj
 0002:0000265c       _IID_IStream               5002d65c     uuid:objidl_i.obj
 0002:0000266c       _IID_ISequentialStream     5002d66c     uuid:objidl_i.obj
 0002:0000267c       _IID_IEnumString           5002d67c     uuid:objidl_i.obj
 0002:0000268c       _IID_IROTData              5002d68c     uuid:objidl_i.obj
 0002:0000269c       _IID_IMoniker              5002d69c     uuid:objidl_i.obj
 0002:000026ac       _IID_IPersistStream        5002d6ac     uuid:objidl_i.obj
 0002:000026bc       _IID_IPersist              5002d6bc     uuid:objidl_i.obj
 0002:000026cc       _IID_IRunningObjectTable   5002d6cc     uuid:objidl_i.obj
 0002:000026dc       _IID_IRunnableObject       5002d6dc     uuid:objidl_i.obj
 0002:000026ec       _IID_IEnumMoniker          5002d6ec     uuid:objidl_i.obj
 0002:000026fc       _IID_IBindCtx              5002d6fc     uuid:objidl_i.obj
 0002:0000270c       _IID_IEnumUnknown          5002d70c     uuid:objidl_i.obj
 0002:0000271c       _IID_IInternalUnknown      5002d71c     uuid:objidl_i.obj
 0002:0000272c       _IID_AsyncIMultiQI         5002d72c     uuid:objidl_i.obj
 0002:0000273c       _IID_IMultiQI              5002d73c     uuid:objidl_i.obj
 0002:0000274c       _IID_IExternalConnection   5002d74c     uuid:objidl_i.obj
 0002:0000275c       _IID_IStdMarshalInfo       5002d75c     uuid:objidl_i.obj
 0002:0000276c       _IID_IMallocSpy            5002d76c     uuid:objidl_i.obj
 0002:0000277c       _IID_IMalloc               5002d77c     uuid:objidl_i.obj
 0002:0000278c       _IID_IMarshal2             5002d78c     uuid:objidl_i.obj
 0002:0000279c       _IID_IMarshal              5002d79c     uuid:objidl_i.obj
 0002:000027ac       _IID_IPropertyBag          5002d7ac     uuid:oaidl_i.obj
 0002:000027bc       _IID_IErrorLog             5002d7bc     uuid:oaidl_i.obj
 0002:000027cc       _IID_IRecordInfo           5002d7cc     uuid:oaidl_i.obj
 0002:000027dc       _IID_ITypeMarshal          5002d7dc     uuid:oaidl_i.obj
 0002:000027ec       _IID_ITypeFactory          5002d7ec     uuid:oaidl_i.obj
 0002:000027fc       _IID_ISupportErrorInfo     5002d7fc     uuid:oaidl_i.obj
 0002:0000280c       _IID_ICreateErrorInfo      5002d80c     uuid:oaidl_i.obj
 0002:0000281c       _IID_IErrorInfo            5002d81c     uuid:oaidl_i.obj
 0002:0000282c       _IID_ITypeChangeEvents     5002d82c     uuid:oaidl_i.obj
 0002:0000283c       _IID_ITypeLib2             5002d83c     uuid:oaidl_i.obj
 0002:0000284c       _IID_ITypeLib              5002d84c     uuid:oaidl_i.obj
 0002:0000285c       _IID_ITypeInfo2            5002d85c     uuid:oaidl_i.obj
 0002:0000286c       _IID_ITypeInfo             5002d86c     uuid:oaidl_i.obj
 0002:0000287c       _IID_ITypeComp             5002d87c     uuid:oaidl_i.obj
 0002:0000288c       _IID_IEnumVARIANT          5002d88c     uuid:oaidl_i.obj
 0002:0000289c       _IID_IDispatch             5002d89c     uuid:oaidl_i.obj
 0002:000028ac       _IID_ICreateTypeLib2       5002d8ac     uuid:oaidl_i.obj
 0002:000028bc       _IID_ICreateTypeLib        5002d8bc     uuid:oaidl_i.obj
 0002:000028cc       _IID_ICreateTypeInfo2      5002d8cc     uuid:oaidl_i.obj
 0002:000028dc       _IID_ICreateTypeInfo       5002d8dc     uuid:oaidl_i.obj
 0002:000028ec       _GUID_DEVINTERFACE_SERENUM_BUS_ENUMERATOR 5002d8ec     uuid:cguid_i.obj
 0002:000028fc       _GUID_DEVINTERFACE_COMPORT 5002d8fc     uuid:cguid_i.obj
 0002:0000290c       _GUID_DEVINTERFACE_STORAGEPORT 5002d90c     uuid:cguid_i.obj
 0002:0000291c       _GUID_DEVINTERFACE_CDCHANGER 5002d91c     uuid:cguid_i.obj
 0002:0000292c       _GUID_DEVINTERFACE_FLOPPY  5002d92c     uuid:cguid_i.obj
 0002:0000293c       _GUID_DEVINTERFACE_MEDIUMCHANGER 5002d93c     uuid:cguid_i.obj
 0002:0000294c       _GUID_DEVINTERFACE_VOLUME  5002d94c     uuid:cguid_i.obj
 0002:0000295c       _GUID_DEVINTERFACE_WRITEONCEDISK 5002d95c     uuid:cguid_i.obj
 0002:0000296c       _GUID_DEVINTERFACE_TAPE    5002d96c     uuid:cguid_i.obj
 0002:0000297c       _GUID_DEVINTERFACE_PARTITION 5002d97c     uuid:cguid_i.obj
 0002:0000298c       _GUID_DEVINTERFACE_CDROM   5002d98c     uuid:cguid_i.obj
 0002:0000299c       _GUID_DEVINTERFACE_DISK    5002d99c     uuid:cguid_i.obj
 0002:000029ac       _GUID_DEVCLASS_FSFILTER_INFRASTRUCTURE 5002d9ac     uuid:cguid_i.obj
 0002:000029bc       _GUID_DEVCLASS_FSFILTER_SYSTEM 5002d9bc     uuid:cguid_i.obj
 0002:000029cc       _GUID_DEVCLASS_FSFILTER_COPYPROTECTION 5002d9cc     uuid:cguid_i.obj
 0002:000029dc       _GUID_DEVCLASS_FSFILTER_SECURITYENHANCER 5002d9dc     uuid:cguid_i.obj
 0002:000029ec       _GUID_DEVCLASS_FSFILTER_OPENFILEBACKUP 5002d9ec     uuid:cguid_i.obj
 0002:000029fc       _GUID_DEVCLASS_FSFILTER_PHYSICALQUOTAMANAGEMENT 5002d9fc     uuid:cguid_i.obj
 0002:00002a0c       _GUID_DEVCLASS_FSFILTER_ENCRYPTION 5002da0c     uuid:cguid_i.obj
 0002:00002a1c       _GUID_DEVCLASS_FSFILTER_COMPRESSION 5002da1c     uuid:cguid_i.obj
 0002:00002a2c       _GUID_DEVCLASS_FSFILTER_HSM 5002da2c     uuid:cguid_i.obj
 0002:00002a3c       _GUID_DEVCLASS_FSFILTER_CFSMETADATASERVER 5002da3c     uuid:cguid_i.obj
 0002:00002a4c       _GUID_DEVCLASS_FSFILTER_SYSTEMRECOVERY 5002da4c     uuid:cguid_i.obj
 0002:00002a5c       _GUID_DEVCLASS_FSFILTER_QUOTAMANAGEMENT 5002da5c     uuid:cguid_i.obj
 0002:00002a6c       _GUID_DEVCLASS_FSFILTER_CONTENTSCREENER 5002da6c     uuid:cguid_i.obj
 0002:00002a7c       _GUID_DEVCLASS_FSFILTER_CONTINUOUSBACKUP 5002da7c     uuid:cguid_i.obj
 0002:00002a8c       _GUID_DEVCLASS_FSFILTER_REPLICATION 5002da8c     uuid:cguid_i.obj
 0002:00002a9c       _GUID_DEVCLASS_FSFILTER_ANTIVIRUS 5002da9c     uuid:cguid_i.obj
 0002:00002aac       _GUID_DEVCLASS_FSFILTER_UNDELETE 5002daac     uuid:cguid_i.obj
 0002:00002abc       _GUID_DEVCLASS_FSFILTER_ACTIVITYMONITOR 5002dabc     uuid:cguid_i.obj
 0002:00002acc       _GUID_DEVCLASS_BTRANS      5002dacc     uuid:cguid_i.obj
 0002:00002adc       _GUID_DEVCLASS_WCEUSBS     5002dadc     uuid:cguid_i.obj
 0002:00002aec       _GUID_DEVCLASS_VOLUMESNAPSHOT 5002daec     uuid:cguid_i.obj
 0002:00002afc       _GUID_DEVCLASS_VOLUME      5002dafc     uuid:cguid_i.obj
 0002:00002b0c       _GUID_DEVCLASS_USB         5002db0c     uuid:cguid_i.obj
 0002:00002b1c       _GUID_DEVCLASS_UNKNOWN     5002db1c     uuid:cguid_i.obj
 0002:00002b2c       _GUID_DEVCLASS_TAPEDRIVE   5002db2c     uuid:cguid_i.obj
 0002:00002b3c       _GUID_DEVCLASS_SYSTEM      5002db3c     uuid:cguid_i.obj
 0002:00002b4c       _GUID_DEVCLASS_SOUND       5002db4c     uuid:cguid_i.obj
 0002:00002b5c       _GUID_DEVCLASS_SMARTCARDREADER 5002db5c     uuid:cguid_i.obj
 0002:00002b6c       _GUID_DEVCLASS_SECURITYACCELERATOR 5002db6c     uuid:cguid_i.obj
 0002:00002b7c       _GUID_DEVCLASS_SCSIADAPTER 5002db7c     uuid:cguid_i.obj
 0002:00002b8c       _GUID_DEVCLASS_SBP2        5002db8c     uuid:cguid_i.obj
 0002:00002b9c       _GUID_DEVCLASS_PROCESSOR   5002db9c     uuid:cguid_i.obj
 0002:00002bac       _GUID_DEVCLASS_PRINTERUPGRADE 5002dbac     uuid:cguid_i.obj
 0002:00002bbc       _GUID_DEVCLASS_PRINTER     5002dbbc     uuid:cguid_i.obj
 0002:00002bcc       _GUID_DEVCLASS_PORTS       5002dbcc     uuid:cguid_i.obj
 0002:00002bdc       _GUID_DEVCLASS_PNPPRINTERS 5002dbdc     uuid:cguid_i.obj
 0002:00002bec       _GUID_DEVCLASS_PCMCIA      5002dbec     uuid:cguid_i.obj
 0002:00002bfc       _GUID_DEVCLASS_NODRIVER    5002dbfc     uuid:cguid_i.obj
 0002:00002c0c       _GUID_DEVCLASS_NETTRANS    5002dc0c     uuid:cguid_i.obj
 0002:00002c1c       _GUID_DEVCLASS_NETSERVICE  5002dc1c     uuid:cguid_i.obj
 0002:00002c2c       _GUID_DEVCLASS_NETCLIENT   5002dc2c     uuid:cguid_i.obj
 0002:00002c3c       _GUID_DEVCLASS_NET         5002dc3c     uuid:cguid_i.obj
 0002:00002c4c       _GUID_DEVCLASS_MULTIPORTSERIAL 5002dc4c     uuid:cguid_i.obj
 0002:00002c5c       _GUID_DEVCLASS_MULTIFUNCTION 5002dc5c     uuid:cguid_i.obj
 0002:00002c6c       _GUID_DEVCLASS_MTD         5002dc6c     uuid:cguid_i.obj
 0002:00002c7c       _GUID_DEVCLASS_MOUSE       5002dc7c     uuid:cguid_i.obj
 0002:00002c8c       _GUID_DEVCLASS_MONITOR     5002dc8c     uuid:cguid_i.obj
 0002:00002c9c       _GUID_DEVCLASS_MODEM       5002dc9c     uuid:cguid_i.obj
 0002:00002cac       _GUID_DEVCLASS_MEDIUM_CHANGER 5002dcac     uuid:cguid_i.obj
 0002:00002cbc       _GUID_DEVCLASS_MEDIA       5002dcbc     uuid:cguid_i.obj
 0002:00002ccc       _GUID_DEVCLASS_LEGACYDRIVER 5002dccc     uuid:cguid_i.obj
 0002:00002cdc       _GUID_DEVCLASS_KEYBOARD    5002dcdc     uuid:cguid_i.obj
 0002:00002cec       _GUID_DEVCLASS_INFRARED    5002dcec     uuid:cguid_i.obj
 0002:00002cfc       _GUID_DEVCLASS_INFINIBAND  5002dcfc     uuid:cguid_i.obj
 0002:00002d0c       _GUID_DEVCLASS_IMAGE       5002dd0c     uuid:cguid_i.obj
 0002:00002d1c       _GUID_DEVCLASS_HIDCLASS    5002dd1c     uuid:cguid_i.obj
 0002:00002d2c       _GUID_DEVCLASS_HDC         5002dd2c     uuid:cguid_i.obj
 0002:00002d3c       _GUID_DEVCLASS_GPS         5002dd3c     uuid:cguid_i.obj
 0002:00002d4c       _GUID_DEVCLASS_FLOPPYDISK  5002dd4c     uuid:cguid_i.obj
 0002:00002d5c       _GUID_DEVCLASS_FDC         5002dd5c     uuid:cguid_i.obj
 0002:00002d6c       _GUID_DEVCLASS_ENUM1394    5002dd6c     uuid:cguid_i.obj
 0002:00002d7c       _GUID_DEVCLASS_DOT4PRINT   5002dd7c     uuid:cguid_i.obj
 0002:00002d8c       _GUID_DEVCLASS_DOT4        5002dd8c     uuid:cguid_i.obj
 0002:00002d9c       _GUID_DEVCLASS_DISPLAY     5002dd9c     uuid:cguid_i.obj
 0002:00002dac       _GUID_DEVCLASS_DISKDRIVE   5002ddac     uuid:cguid_i.obj
 0002:00002dbc       _GUID_DEVCLASS_DECODER     5002ddbc     uuid:cguid_i.obj
 0002:00002dcc       _GUID_DEVCLASS_COMPUTER    5002ddcc     uuid:cguid_i.obj
 0002:00002ddc       _GUID_DEVCLASS_CDROM       5002dddc     uuid:cguid_i.obj
 0002:00002dec       _GUID_DEVCLASS_BLUETOOTH   5002ddec     uuid:cguid_i.obj
 0002:00002dfc       _GUID_DEVCLASS_BATTERY     5002ddfc     uuid:cguid_i.obj
 0002:00002e0c       _GUID_DEVCLASS_AVC         5002de0c     uuid:cguid_i.obj
 0002:00002e1c       _GUID_DEVCLASS_APMSUPPORT  5002de1c     uuid:cguid_i.obj
 0002:00002e2c       _GUID_DEVCLASS_ADAPTER     5002de2c     uuid:cguid_i.obj
 0002:00002e3c       _GUID_DEVCLASS_61883       5002de3c     uuid:cguid_i.obj
 0002:00002e4c       _GUID_DEVCLASS_1394DEBUG   5002de4c     uuid:cguid_i.obj
 0002:00002e5c       _GUID_DEVCLASS_1394        5002de5c     uuid:cguid_i.obj
 0002:00002e6c       _CLSID_ThumbnailUpdater    5002de6c     uuid:cguid_i.obj
 0002:00002e7c       _CLSID_ThumbnailFCNHandler 5002de7c     uuid:cguid_i.obj
 0002:00002e8c       _CLSID_GblComponentCategoriesMgr 5002de8c     uuid:cguid_i.obj
 0002:00002e9c       _IID_IBoundObjectSite      5002de9c     uuid:cguid_i.obj
 0002:00002eac       _IID_IBoundObject          5002deac     uuid:cguid_i.obj
 0002:00002ebc       __DBCIDGUID                5002debc     uuid:cguid_i.obj
 0002:00002ecc       __DBBMKGUID                5002decc     uuid:cguid_i.obj
 0002:00002edc       __GUID_NAMEONLY            5002dedc     uuid:cguid_i.obj
 0002:00002eec       _IID_IEntryID              5002deec     uuid:cguid_i.obj
 0002:00002efc       _IID_ICursorFind           5002defc     uuid:cguid_i.obj
 0002:00002f0c       _IID_INotifyDBEvents       5002df0c     uuid:cguid_i.obj
 0002:00002f1c       _IID_ICursorUpdateARow     5002df1c     uuid:cguid_i.obj
 0002:00002f2c       _IID_ICursorScroll         5002df2c     uuid:cguid_i.obj
 0002:00002f3c       _IID_ICursorMove           5002df3c     uuid:cguid_i.obj
 0002:00002f4c       _IID_ICursor               5002df4c     uuid:cguid_i.obj
 0002:00002f5c       _IID_StdOle                5002df5c     uuid:cguid_i.obj
 0002:00002f6c       _GUID_HANDLE               5002df6c     uuid:cguid_i.obj
 0002:00002f7c       _GUID_FONTSTRIKETHROUGH    5002df7c     uuid:cguid_i.obj
 0002:00002f8c       _GUID_FONTUNDERSCORE       5002df8c     uuid:cguid_i.obj
 0002:00002f9c       _GUID_FONTITALIC           5002df9c     uuid:cguid_i.obj
 0002:00002fac       _GUID_FONTBOLD             5002dfac     uuid:cguid_i.obj
 0002:00002fbc       _GUID_FONTSIZE             5002dfbc     uuid:cguid_i.obj
 0002:00002fcc       _GUID_FONTNAME             5002dfcc     uuid:cguid_i.obj
 0002:00002fdc       _GUID_CHECKVALUEEXCLUSIVE  5002dfdc     uuid:cguid_i.obj
 0002:00002fec       _GUID_OPTIONVALUEEXCLUSIVE 5002dfec     uuid:cguid_i.obj
 0002:00002ffc       _GUID_TRISTATE             5002dffc     uuid:cguid_i.obj
 0002:0000300c       _GUID_YSIZE                5002e00c     uuid:cguid_i.obj
 0002:0000301c       _GUID_XSIZE                5002e01c     uuid:cguid_i.obj
 0002:0000302c       _GUID_YPOS                 5002e02c     uuid:cguid_i.obj
 0002:0000303c       _GUID_XPOS                 5002e03c     uuid:cguid_i.obj
 0002:0000304c       _GUID_YSIZEPIXEL           5002e04c     uuid:cguid_i.obj
 0002:0000305c       _GUID_XSIZEPIXEL           5002e05c     uuid:cguid_i.obj
 0002:0000306c       _GUID_YPOSPIXEL            5002e06c     uuid:cguid_i.obj
 0002:0000307c       _GUID_XPOSPIXEL            5002e07c     uuid:cguid_i.obj
 0002:0000308c       _GUID_COLOR                5002e08c     uuid:cguid_i.obj
 0002:0000309c       _GUID_HIMETRIC             5002e09c     uuid:cguid_i.obj
 0002:000030ac       _CLSID_StdPicture          5002e0ac     uuid:cguid_i.obj
 0002:000030bc       _CLSID_StdFont             5002e0bc     uuid:cguid_i.obj
 0002:000030cc       _CLSID_ConvertVBX          5002e0cc     uuid:cguid_i.obj
 0002:000030dc       _CLSID_PersistPropset      5002e0dc     uuid:cguid_i.obj
 0002:000030ec       _CLSID_StockPicturePage    5002e0ec     uuid:cguid_i.obj
 0002:000030fc       _CLSID_StockColorPage      5002e0fc     uuid:cguid_i.obj
 0002:0000310c       _CLSID_StockFontPage       5002e10c     uuid:cguid_i.obj
 0002:0000311c       _CLSID_CPicturePropPage    5002e11c     uuid:cguid_i.obj
 0002:0000312c       _CLSID_CColorPropPage      5002e12c     uuid:cguid_i.obj
 0002:0000313c       _CLSID_CFontPropPage       5002e13c     uuid:cguid_i.obj
 0002:0000314c       _IID_IPropertyFrame        5002e14c     uuid:cguid_i.obj
 0002:0000315c       _CLSID_AddrControl         5002e15c     uuid:cguid_i.obj
 0002:0000316c       _CLSID_CurrentUserClasses  5002e16c     uuid:cguid_i.obj
 0002:0000317c       _CLSID_LocalMachineClasses 5002e17c     uuid:cguid_i.obj
 0002:0000318c       _CLSID_AllClasses          5002e18c     uuid:cguid_i.obj
 0002:0000319c       _IID_IRichEditOleCallback  5002e19c     uuid:cguid_i.obj
 0002:000031ac       _IID_IRichEditOle          5002e1ac     uuid:cguid_i.obj
 0002:000031bc       _CLSID_RemoteUnknownPSFactory 5002e1bc     uuid:cguid_i.obj
 0002:000031cc       _CLSID_InProcFreeMarshaler 5002e1cc     uuid:cguid_i.obj
 0002:000031dc       _CLSID_StdAsyncActManager  5002e1dc     uuid:cguid_i.obj
 0002:000031ec       _CLSID_ComBinding          5002e1ec     uuid:cguid_i.obj
 0002:000031fc       _CLSID_SynchronizeContainer 5002e1fc     uuid:cguid_i.obj
 0002:0000320c       _CLSID_StdEvent            5002e20c     uuid:cguid_i.obj
 0002:0000321c       _CLSID_ManualResetEvent    5002e21c     uuid:cguid_i.obj
 0002:0000322c       _CLSID_StdGlobalInterfaceTable 5002e22c     uuid:cguid_i.obj
 0002:0000323c       _CLSID_DCOMAccessControl   5002e23c     uuid:cguid_i.obj
 0002:0000324c       _CLSID_Picture_Dib         5002e24c     uuid:cguid_i.obj
 0002:0000325c       _CLSID_Picture_EnhMetafile 5002e25c     uuid:cguid_i.obj
 0002:0000326c       _CLSID_Picture_Metafile    5002e26c     uuid:cguid_i.obj
 0002:0000327c       _CLSID_StaticDib           5002e27c     uuid:cguid_i.obj
 0002:0000328c       _CLSID_StaticMetafile      5002e28c     uuid:cguid_i.obj
 0002:0000329c       _CLSID_PSEnumerators       5002e29c     uuid:cguid_i.obj
 0002:000032ac       _CLSID_PSBindCtx           5002e2ac     uuid:cguid_i.obj
 0002:000032bc       _CLSID_PSDragDrop          5002e2bc     uuid:cguid_i.obj
 0002:000032cc       _CLSID_PSInPlaceFrame      5002e2cc     uuid:cguid_i.obj
 0002:000032dc       _CLSID_PSInPlaceActive     5002e2dc     uuid:cguid_i.obj
 0002:000032ec       _CLSID_PSClassObject       5002e2ec     uuid:cguid_i.obj
 0002:000032fc       _CLSID_PSClientSite        5002e2fc     uuid:cguid_i.obj
 0002:0000330c       _CLSID_PSGenObject         5002e30c     uuid:cguid_i.obj
 0002:0000331c       _IID_IDebugStream          5002e31c     uuid:cguid_i.obj
 0002:0000332c       _IID_IDebug                5002e32c     uuid:cguid_i.obj
 0002:0000333c       _IID_IOlePresObj           5002e33c     uuid:cguid_i.obj
 0002:0000334c       _IID_IOleManager           5002e34c     uuid:cguid_i.obj
 0002:0000335c       _IID_IEnumCallback         5002e35c     uuid:cguid_i.obj
 0002:0000336c       _IID_IEnumHolder           5002e36c     uuid:cguid_i.obj
 0002:0000337c       _IID_IEnumGeneric          5002e37c     uuid:cguid_i.obj
 0002:0000338c       _IID_IProxy                5002e38c     uuid:cguid_i.obj
 0002:0000339c       _IID_IStub                 5002e39c     uuid:cguid_i.obj
 0002:000033ac       _CLSID_StdMarshal          5002e3ac     uuid:cguid_i.obj
 0002:000033bc       _IID_IDfReserved3          5002e3bc     uuid:cguid_i.obj
 0002:000033cc       _IID_IDfReserved2          5002e3cc     uuid:cguid_i.obj
 0002:000033dc       _IID_IDfReserved1          5002e3dc     uuid:cguid_i.obj
 0002:000033ec       _IID_IInternalMoniker      5002e3ec     uuid:cguid_i.obj
 0002:000033fc       _IID_IPSFactory            5002e3fc     uuid:cguid_i.obj
 0002:0000340c       _IID_IProxyManager         5002e40c     uuid:cguid_i.obj
 0002:0000341c       _IID_IRpcProxy             5002e41c     uuid:cguid_i.obj
 0002:0000342c       _IID_IStubManager          5002e42c     uuid:cguid_i.obj
 0002:0000343c       _IID_IRpcStub              5002e43c     uuid:cguid_i.obj
 0002:0000344c       _IID_IRpcChannel           5002e44c     uuid:cguid_i.obj
 0002:0000345c       _CATID_MARSHALER           5002e45c     uuid:cguid_i.obj
 0002:0000346c       _GUID_NULL                 5002e46c     uuid:cguid_i.obj
 0002:0000347c       ??_C@_0L@EHNAEJIF@dbgdel?4cpp?$AA@ 5002e47c     LIBCMTD:dbgdel.obj
 0002:00003488       ??_C@_0CH@IAGMNLOM@_BLOCK_TYPE_IS_VALID?$CIpHead?9?$DOnBlo@ 5002e488     LIBCMTD:dbgdel.obj
 0002:000034d0       ??_C@_0BO@GNIAFIKK@Unknown?5Runtime?5Check?5Error?6?$AN?$AA@ 5002e4d0     LIBCMTD:error.obj
 0002:000034f0       ??_C@_0DG@HKJMLLLP@A?5local?5variable?5was?5used?5before@ 5002e4f0     LIBCMTD:error.obj
 0002:00003528       ??_C@_0BN@FFOINMNJ@Stack?5memory?5was?5corrupted?6?$AN?$AA@ 5002e528     LIBCMTD:error.obj
 0002:00003548       ??_C@_0BBN@GPMLNJCF@A?5cast?5to?5a?5smaller?5data?5type?5ha@ 5002e548     LIBCMTD:error.obj
 0002:00003668       ??_C@_0NN@NGPKDKPD@The?5value?5of?5ESP?5was?5not?5properl@ 5002e668     LIBCMTD:error.obj
 0002:00003748       ??_C@_0CA@IODNCDPG@Run?9Time?5Check?5Failure?5?$CD?$CFd?5?9?5?$CFs?$AA@ 5002e748     LIBCMTD:error.obj
 0002:00003784       ??_C@_0L@CJCNHJJG@?6?$ANModule?3?7?$AA@ 5002e784     LIBCMTD:error.obj
 0002:00003790       ??_C@_08GJEJCAJD@?6?$ANLine?3?7?$AA@ 5002e790     LIBCMTD:error.obj
 0002:0000379c       ??_C@_0CI@INCLAPNB@Invalid?5pointer?5was?5assigned?5at?6@ 5002e79c     LIBCMTD:error.obj
 0002:000037c4       ??_C@_0BB@JEGFEAAM@?8?5was?5corrupted?4?$AA@ 5002e7c4     LIBCMTD:error.obj
 0002:000037d8       ??_C@_0BM@FGFAMDLF@Stack?5around?5the?5variable?5?8?$AA@ 5002e7d8     LIBCMTD:error.obj
 0002:000037f4       ??_C@_0DA@BEGFPCGG@A?5variable?5is?5being?5used?5without@ 5002e7f4     LIBCMTD:error.obj
 0002:00003824       ??_C@_0CH@LOIIHGKM@?8?5is?5being?5used?5without?5being?5de@ 5002e824     LIBCMTD:error.obj
 0002:0000384c       ??_C@_0P@HLKMHJCG@The?5variable?5?8?$AA@ 5002e84c     LIBCMTD:error.obj
 0002:0000385c       ??_C@_0BC@KNBMEBEO@IsDebuggerPresent?$AA@ 5002e85c     LIBCMTD:error.obj
 0002:00003870       ??_C@_0N@HAOHNMDE@Kernel32?4dll?$AA@ 5002e870     LIBCMTD:error.obj
 0002:00003880       ??_C@_0L@GDBDEHLH@threadex?4c?$AA@ 5002e880     LIBCMTD:threadex.obj
 0002:0000389c       ??_C@_0P@NFGNABCI@string?5?$CB?$DN?5NULL?$AA@ 5002e89c     LIBCMTD:sprintf.obj
 0002:000038ac       ??_C@_09FNBBCGGI@sprintf?4c?$AA@ 5002e8ac     LIBCMTD:sprintf.obj
 0002:000038b8       ??_C@_0P@NHGFNCDP@format?5?$CB?$DN?5NULL?$AA@ 5002e8b8     LIBCMTD:sprintf.obj
 0002:000038c8       ??_C@_0L@LLDHGLHK@swprintf?4c?$AA@ 5002e8c8     LIBCMTD:swprintf.obj
 0002:000038d4       ??_C@_06PJIGMIJB@Client?$AA@ 5002e8d4     LIBCMTD:dbgheap.obj
 0002:000038dc       ??_C@_06KMEJCCGM@Ignore?$AA@ 5002e8dc     LIBCMTD:dbgheap.obj
 0002:000038e4       ??_C@_03OGPFLFLO@CRT?$AA@  5002e8e4     LIBCMTD:dbgheap.obj
 0002:000038e8       ??_C@_06EFAGIKOH@Normal?$AA@ 5002e8e8     LIBCMTD:dbgheap.obj
 0002:000038f0       ??_C@_04HJMOFLDF@Free?$AA@ 5002e8f0     LIBCMTD:dbgheap.obj
 0002:00003904       ??_C@_0DC@JEMAGEKG@Error?3?5memory?5allocation?3?5bad?5me@ 5002e904     LIBCMTD:dbgheap.obj
 0002:00003938       ??_C@_0CF@BICKFLAF@Invalid?5allocation?5size?3?5?$CFIu?5byt@ 5002e938     LIBCMTD:dbgheap.obj
 0002:00003960       ??_C@_02DKCKIIND@?$CFs?$AA@ 5002e960     LIBCMTD:dbgheap.obj
 0002:00003964       ??_C@_0CB@CCLOLAHO@Client?5hook?5allocation?5failure?4?6@ 5002e964     LIBCMTD:dbgheap.obj
 0002:00003988       ??_C@_0DF@BBEGIFEK@Client?5hook?5allocation?5failure?5a@ 5002e988     LIBCMTD:dbgheap.obj
 0002:000039c0       ??_C@_09DPMMACIH@dbgheap?4c?$AA@ 5002e9c0     LIBCMTD:dbgheap.obj
 0002:000039cc       ??_C@_0BC@FKEPGOPH@_CrtCheckMemory?$CI?$CJ?$AA@ 5002e9cc     LIBCMTD:dbgheap.obj
 0002:000039ec       ??_C@_0BK@DJDKJKNJ@_pFirstBlock?5?$DN?$DN?5pOldBlock?$AA@ 5002e9ec     LIBCMTD:dbgheap.obj
 0002:00003a08       ??_C@_0BJ@PGMLBCKP@_pLastBlock?5?$DN?$DN?5pOldBlock?$AA@ 5002ea08     LIBCMTD:dbgheap.obj
 0002:00003a24       ??_C@_0DC@LIEEBBFH@fRealloc?5?$HM?$HM?5?$CI?$CBfRealloc?5?$CG?$CG?5pNewBl@ 5002ea24     LIBCMTD:dbgheap.obj
 0002:00003a58       ??_C@_0EF@BKJNHFDP@pOldBlock?9?$DOnLine?5?$DN?$DN?5IGNORE_LINE?5@ 5002ea58     LIBCMTD:dbgheap.obj
 0002:00003aa0       ??_C@_0CC@MCCNOMLK@_CrtIsValidHeapPointer?$CIpUserData@ 5002eaa0     LIBCMTD:dbgheap.obj
 0002:00003ac8       ??_C@_0EM@LGFLMAGJ@The?5Block?5at?50x?$CFp?5was?5allocated?5@ 5002eac8     LIBCMTD:dbgheap.obj
 0002:00003b14       ??_C@_0CO@KPNFNEPA@Allocation?5too?5large?5or?5negative@ 5002eb14     LIBCMTD:dbgheap.obj
 0002:00003b44       ??_C@_0CE@DOFMDOL@Client?5hook?5re?9allocation?5failur@ 5002eb44     LIBCMTD:dbgheap.obj
 0002:00003b68       ??_C@_0DI@KKJPDPGM@Client?5hook?5re?9allocation?5failur@ 5002eb68     LIBCMTD:dbgheap.obj
 0002:00003bbc       ??_C@_0BG@JDINNDDC@_pFirstBlock?5?$DN?$DN?5pHead?$AA@ 5002ebbc     LIBCMTD:dbgheap.obj
 0002:00003bd4       ??_C@_0BF@LMGMGAEG@_pLastBlock?5?$DN?$DN?5pHead?$AA@ 5002ebd4     LIBCMTD:dbgheap.obj
 0002:00003bec       ??_C@_0BO@LGCGBMOH@pHead?9?$DOnBlockUse?5?$DN?$DN?5nBlockUse?$AA@ 5002ebec     LIBCMTD:dbgheap.obj
 0002:00003c0c       ??_C@_0DN@GKKPDMLN@pHead?9?$DOnLine?5?$DN?$DN?5IGNORE_LINE?5?$CG?$CG?5p@ 5002ec0c     LIBCMTD:dbgheap.obj
 0002:00003c4c       ??_C@_0CI@CMGHMNIC@DAMAGE?3?5after?5?$CFhs?5block?5?$CI?$CD?$CFd?$CJ?5at@ 5002ec4c     LIBCMTD:dbgheap.obj
 0002:00003c74       ??_C@_0CJ@OHOOBLKI@DAMAGE?3?5before?5?$CFhs?5block?5?$CI?$CD?$CFd?$CJ?5a@ 5002ec74     LIBCMTD:dbgheap.obj
 0002:00003ca0       ??_C@_0BL@KEIPLFAC@Client?5hook?5free?5failure?4?6?$AA@ 5002eca0     LIBCMTD:dbgheap.obj
 0002:00003cc0       ??_C@_0EJ@HEIBCIMJ@The?5Block?5at?50x?$CFp?5was?5allocated?5@ 5002ecc0     LIBCMTD:dbgheap.obj
 0002:00003d2c       ??_C@_0CI@JMLBEDHJ@?$CFhs?5located?5at?50x?$CFp?5is?5?$CFIu?5bytes@ 5002ed2c     LIBCMTD:dbgheap.obj
 0002:00003d54       ??_C@_0CA@FGFAGAOM@?$CFhs?5allocated?5at?5file?5?$CFhs?$CI?$CFd?$CJ?4?6?$AA@ 5002ed54     LIBCMTD:dbgheap.obj
 0002:00003d74       ??_C@_0CH@JKKAOBEK@DAMAGE?3?5on?5top?5of?5Free?5block?5at?5@ 5002ed74     LIBCMTD:dbgheap.obj
 0002:00003d9c       ??_C@_07OHKEFPKJ@DAMAGED?$AA@ 5002ed9c     LIBCMTD:dbgheap.obj
 0002:00003da4       ??_C@_0CL@HNNNMKMJ@_heapchk?5fails?5with?5unknown?5retu@ 5002eda4     LIBCMTD:dbgheap.obj
 0002:00003dd0       ??_C@_0CC@MFFCHFHO@_heapchk?5fails?5with?5_HEAPBADPTR?4@ 5002edd0     LIBCMTD:dbgheap.obj
 0002:00003df4       ??_C@_0CC@MJGLGBDG@_heapchk?5fails?5with?5_HEAPBADEND?4@ 5002edf4     LIBCMTD:dbgheap.obj
 0002:00003e18       ??_C@_0CD@CPKEAPBD@_heapchk?5fails?5with?5_HEAPBADNODE@ 5002ee18     LIBCMTD:dbgheap.obj
 0002:00003e3c       ??_C@_0CE@MKKHMBMK@_heapchk?5fails?5with?5_HEAPBADBEGI@ 5002ee3c     LIBCMTD:dbgheap.obj
 0002:00003e9c       ??_C@_0CB@EAAIGELO@Bad?5memory?5block?5found?5at?50x?$CFp?4?6@ 5002ee9c     LIBCMTD:dbgheap.obj
 0002:00003ec0       ??_C@_0CI@KDKEAJEJ@_CrtMemCheckPoint?3?5NULL?5state?5po@ 5002eec0     LIBCMTD:dbgheap.obj
 0002:00003ef4       ??_C@_0CI@ENCLCMLG@_CrtMemDifference?3?5NULL?5state?5po@ 5002eef4     LIBCMTD:dbgheap.obj
 0002:00003f1c       ??_C@_0BH@GFGKJDCO@Object?5dump?5complete?4?6?$AA@ 5002ef1c     LIBCMTD:dbgheap.obj
 0002:00003f34       ??_C@_0DA@MDLBNIBM@crt?5block?5at?50x?$CFp?0?5subtype?5?$CFx?0?5?$CF@ 5002ef34     LIBCMTD:dbgheap.obj
 0002:00003f64       ??_C@_0CH@FAGDDGPN@normal?5block?5at?50x?$CFp?0?5?$CFIu?5bytes?5@ 5002ef64     LIBCMTD:dbgheap.obj
 0002:00003f8c       ??_C@_0DD@GHNAAKBB@client?5block?5at?50x?$CFp?0?5subtype?5?$CFx@ 5002ef8c     LIBCMTD:dbgheap.obj
 0002:00003fc0       ??_C@_06PKLGBFGM@?$HL?$CFld?$HN?5?$AA@ 5002efc0     LIBCMTD:dbgheap.obj
 0002:00003fc8       ??_C@_0L@JMEFFCCJ@?$CFhs?$CI?$CFd?$CJ?5?3?5?$AA@ 5002efc8     LIBCMTD:dbgheap.obj
 0002:00003fd4       ??_C@_0BE@OIEFNFL@?$CDFile?5Error?$CD?$CI?$CFd?$CJ?5?3?5?$AA@ 5002efd4     LIBCMTD:dbgheap.obj
 0002:00003fe8       ??_C@_0BE@KCIPKCIA@Dumping?5objects?5?9?$DO?6?$AA@ 5002efe8     LIBCMTD:dbgheap.obj
 0002:0000400c       ??_C@_0BA@HJBKCELP@?5Data?3?5?$DM?$CFs?$DO?5?$CFs?6?$AA@ 5002f00c     LIBCMTD:dbgheap.obj
 0002:0000401c       ??_C@_05MKKEDADM@?$CF?42X?5?$AA@ 5002f01c     LIBCMTD:dbgheap.obj
 0002:00004024       ??_C@_0BI@JBFPOEJA@Detected?5memory?5leaks?$CB?6?$AA@ 5002f024     LIBCMTD:dbgheap.obj
 0002:0000403c       ??_C@_0BP@DEDHGGGI@Total?5allocations?3?5?$CFId?5bytes?4?6?$AA@ 5002f03c     LIBCMTD:dbgheap.obj
 0002:0000405c       ??_C@_0CB@BLHDAFNE@Largest?5number?5used?3?5?$CFId?5bytes?4?6@ 5002f05c     LIBCMTD:dbgheap.obj
 0002:00004080       ??_C@_0BO@DACNIABB@?$CFId?5bytes?5in?5?$CFId?5?$CFhs?5Blocks?4?6?$AA@ 5002f080     LIBCMTD:dbgheap.obj
 0002:000040a0       ??_C@_0CC@GFBJAAAH@?$CI?$CCoffset?5must?5be?5within?5size?$CC?0?50@ 5002f0a0     LIBCMTD:dbgheap.obj
 0002:000040c4       ??_C@_0CF@PGBEDOC@?$CI?$CCalignment?5must?5be?5a?5power?5of?52@ 5002f0c4     LIBCMTD:dbgheap.obj
 0002:000040ec       ??_C@_0DL@PGHMMKNE@Damage?5before?50x?$CFp?5which?5was?5all@ 5002f0ec     LIBCMTD:dbgheap.obj
 0002:00004128       ??_C@_0EI@NDNJMAJK@The?5block?5at?50x?$CFp?5was?5not?5alloca@ 5002f128     LIBCMTD:dbgheap.obj
 0002:00004170       ??_C@_0EF@PGELACII@The?5block?5at?50x?$CFp?5was?5not?5alloca@ 5002f170     LIBCMTD:dbgheap.obj
 0002:000041b8       ??_C@_0L@LHGKIODD@wcstombs?4c?$AA@ 5002f1b8     LIBCMTD:wcstombs.obj
 0002:000041c4       ??_C@_0N@IJIMCPPK@pwcs?5?$CB?$DN?5NULL?$AA@ 5002f1c4     LIBCMTD:wcstombs.obj
 0002:000041d4       ??_C@_08BDNGOBJJ@fclose?4c?$AA@ 5002f1d4     LIBCMTD:fclose.obj
 0002:000041e0       ??_C@_0P@FELNCIKG@stream?5?$CB?$DN?5NULL?$AA@ 5002f1e0     LIBCMTD:fclose.obj
 0002:000041fc       ??_C@_0M@CMNAFCJK@str?5?$CB?$DN?5NULL?$AA@ 5002f1fc     LIBCMTD:fclose.obj
 0002:00004208       ??_C@_09JMJGGMME@fprintf?4c?$AA@ 5002f208     LIBCMTD:fprintf.obj
 0002:00004224       ??_C@_0BC@LDFCGPMK@?$CKmode?5?$CB?$DN?5_T?$CI?8?20?8?$CJ?$AA@ 5002f224     LIBCMTD:fopen.obj
 0002:00004238       ??_C@_0N@HDDIJGHA@mode?5?$CB?$DN?5NULL?$AA@ 5002f238     LIBCMTD:fopen.obj
 0002:00004248       ??_C@_0BC@JKMANOLD@?$CKfile?5?$CB?$DN?5_T?$CI?8?20?8?$CJ?$AA@ 5002f248     LIBCMTD:fopen.obj
 0002:0000425c       ??_C@_07MKNJDOE@fopen?4c?$AA@ 5002f25c     LIBCMTD:fopen.obj
 0002:00004264       ??_C@_0N@MBAPGNHG@file?5?$CB?$DN?5NULL?$AA@ 5002f264     LIBCMTD:fopen.obj
 0002:00004284       ??_C@_09IFKEODFF@dllcrt0?4c?$AA@ 5002f284     LIBCMTD:dllcrt0.obj
 0002:0000429c       ??_C@_0CK@CNLNOEPB@Local?5variable?5used?5before?5initi@ 5002f29c     LIBCMTD:userapi.obj
 0002:000042c8       ??_C@_0BI@CIGMDCBH@Stack?5memory?5corruption?$AA@ 5002f2c8     LIBCMTD:userapi.obj
 0002:000042e0       ??_C@_0CK@FEGOIOPB@Cast?5to?5smaller?5type?5causing?5los@ 5002f2e0     LIBCMTD:userapi.obj
 0002:0000430c       ??_C@_0BJ@HEGAHDFO@Stack?5pointer?5corruption?$AA@ 5002f30c     LIBCMTD:userapi.obj
 0002:00004328       ??_C@_0O@NJIIDJEH@i386?2chkesp?4c?$AA@ 5002f328     LIBCMTD:chkesp.obj
 0002:00004336       ??_C@_00CNPNBAHC@?$AA@     5002f336     LIBCMTD:chkesp.obj
 0002:00004338       ??_C@_0NM@DNEDKLDF@The?5value?5of?5ESP?5was?5not?5properl@ 5002f338     LIBCMTD:chkesp.obj
 0002:00004414       ??_C@_07CKDBCAPD@mlock?4c?$AA@ 5002f414     LIBCMTD:mlock.obj
 0002:0000442c       ??_C@_0BB@NAGLCMLI@Assertion?5Failed?$AA@ 5002f42c     LIBCMTD:dbgrpt.obj
 0002:00004440       ??_C@_05NAOIJFC@Error?$AA@ 5002f440     LIBCMTD:dbgrpt.obj
 0002:00004448       ??_C@_07KGMMFLDN@Warning?$AA@ 5002f448     LIBCMTD:dbgrpt.obj
 0002:00004450       ??_C@_08ODMAMGBE@dbgrpt?4c?$AA@ 5002f450     LIBCMTD:dbgrpt.obj
 0002:0000446c       ??_C@_0M@IPILFDFN@?$CFs?$CI?$CFd?$CJ?5?3?5?$CFs?$AA@ 5002f46c     LIBCMTD:dbgrpt.obj
 0002:00004478       ??_C@_01LIIJDEN@?$AN?$AA@  5002f478     LIBCMTD:dbgrpt.obj
 0002:0000447c       ??_C@_0BC@LAIDCHCH@Assertion?5failed?$CB?$AA@ 5002f47c     LIBCMTD:dbgrpt.obj
 0002:00004490       ??_C@_0BD@CAENFOHP@Assertion?5failed?3?5?$AA@ 5002f490     LIBCMTD:dbgrpt.obj
 0002:000044a4       ??_C@_0CL@EACFGMNB@_CrtDbgReport?3?5String?5too?5long?5o@ 5002f4a4     LIBCMTD:dbgrpt.obj
 0002:000044d0       ??_C@_0DC@HLHDIIKH@Second?5Chance?5Assertion?5Failed?3?5@ 5002f4d0     LIBCMTD:dbgrpt.obj
 0002:00004504       ??_C@_09FOPFMPEJ@wsprintfA?$AA@ 5002f504     LIBCMTD:dbgrpt.obj
 0002:00004510       ??_C@_0L@GMPLCCII@user32?4dll?$AA@ 5002f510     LIBCMTD:dbgrpt.obj
 0002:0000452c       ??_C@_0CD@EBCGLDDL@Microsoft?5Visual?5C?$CL?$CL?5Debug?5Libra@ 5002f52c     LIBCMTD:dbgrpt.obj
 0002:00004550       ??_C@_0FD@IIKNDPHJ@Debug?5?$CFs?$CB?6?6Program?3?5?$CFs?$CFs?$CFs?$CFs?$CFs?$CFs@ 5002f550     LIBCMTD:dbgrpt.obj
 0002:000045a4       ??_C@_09OFBFHMBK@?6Module?3?5?$AA@ 5002f5a4     LIBCMTD:dbgrpt.obj
 0002:000045b0       ??_C@_07OPHPPLBG@?6File?3?5?$AA@ 5002f5b0     LIBCMTD:dbgrpt.obj
 0002:000045b8       ??_C@_07DBMPPHDI@?6Line?3?5?$AA@ 5002f5b8     LIBCMTD:dbgrpt.obj
 0002:000045c0       ??_C@_02PHMGELLB@?6?6?$AA@ 5002f5c0     LIBCMTD:dbgrpt.obj
 0002:000045c4       ??_C@_0N@MEECIJGN@Expression?3?5?$AA@ 5002f5c4     LIBCMTD:dbgrpt.obj
 0002:000045d8       ??_C@_0HD@GNBNFCCL@?6?6For?5information?5on?5how?5your?5pr@ 5002f5d8     LIBCMTD:dbgrpt.obj
 0002:0000464c       ??_C@_03KHICJKCI@?4?4?4?$AA@ 5002f64c     LIBCMTD:dbgrpt.obj
 0002:00004650       ??_C@_0BH@DNAGHKFM@?$DMprogram?5name?5unknown?$DO?$AA@ 5002f650     LIBCMTD:dbgrpt.obj
 0002:00004668       ??_C@_0BG@IHOEIIEJ@szUserMessage?5?$CB?$DN?5NULL?$AA@ 5002f668     LIBCMTD:dbgrpt.obj
 0002:000046ec       ??_C@_0L@JKCACIOJ@tidtable?4c?$AA@ 5002f6ec     LIBCMTD:tidtable.obj
 0002:000046f8       ??_C@_07PEJMOBNF@FlsFree?$AA@ 5002f6f8     LIBCMTD:tidtable.obj
 0002:00004700       ??_C@_0M@JCPCPOEF@FlsSetValue?$AA@ 5002f700     LIBCMTD:tidtable.obj
 0002:0000470c       ??_C@_0M@GDNOONDI@FlsGetValue?$AA@ 5002f70c     LIBCMTD:tidtable.obj
 0002:00004718       ??_C@_08KNHFBNJ@FlsAlloc?$AA@ 5002f718     LIBCMTD:tidtable.obj
 0002:00004724       ??_C@_0N@MDJJJHMB@kernel32?4dll?$AA@ 5002f724     LIBCMTD:tidtable.obj
 0002:0000476c       ??_C@_0M@HHEBEAAO@MSPDB71?4DLL?$AA@ 5002f76c     LIBCMTD:pdblkup.obj
 0002:00004778       ??_C@_01KDCPPGHE@r?$AA@    5002f778     LIBCMTD:pdblkup.obj
 0002:0000477c       ??_C@_08ONJBEOFA@PDBClose?$AA@ 5002f77c     LIBCMTD:pdblkup.obj
 0002:00004788       ??_C@_08NINFAAFA@DBIClose?$AA@ 5002f788     LIBCMTD:pdblkup.obj
 0002:00004794       ??_C@_08LIGPJJNA@ModClose?$AA@ 5002f794     LIBCMTD:pdblkup.obj
 0002:000047a0       ??_C@_0O@IPLOKOKN@ModQueryLines?$AA@ 5002f7a0     LIBCMTD:pdblkup.obj
 0002:000047b0       ??_C@_0BE@GDNPNLGH@DBIQueryModFromAddr?$AA@ 5002f7b0     LIBCMTD:pdblkup.obj
 0002:000047c4       ??_C@_0L@KPMOCKEL@PDBOpenDBI?$AA@ 5002f7c4     LIBCMTD:pdblkup.obj
 0002:000047d0       ??_C@_0BB@PENKIMFE@PDBOpenValidate3?$AA@ 5002f7d0     LIBCMTD:pdblkup.obj
 0002:000047e4       ??_C@_0N@KIGOLBLC@Module32Next?$AA@ 5002f7e4     LIBCMTD:pdblkup.obj
 0002:000047f4       ??_C@_0O@CNMFJJGO@Module32First?$AA@ 5002f7f4     LIBCMTD:pdblkup.obj
 0002:00004804       ??_C@_0BF@OCLFCNKN@GetModuleInformation?$AA@ 5002f804     LIBCMTD:pdblkup.obj
 0002:0000481c       ??_C@_0BD@FIEJBLME@EnumProcessModules?$AA@ 5002f81c     LIBCMTD:pdblkup.obj
 0002:00004830       ??_C@_09EPMADGLA@PSAPI?4DLL?$AA@ 5002f830     LIBCMTD:pdblkup.obj
 0002:0000483c       ??_C@_0BJ@JEFKDHMD@CreateToolhelp32Snapshot?$AA@ 5002f83c     LIBCMTD:pdblkup.obj
 0002:00004858       ??_C@_0O@CHDGJGFP@ImageNtHeader?$AA@ 5002f858     LIBCMTD:pdblkup.obj
 0002:00004868       ??_C@_0N@KBGMOMJO@IMAGEHLP?4DLL?$AA@ 5002f868     LIBCMTD:pdblkup.obj
 0002:00004878       ??_C@_0N@NHGLKGEC@KERNEL32?4DLL?$AA@ 5002f878     LIBCMTD:pdblkup.obj
 0002:00004888       ??_C@_0BF@BMIHBHCA@EnvironmentDirectory?$AA@ 5002f888     LIBCMTD:pdblkup.obj
 0002:000048a0       ??_C@_0CN@KGLAKABH@SOFTWARE?2Microsoft?2VisualStudio?2@ 5002f8a0     LIBCMTD:pdblkup.obj
 0002:000048d0       ??_C@_0M@HLOHPNFA@RegCloseKey?$AA@ 5002f8d0     LIBCMTD:pdblkup.obj
 0002:000048dc       ??_C@_0BB@HHEIPGME@RegQueryValueExA?$AA@ 5002f8dc     LIBCMTD:pdblkup.obj
 0002:000048f0       ??_C@_0O@DCOGKJGG@RegOpenKeyExA?$AA@ 5002f8f0     LIBCMTD:pdblkup.obj
 0002:00004900       ??_C@_0N@JJPEKNFO@ADVAPI32?4DLL?$AA@ 5002f900     LIBCMTD:pdblkup.obj
 0002:0000491c       ??_C@_0P@MIGLKIOC@CorExitProcess?$AA@ 5002f91c     LIBCMTD:crt0dat.obj
 0002:0000492c       ??_C@_0M@MBOPBNBK@mscoree?4dll?$AA@ 5002f92c     LIBCMTD:crt0dat.obj
 0002:00004938       ??_C@_0DP@FICHPIPH@?$CI?$CCinconsistent?5IOB?5fields?$CC?0?5stre@ 5002f938     LIBCMTD:_flsbuf.obj
 0002:00004978       ??_C@_09DHJHPHJP@_flsbuf?4c?$AA@ 5002f978     LIBCMTD:_flsbuf.obj
 0002:00004988       ___lookuptable             5002f988     LIBCMTD:output.obj
 0002:000049e4       ??_C@_1O@CEDCILHN@?$AA?$CI?$AAn?$AAu?$AAl?$AAl?$AA?$CJ?$AA?$AA@ 5002f9e4     LIBCMTD:output.obj
 0002:000049f4       ??_C@_06OJHGLDPL@?$CInull?$CJ?$AA@ 5002f9f4     LIBCMTD:output.obj
 0002:000049fc       ??_C@_08MEPFMIND@output?4c?$AA@ 5002f9fc     LIBCMTD:output.obj
 0002:00004a08       ??_C@_0P@LGFCLPDP@ch?5?$CB?$DN?5_T?$CI?8?20?8?$CJ?$AA@ 5002fa08     LIBCMTD:output.obj
 0002:00004a18       ??_C@_0CO@OCFDICDP@f?3?2vs70builds?23077?2vc?2crtbld?2crt@ 5002fa18     LIBCMTD:woutput.obj
 0002:00004c18       ??_C@_07LCBHPJJN@LC_TIME?$AA@ 5002fc18     LIBCMTD:setlocal.obj
 0002:00004c20       ??_C@_0L@DLHIECNL@LC_NUMERIC?$AA@ 5002fc20     LIBCMTD:setlocal.obj
 0002:00004c2c       ??_C@_0M@MIENIKLA@LC_MONETARY?$AA@ 5002fc2c     LIBCMTD:setlocal.obj
 0002:00004c38       ??_C@_08EADHIDAD@LC_CTYPE?$AA@ 5002fc38     LIBCMTD:setlocal.obj
 0002:00004c44       ??_C@_0L@KFJHEKIK@LC_COLLATE?$AA@ 5002fc44     LIBCMTD:setlocal.obj
 0002:00004c50       ??_C@_06NEFDFEKB@LC_ALL?$AA@ 5002fc50     LIBCMTD:setlocal.obj
 0002:00004c64       ??_C@_0L@LEECJGMI@setlocal?4c?$AA@ 5002fc64     LIBCMTD:setlocal.obj
 0002:00004c7c       ??_C@_01ICJEACDI@?$DL?$AA@ 5002fc7c     LIBCMTD:setlocal.obj
 0002:00004c80       ??_C@_02BALPLPBG@?$DN?$DL?$AA@ 5002fc80     LIBCMTD:setlocal.obj
 0002:00004c84       ??_C@_01NEMOKFLO@?$DN?$AA@ 5002fc84     LIBCMTD:setlocal.obj
 0002:00004c88       ??_C@_03EGDHDPFD@_?4?0?$AA@ 5002fc88     LIBCMTD:setlocal.obj
 0002:00004c8c       ??_C@_01LFCBOECM@?4?$AA@   5002fc8c     LIBCMTD:setlocal.obj
 0002:00004c90       ??_C@_01IDAFKMJL@_?$AA@    5002fc90     LIBCMTD:setlocal.obj
 0002:00004c94       ??_C@_09BLOOPMDK@isctype?4c?$AA@ 5002fc94     LIBCMTD:isctype.obj
 0002:00004ca0       ??_C@_0BJ@IAKBGELC@?$CIunsigned?$CJ?$CIc?5?$CL?51?$CJ?5?$DM?$DN?5256?$AA@ 5002fca0     LIBCMTD:isctype.obj
 0002:00004ccc       ??_C@_07PNHPCIEC@_file?4c?$AA@ 5002fccc     LIBCMTD:_file.obj
 0002:00004ce4       ??_C@_0L@CKFHAPLH@_freebuf?4c?$AA@ 5002fce4     LIBCMTD:_freebuf.obj
 0002:00004d18       ??_C@_09IFKHNCOH@_sftbuf?4c?$AA@ 5002fd18     LIBCMTD:_sftbuf.obj
 0002:00004d24       ??_C@_0BH@HIGALIFJ@flag?5?$DN?$DN?50?5?$HM?$HM?5flag?5?$DN?$DN?51?$AA@ 5002fd24     LIBCMTD:_sftbuf.obj
 0002:00004d3c       ??_C@_07JGCPNLLC@_open?4c?$AA@ 5002fd3c     LIBCMTD:_open.obj
 0002:00004d44       ??_C@_0BB@KFELMOAG@filename?5?$CB?$DN?5NULL?$AA@ 5002fd44     LIBCMTD:_open.obj
 0002:00004d58       ??_C@_08MKBBPGGN@stream?4c?$AA@ 5002fd58     LIBCMTD:stream.obj
 0002:00004d74       ??_C@_08MAFBHINM@ioinit?4c?$AA@ 5002fd74     LIBCMTD:ioinit.obj
 0002:00004d80       ??_C@_09HCDLHOJP@stdenvp?4c?$AA@ 5002fd80     LIBCMTD:stdenvp.obj
 0002:00004d8c       ??_C@_09IKILHJIC@stdargv?4c?$AA@ 5002fd8c     LIBCMTD:stdargv.obj
 0002:00004d98       ??_C@_07BPGNOCOG@a_env?4c?$AA@ 5002fd98     LIBCMTD:a_env.obj
 0002:00004dbc       ??_C@_0P@GGKDKEEG@runtime?5error?5?$AA@ 5002fdbc     LIBCMTD:crt0msg.obj
 0002:00004dcc       ??_C@_02PCIJFNDE@?$AN?6?$AA@ 5002fdcc     LIBCMTD:crt0msg.obj
 0002:00004dd0       ??_C@_0O@MJNIPGOH@TLOSS?5error?$AN?6?$AA@ 5002fdd0     LIBCMTD:crt0msg.obj
 0002:00004de0       ??_C@_0N@BONNPDHF@SING?5error?$AN?6?$AA@ 5002fde0     LIBCMTD:crt0msg.obj
 0002:00004df0       ??_C@_0P@MBDAJNE@DOMAIN?5error?$AN?6?$AA@ 5002fdf0     LIBCMTD:crt0msg.obj
 0002:00004e00       ??_C@_0KC@BDDGGBEJ@R6029?$AN?6?9?5This?5application?5cannot@ 5002fe00     LIBCMTD:crt0msg.obj
 0002:00004ea4       ??_C@_0CF@KJDAIALP@R6028?$AN?6?9?5unable?5to?5initialize?5he@ 5002fea4     LIBCMTD:crt0msg.obj
 0002:00004ecc       ??_C@_0DF@GAKBPDFP@R6027?$AN?6?9?5not?5enough?5space?5for?5lo@ 5002fecc     LIBCMTD:crt0msg.obj
 0002:00004f04       ??_C@_0DF@IBLNNAIG@R6026?$AN?6?9?5not?5enough?5space?5for?5st@ 5002ff04     LIBCMTD:crt0msg.obj
 0002:00004f3c       ??_C@_0CG@IOHKGFNJ@R6025?$AN?6?9?5pure?5virtual?5function?5c@ 5002ff3c     LIBCMTD:crt0msg.obj
 0002:00004f64       ??_C@_0DF@JIJJFJDC@R6024?$AN?6?9?5not?5enough?5space?5for?5_o@ 5002ff64     LIBCMTD:crt0msg.obj
 0002:00004f9c       ??_C@_0CJ@EGEJHFME@R6019?$AN?6?9?5unable?5to?5open?5console?5@ 5002ff9c     LIBCMTD:crt0msg.obj
 0002:00004fc8       ??_C@_0CB@GNHNIELH@R6018?$AN?6?9?5unexpected?5heap?5error?$AN?6@ 5002ffc8     LIBCMTD:crt0msg.obj
 0002:00004fec       ??_C@_0CN@FOLDKNG@R6017?$AN?6?9?5unexpected?5multithread?5@ 5002ffec     LIBCMTD:crt0msg.obj
 0002:0000501c       ??_C@_0CM@FAHFJNHO@R6016?$AN?6?9?5not?5enough?5space?5for?5th@ 5003001c     LIBCMTD:crt0msg.obj
 0002:00005048       ??_C@_0JG@LBKMGKLD@?$AN?6This?5application?5has?5requested@ 50030048     LIBCMTD:crt0msg.obj
 0002:000050e0       ??_C@_0CM@FLCNIPKK@R6009?$AN?6?9?5not?5enough?5space?5for?5en@ 500300e0     LIBCMTD:crt0msg.obj
 0002:0000510c       ??_C@_0CK@KMMJOAPP@R6008?$AN?6?9?5not?5enough?5space?5for?5ar@ 5003010c     LIBCMTD:crt0msg.obj
 0002:00005138       ??_C@_0CF@HOHMHDEK@R6002?$AN?6?9?5floating?5point?5not?5load@ 50030138     LIBCMTD:crt0msg.obj
 0002:00005160       ??_C@_0CF@GOGNBNAK@Microsoft?5Visual?5C?$CL?$CL?5Runtime?5Lib@ 50030160     LIBCMTD:crt0msg.obj
 0002:00005188       ??_C@_0BK@OFGJDLJJ@Runtime?5Error?$CB?6?6Program?3?5?$AA@ 50030188     LIBCMTD:crt0msg.obj
 0002:000051a4       ??_C@_0CG@PKBDLMEO@InitializeCriticalSectionAndSpin@ 500301a4     LIBCMTD:initcrit.obj
 0002:000051dc       ??_C@_0CP@PEILCOHB@f?3?2vs70builds?23077?2vc?2crtbld?2crt@ 500301dc     LIBCMTD:snprintf.obj
 0002:0000520c       ??_C@_0DA@KHEJFFIK@f?3?2vs70builds?23077?2vc?2crtbld?2crt@ 5003020c     LIBCMTD:vsnprint.obj
 0002:0000523c       ??_C@_08FKHPDPAC@winsig?4c?$AA@ 5003023c     LIBCMTD:winsig.obj
 0002:00005274       ??_C@_0BI@DFKBFLJE@GetProcessWindowStation?$AA@ 50030274     LIBCMTD:crtmbox.obj
 0002:0000528c       ??_C@_0BK@CIDNPOGP@GetUserObjectInformationA?$AA@ 5003028c     LIBCMTD:crtmbox.obj
 0002:000052a8       ??_C@_0BD@HHGDFDBJ@GetLastActivePopup?$AA@ 500302a8     LIBCMTD:crtmbox.obj
 0002:000052bc       ??_C@_0BA@HNOPNCHB@GetActiveWindow?$AA@ 500302bc     LIBCMTD:crtmbox.obj
 0002:000052cc       ??_C@_0M@CHKKJDAI@MessageBoxA?$AA@ 500302cc     LIBCMTD:crtmbox.obj
 0002:000052e4       ??_C@_09KJLOAKHC@mbctype?4c?$AA@ 500302e4     LIBCMTD:mbctype.obj
 0002:0000530c       ??_C@_08GNMOIKDK@onexit?4c?$AA@ 5003030c     LIBCMTD:onexit.obj
 0002:00005334       ??_C@_09PKAEMGHJ@_getbuf?4c?$AA@ 50030334     LIBCMTD:_getbuf.obj
 0002:00005340       ___newctype                50030340     LIBCMTD:ctype.obj
 0002:00005640       __wctype                   50030640     LIBCMTD:ctype.obj
 0002:00005844       ??_C@_08NJPDFEGP@mbtowc?4c?$AA@ 50030844     LIBCMTD:mbtowc.obj
 0002:00005850       ??_C@_0DD@FIIGOHOA@ptloci?9?$DOmb_cur_max?5?$DN?$DN?51?5?$HM?$HM?5ptloc@ 50030850     LIBCMTD:mbtowc.obj
 0002:00005884       ??_C@_08KKFOAFAI@fputwc?4c?$AA@ 50030884     LIBCMTD:fputwc.obj
 0002:0000589c       ??_C@_08JCCMCCIL@HH?3mm?3ss?$AA@ 5003089c     LIBCMTD:strftime.obj
 0002:000058a8       ??_C@_0BE@CKGJFCPC@dddd?0?5MMMM?5dd?0?5yyyy?$AA@ 500308a8     LIBCMTD:strftime.obj
 0002:000058bc       ??_C@_08BPBNCDIB@MM?1dd?1yy?$AA@ 500308bc     LIBCMTD:strftime.obj
 0002:000058c8       ??_C@_02CJNFDJBF@PM?$AA@   500308c8     LIBCMTD:strftime.obj
 0002:000058cc       ??_C@_02DEDBPAFC@AM?$AA@   500308cc     LIBCMTD:strftime.obj
 0002:000058d0       ??_C@_08EDHMEBNP@December?$AA@ 500308d0     LIBCMTD:strftime.obj
 0002:000058dc       ??_C@_08HCHEGEOA@November?$AA@ 500308dc     LIBCMTD:strftime.obj
 0002:000058e8       ??_C@_07JJNFCEND@October?$AA@ 500308e8     LIBCMTD:strftime.obj
 0002:000058f0       ??_C@_09BHHEALKD@September?$AA@ 500308f0     LIBCMTD:strftime.obj
 0002:000058fc       ??_C@_06LBBHFDDG@August?$AA@ 500308fc     LIBCMTD:strftime.obj
 0002:00005904       ??_C@_04MIEPOIFP@July?$AA@ 50030904     LIBCMTD:strftime.obj
 0002:0000590c       ??_C@_04CNLMGBGM@June?$AA@ 5003090c     LIBCMTD:strftime.obj
 0002:00005914       ??_C@_05DMJDNLEJ@April?$AA@ 50030914     LIBCMTD:strftime.obj
 0002:0000591c       ??_C@_05HPCKOFNC@March?$AA@ 5003091c     LIBCMTD:strftime.obj
 0002:00005924       ??_C@_08GNJGEPFN@February?$AA@ 50030924     LIBCMTD:strftime.obj
 0002:00005930       ??_C@_07CGJPFGJA@January?$AA@ 50030930     LIBCMTD:strftime.obj
 0002:00005938       ??_C@_03MKABNOCG@Dec?$AA@  50030938     LIBCMTD:strftime.obj
 0002:0000593c       ??_C@_03JPJOFNIA@Nov?$AA@  5003093c     LIBCMTD:strftime.obj
 0002:00005940       ??_C@_03BMAOKBAD@Oct?$AA@  50030940     LIBCMTD:strftime.obj
 0002:00005944       ??_C@_03GGCAPAJC@Sep?$AA@  50030944     LIBCMTD:strftime.obj
 0002:00005948       ??_C@_03IFJFEIGA@Aug?$AA@  50030948     LIBCMTD:strftime.obj
 0002:0000594c       ??_C@_03LBGABGKK@Jul?$AA@  5003094c     LIBCMTD:strftime.obj
 0002:00005950       ??_C@_03IDFGHECI@Jun?$AA@  50030950     LIBCMTD:strftime.obj
 0002:00005954       ??_C@_03CNMDKL@May?$AA@    50030954     LIBCMTD:strftime.obj
 0002:00005958       ??_C@_03LEOLGMJP@Apr?$AA@  50030958     LIBCMTD:strftime.obj
 0002:0000595c       ??_C@_03ODNJBKGA@Mar?$AA@  5003095c     LIBCMTD:strftime.obj
 0002:00005960       ??_C@_03HJBDCHOM@Feb?$AA@  50030960     LIBCMTD:strftime.obj
 0002:00005964       ??_C@_03JIHJHPIE@Jan?$AA@  50030964     LIBCMTD:strftime.obj
 0002:00005968       ??_C@_08INBOOONO@Saturday?$AA@ 50030968     LIBCMTD:strftime.obj
 0002:00005974       ??_C@_06JECMNKMI@Friday?$AA@ 50030974     LIBCMTD:strftime.obj
 0002:0000597c       ??_C@_08HACCIKIA@Thursday?$AA@ 5003097c     LIBCMTD:strftime.obj
 0002:00005988       ??_C@_09DLIGFAKA@Wednesday?$AA@ 50030988     LIBCMTD:strftime.obj
 0002:00005994       ??_C@_07BAAGCFCM@Tuesday?$AA@ 50030994     LIBCMTD:strftime.obj
 0002:0000599c       ??_C@_06JLEDEDGH@Monday?$AA@ 5003099c     LIBCMTD:strftime.obj
 0002:000059a4       ??_C@_06OOPIFAJ@Sunday?$AA@ 500309a4     LIBCMTD:strftime.obj
 0002:000059ac       ??_C@_03FEFJNEK@Sat?$AA@   500309ac     LIBCMTD:strftime.obj
 0002:000059b0       ??_C@_03IDIOELNC@Fri?$AA@  500309b0     LIBCMTD:strftime.obj
 0002:000059b4       ??_C@_03IOFIKPDN@Thu?$AA@  500309b4     LIBCMTD:strftime.obj
 0002:000059b8       ??_C@_03MHOMLAJA@Wed?$AA@  500309b8     LIBCMTD:strftime.obj
 0002:000059bc       ??_C@_03NAGEINEP@Tue?$AA@  500309bc     LIBCMTD:strftime.obj
 0002:000059c0       ??_C@_03PDAGKDH@Mon?$AA@   500309c0     LIBCMTD:strftime.obj
 0002:000059c4       ??_C@_03KOEHGMDN@Sun?$AA@  500309c4     LIBCMTD:strftime.obj
 0002:000059c8       ??_C@_0L@OCEOFAIF@strftime?4c?$AA@ 500309c8     LIBCMTD:strftime.obj
 0002:000059d4       ??_C@_0DJ@BLPIACFC@?$CI?$CCInvalid?5MBCS?5character?5sequenc@ 500309d4     LIBCMTD:strftime.obj
 0002:00005a10       ??_C@_0DD@GLPHLKIC@?$CI?$CCZero?5length?5output?5buffer?5pass@ 50030a10     LIBCMTD:strftime.obj
 0002:00005a44       ??_C@_0DL@LLHFCBKO@?$CI?$CCInvalid?5MBCS?5character?5sequenc@ 50030a44     LIBCMTD:strftime.obj
 0002:00005a80       ??_C@_0EC@CJNAOFBG@?$CI?$CCInvalid?5MBCS?5character?5sequenc@ 50030a80     LIBCMTD:strftime.obj
 0002:00005ac4       ??_C@_03EBAPMIKO@a?1p?$AA@ 50030ac4     LIBCMTD:strftime.obj
 0002:00005ac8       ??_C@_05JAMEPDIN@am?1pm?$AA@ 50030ac8     LIBCMTD:strftime.obj
 0002:00005adc       ??_C@_0L@IOJADHBB@inittime?4c?$AA@ 50030adc     LIBCMTD:inittime.obj
 0002:00005ae8       ??_C@_09MECGNAGI@initnum?4c?$AA@ 50030ae8     LIBCMTD:initnum.obj
 0002:00005af4       ??_C@_09HKFHICAL@initmon?4c?$AA@ 50030af4     LIBCMTD:initmon.obj
 0002:00005b00       ??_C@_0L@GBAGBCPL@initctyp?4c?$AA@ 50030b00     LIBCMTD:initctyp.obj
 0002:00005b0c       ??_C@_07GPNABLBE@a_str?4c?$AA@ 50030b0c     LIBCMTD:a_str.obj
 0002:00005b14       ??_C@_13NOLLCAOD@?$AA?$AA?$AA?$AA@ 50030b14     LIBCMTD:a_str.obj
 0002:00005b28       ___rgLocInfo               50030b28     LIBCMTD:getqloc.obj
 0002:00005fcc       ??_C@_08PKBIPKE@Paraguay?$AA@ 50030fcc     LIBCMTD:getqloc.obj
 0002:00005fd8       ??_C@_07GHBIBIBP@Uruguay?$AA@ 50030fd8     LIBCMTD:getqloc.obj
 0002:00005fe0       ??_C@_05HBNKAPDN@Chile?$AA@ 50030fe0     LIBCMTD:getqloc.obj
 0002:00005fe8       ??_C@_07FEIFIPNF@Ecuador?$AA@ 50030fe8     LIBCMTD:getqloc.obj
 0002:00005ff0       ??_C@_09PGNFPGME@Argentina?$AA@ 50030ff0     LIBCMTD:getqloc.obj
 0002:00005ffc       ??_C@_04IALPBJF@Peru?$AA@  50030ffc     LIBCMTD:getqloc.obj
 0002:00006004       ??_C@_08IJPLNLKH@Colombia?$AA@ 50031004     LIBCMTD:getqloc.obj
 0002:00006010       ??_C@_09IDMFKCN@Venezuela?$AA@ 50031010     LIBCMTD:getqloc.obj
 0002:0000601c       ??_C@_0BD@DNEJOGOK@Dominican?5Republic?$AA@ 5003101c     LIBCMTD:getqloc.obj
 0002:00006030       ??_C@_0N@LPINDNDB@South?5Africa?$AA@ 50031030     LIBCMTD:getqloc.obj
 0002:00006040       ??_C@_06BLJPEOBG@Panama?$AA@ 50031040     LIBCMTD:getqloc.obj
 0002:00006048       ??_C@_0L@BOCNDGON@Luxembourg?$AA@ 50031048     LIBCMTD:getqloc.obj
 0002:00006054       ??_C@_0L@CONEHKA@Costa?5Rica?$AA@ 50031054     LIBCMTD:getqloc.obj
 0002:00006060       ??_C@_0M@KGBPELAM@Switzerland?$AA@ 50031060     LIBCMTD:getqloc.obj
 0002:0000606c       ??_C@_09FJGLIMAG@Guatemala?$AA@ 5003106c     LIBCMTD:getqloc.obj
 0002:00006078       ??_C@_06ECHIPDMK@Canada?$AA@ 50031078     LIBCMTD:getqloc.obj
 0002:00006080       ??_C@_0BG@CCEBNPGH@Spanish?5?9?5Modern?5Sort?$AA@ 50031080     LIBCMTD:getqloc.obj
 0002:00006098       ??_C@_09EFGJAPAD@Australia?$AA@ 50031098     LIBCMTD:getqloc.obj
 0002:000060a4       ??_C@_07NEKHPBCG@English?$AA@ 500310a4     LIBCMTD:getqloc.obj
 0002:000060ac       ??_C@_07LKIIOGFH@Austria?$AA@ 500310ac     LIBCMTD:getqloc.obj
 0002:000060b4       ??_C@_06EDDDIONA@German?$AA@ 500310b4     LIBCMTD:getqloc.obj
 0002:000060bc       ??_C@_07LIIIOFOA@Belgium?$AA@ 500310bc     LIBCMTD:getqloc.obj
 0002:000060c4       ??_C@_06DIAOLLEH@Mexico?$AA@ 500310c4     LIBCMTD:getqloc.obj
 0002:000060cc       ??_C@_07PFALJOGE@Spanish?$AA@ 500310cc     LIBCMTD:getqloc.obj
 0002:000060d4       ??_C@_06FFOOPAJB@Basque?$AA@ 500310d4     LIBCMTD:getqloc.obj
 0002:000060dc       ??_C@_06DGHNDJFJ@Sweden?$AA@ 500310dc     LIBCMTD:getqloc.obj
 0002:000060e4       ??_C@_07OBINPKFN@Swedish?$AA@ 500310e4     LIBCMTD:getqloc.obj
 0002:000060ec       ??_C@_07NCOIHDGC@Iceland?$AA@ 500310ec     LIBCMTD:getqloc.obj
 0002:000060f4       ??_C@_09JHBBDDIA@Icelandic?$AA@ 500310f4     LIBCMTD:getqloc.obj
 0002:00006100       ??_C@_06COBCPIFO@France?$AA@ 50031100     LIBCMTD:getqloc.obj
 0002:00006108       ??_C@_06GODMCAND@French?$AA@ 50031108     LIBCMTD:getqloc.obj
 0002:00006110       ??_C@_07MFHPMOED@Finland?$AA@ 50031110     LIBCMTD:getqloc.obj
 0002:00006118       ??_C@_07MCEAMKOD@Finnish?$AA@ 50031118     LIBCMTD:getqloc.obj
 0002:00006120       ??_C@_05CBHOCCK@Spain?$AA@ 50031120     LIBCMTD:getqloc.obj
 0002:00006128       ??_C@_0BL@GIOEGDHB@Spanish?5?9?5Traditional?5Sort?$AA@ 50031128     LIBCMTD:getqloc.obj
 0002:00006144       ___rglangidNotDefault      50031144     LIBCMTD:getqloc.obj
 0002:00006158       ___rg_country              50031158     LIBCMTD:getqloc.obj
 0002:00006210       ??_C@_0O@FMJNFNKE@united?9states?$AA@ 50031210     LIBCMTD:getqloc.obj
 0002:00006220       ??_C@_0P@NDHFFKCA@united?9kingdom?$AA@ 50031220     LIBCMTD:getqloc.obj
 0002:00006230       ??_C@_0BC@HHDADLGF@trinidad?5?$CG?5tobago?$AA@ 50031230     LIBCMTD:getqloc.obj
 0002:00006244       ??_C@_0M@IOAEBDAC@south?9korea?$AA@ 50031244     LIBCMTD:getqloc.obj
 0002:00006250       ??_C@_0N@FIELFKIJ@south?9africa?$AA@ 50031250     LIBCMTD:getqloc.obj
 0002:00006260       ??_C@_0M@OPNDHCMC@south?5korea?$AA@ 50031260     LIBCMTD:getqloc.obj
 0002:0000626c       ??_C@_0N@MDEOEPFI@south?5africa?$AA@ 5003126c     LIBCMTD:getqloc.obj
 0002:0000627c       ??_C@_06FKAPCJLB@slovak?$AA@ 5003127c     LIBCMTD:getqloc.obj
 0002:00006284       ??_C@_0M@EFJANOAL@puerto?9rico?$AA@ 50031284     LIBCMTD:getqloc.obj
 0002:00006290       ??_C@_08PGOJKDAI@pr?9china?$AA@ 50031290     LIBCMTD:getqloc.obj
 0002:0000629c       ??_C@_08JHDOMCMI@pr?5china?$AA@ 5003129c     LIBCMTD:getqloc.obj
 0002:000062a8       ??_C@_02JHCHFBLL@nz?$AA@   500312a8     LIBCMTD:getqloc.obj
 0002:000062ac       ??_C@_0M@LINHDHKP@new?9zealand?$AA@ 500312ac     LIBCMTD:getqloc.obj
 0002:000062b8       ??_C@_09IIIPPBDB@hong?9kong?$AA@ 500312b8     LIBCMTD:getqloc.obj
 0002:000062c4       ??_C@_07HJLCKBG@holland?$AA@ 500312c4     LIBCMTD:getqloc.obj
 0002:000062cc       ??_C@_0O@LEHGMHAG@great?5britain?$AA@ 500312cc     LIBCMTD:getqloc.obj
 0002:000062dc       ??_C@_07FACOMELA@england?$AA@ 500312dc     LIBCMTD:getqloc.obj
 0002:000062e4       ??_C@_05JIHCEICB@czech?$AA@ 500312e4     LIBCMTD:getqloc.obj
 0002:000062ec       ??_C@_05BBJOBLGB@china?$AA@ 500312ec     LIBCMTD:getqloc.obj
 0002:000062f4       ??_C@_07GPKPHICP@britain?$AA@ 500312f4     LIBCMTD:getqloc.obj
 0002:000062fc       ??_C@_07MHIPBHMG@america?$AA@ 500312fc     LIBCMTD:getqloc.obj
 0002:00006308       ___rg_language             50031308     LIBCMTD:getqloc.obj
 0002:00006510       ??_C@_03KIALPMKC@usa?$AA@  50031510     LIBCMTD:getqloc.obj
 0002:00006514       ??_C@_02FGJGKGGD@us?$AA@   50031514     LIBCMTD:getqloc.obj
 0002:00006518       ??_C@_02NEINDODK@uk?$AA@   50031518     LIBCMTD:getqloc.obj
 0002:0000651c       ??_C@_05JMPCFJFJ@swiss?$AA@ 5003151c     LIBCMTD:getqloc.obj
 0002:00006524       ??_C@_0BA@HLOCPIOD@swedish?9finland?$AA@ 50031524     LIBCMTD:getqloc.obj
 0002:00006534       ??_C@_0BC@PKCNIABK@spanish?9venezuela?$AA@ 50031534     LIBCMTD:getqloc.obj
 0002:00006548       ??_C@_0BA@GBHHMIJI@spanish?9uruguay?$AA@ 50031548     LIBCMTD:getqloc.obj
 0002:00006558       ??_C@_0BE@BHDOHPMC@spanish?9puerto?5rico?$AA@ 50031558     LIBCMTD:getqloc.obj
 0002:0000656c       ??_C@_0N@KMOIDGGN@spanish?9peru?$AA@ 5003156c     LIBCMTD:getqloc.obj
 0002:0000657c       ??_C@_0BB@HMHLPGPH@spanish?9paraguay?$AA@ 5003157c     LIBCMTD:getqloc.obj
 0002:00006590       ??_C@_0P@MCPKNGFD@spanish?9panama?$AA@ 50031590     LIBCMTD:getqloc.obj
 0002:000065a0       ??_C@_0BC@IHOHGAIL@spanish?9nicaragua?$AA@ 500315a0     LIBCMTD:getqloc.obj
 0002:000065b4       ??_C@_0P@KLMJDNFJ@spanish?9modern?$AA@ 500315b4     LIBCMTD:getqloc.obj
 0002:000065c4       ??_C@_0BA@BPAPGBCM@spanish?9mexican?$AA@ 500315c4     LIBCMTD:getqloc.obj
 0002:000065d4       ??_C@_0BB@PDECHHHE@spanish?9honduras?$AA@ 500315d4     LIBCMTD:getqloc.obj
 0002:000065e8       ??_C@_0BC@KLHKFGDB@spanish?9guatemala?$AA@ 500315e8     LIBCMTD:getqloc.obj
 0002:000065fc       ??_C@_0BE@MFOOKJAI@spanish?9el?5salvador?$AA@ 500315fc     LIBCMTD:getqloc.obj
 0002:00006610       ??_C@_0BA@FCOKFPFC@spanish?9ecuador?$AA@ 50031610     LIBCMTD:getqloc.obj
 0002:00006620       ??_C@_0BL@PLMGIMOO@spanish?9dominican?5republic?$AA@ 50031620     LIBCMTD:getqloc.obj
 0002:0000663c       ??_C@_0BD@HLGDNMHB@spanish?9costa?5rica?$AA@ 5003163c     LIBCMTD:getqloc.obj
 0002:00006650       ??_C@_0BB@PKCBKCPE@spanish?9colombia?$AA@ 50031650     LIBCMTD:getqloc.obj
 0002:00006664       ??_C@_0O@MCBIJGNE@spanish?9chile?$AA@ 50031664     LIBCMTD:getqloc.obj
 0002:00006674       ??_C@_0BA@BEFEIGJJ@spanish?9bolivia?$AA@ 50031674     LIBCMTD:getqloc.obj
 0002:00006684       ??_C@_0BC@EMECMPD@spanish?9argentina?$AA@ 50031684     LIBCMTD:getqloc.obj
 0002:00006698       ??_C@_0BF@EALFLENP@portuguese?9brazilian?$AA@ 50031698     LIBCMTD:getqloc.obj
 0002:000066b0       ??_C@_0BC@HBLEBLNN@norwegian?9nynorsk?$AA@ 500316b0     LIBCMTD:getqloc.obj
 0002:000066c4       ??_C@_0BB@HMACDDCK@norwegian?9bokmal?$AA@ 500316c4     LIBCMTD:getqloc.obj
 0002:000066d8       ??_C@_09BAFFPPHE@norwegian?$AA@ 500316d8     LIBCMTD:getqloc.obj
 0002:000066e4       ??_C@_0O@EAJFJDFG@italian?9swiss?$AA@ 500316e4     LIBCMTD:getqloc.obj
 0002:000066f4       ??_C@_0O@CNOMPGD@irish?9english?$AA@ 500316f4     LIBCMTD:getqloc.obj
 0002:00006704       ??_C@_0N@EDHBGCKG@german?9swiss?$AA@ 50031704     LIBCMTD:getqloc.obj
 0002:00006714       ??_C@_0BC@JACMHNBP@german?9luxembourg?$AA@ 50031714     LIBCMTD:getqloc.obj
 0002:00006728       ??_C@_0BE@HBGMGFEG@german?9lichtenstein?$AA@ 50031728     LIBCMTD:getqloc.obj
 0002:0000673c       ??_C@_0BA@HKKBIBKL@german?9austrian?$AA@ 5003173c     LIBCMTD:getqloc.obj
 0002:0000674c       ??_C@_0N@GCAEPEBK@french?9swiss?$AA@ 5003174c     LIBCMTD:getqloc.obj
 0002:0000675c       ??_C@_0BC@DJFJJCK@french?9luxembourg?$AA@ 5003175c     LIBCMTD:getqloc.obj
 0002:00006770       ??_C@_0BA@NNCEDFIC@french?9canadian?$AA@ 50031770     LIBCMTD:getqloc.obj
 0002:00006780       ??_C@_0P@CMPOCLM@french?9belgian?$AA@ 50031780     LIBCMTD:getqloc.obj
 0002:00006790       ??_C@_0M@GHHDJOK@english?9usa?$AA@ 50031790     LIBCMTD:getqloc.obj
 0002:0000679c       ??_C@_0L@PLDJKEIL@english?9us?$AA@ 5003179c     LIBCMTD:getqloc.obj
 0002:000067a8       ??_C@_0L@HJCCDMNC@english?9uk?$AA@ 500317a8     LIBCMTD:getqloc.obj
 0002:000067b4       ??_C@_0BK@CKLIAGJB@english?9trinidad?5y?5tobago?$AA@ 500317b4     LIBCMTD:getqloc.obj
 0002:000067d0       ??_C@_0BF@JMJMGNNF@english?9south?5africa?$AA@ 500317d0     LIBCMTD:getqloc.obj
 0002:000067e8       ??_C@_0L@DKIIFDFD@english?9nz?$AA@ 500317e8     LIBCMTD:getqloc.obj
 0002:000067f4       ??_C@_0BA@ONHGJCLH@english?9jamaica?$AA@ 500317f4     LIBCMTD:getqloc.obj
 0002:00006804       ??_C@_0M@HJBGHOPO@english?9ire?$AA@ 50031804     LIBCMTD:getqloc.obj
 0002:00006810       ??_C@_0BC@LFEKMIFB@english?9caribbean?$AA@ 50031810     LIBCMTD:getqloc.obj
 0002:00006824       ??_C@_0M@OLDPFKHI@english?9can?$AA@ 50031824     LIBCMTD:getqloc.obj
 0002:00006830       ??_C@_0P@OMDEHBMP@english?9belize?$AA@ 50031830     LIBCMTD:getqloc.obj
 0002:00006840       ??_C@_0M@KFHFPFED@english?9aus?$AA@ 50031840     LIBCMTD:getqloc.obj
 0002:0000684c       ??_C@_0BB@MNMBKDFE@english?9american?$AA@ 5003184c     LIBCMTD:getqloc.obj
 0002:00006860       ??_C@_0O@KIDLNNBA@dutch?9belgian?$AA@ 50031860     LIBCMTD:getqloc.obj
 0002:00006870       ??_C@_0BE@JBKABBMH@chinese?9traditional?$AA@ 50031870     LIBCMTD:getqloc.obj
 0002:00006884       ??_C@_0BC@MJJMPKCG@chinese?9singapore?$AA@ 50031884     LIBCMTD:getqloc.obj
 0002:00006898       ??_C@_0BD@FDKADDCP@chinese?9simplified?$AA@ 50031898     LIBCMTD:getqloc.obj
 0002:000068ac       ??_C@_0BB@DBEFDDME@chinese?9hongkong?$AA@ 500318ac     LIBCMTD:getqloc.obj
 0002:000068c0       ??_C@_07DHNMFMCI@chinese?$AA@ 500318c0     LIBCMTD:getqloc.obj
 0002:000068c8       ??_C@_03FNDDCHI@chi?$AA@   500318c8     LIBCMTD:getqloc.obj
 0002:000068cc       ??_C@_03BMMIADDJ@chh?$AA@  500318cc     LIBCMTD:getqloc.obj
 0002:000068d0       ??_C@_08OAIPJDGI@canadian?$AA@ 500318d0     LIBCMTD:getqloc.obj
 0002:000068dc       ??_C@_07HBPMNPNJ@belgian?$AA@ 500318dc     LIBCMTD:getqloc.obj
 0002:000068e4       ??_C@_0L@OEKOPBEL@australian?$AA@ 500318e4     LIBCMTD:getqloc.obj
 0002:000068f0       ??_C@_0BB@MEIMBEDG@american?9english?$AA@ 500318f0     LIBCMTD:getqloc.obj
 0002:00006904       ??_C@_0BB@DFMDPDGB@american?5english?$AA@ 50031904     LIBCMTD:getqloc.obj
 0002:00006918       ??_C@_08IJLOKOLL@american?$AA@ 50031918     LIBCMTD:getqloc.obj
 0002:00006924       ??_C@_0BC@NFIEMBLL@Norwegian?9Nynorsk?$AA@ 50031924     LIBCMTD:getqloc.obj
 0002:00006938       ??_C@_03NFKLAGEF@OCP?$AA@  50031938     LIBCMTD:getqloc.obj
 0002:0000693c       ??_C@_03DFHEHBHG@ACP?$AA@  5003193c     LIBCMTD:getqloc.obj
 0002:00006940       ??_C@_09KLGCKDOD@Program?3?5?$AA@ 50031940     LIBCMTD:secfail.obj
 0002:00006950       ??_C@_0KA@JEHFIFGP@A?5buffer?5overrun?5has?5been?5detect@ 50031950     LIBCMTD:secfail.obj
 0002:000069f0       ??_C@_0BJ@MDEKIEOJ@Buffer?5overrun?5detected?$CB?$AA@ 500319f0     LIBCMTD:secfail.obj
 0002:00006a10       ??_C@_0LB@BPLHHLFD@A?5security?5error?5of?5unknown?5caus@ 50031a10     LIBCMTD:secfail.obj
 0002:00006ac4       ??_C@_0CD@GMKACBEK@Unknown?5security?5failure?5detecte@ 50031ac4     LIBCMTD:secfail.obj
 0002:00006b04       ??_C@_09MGNHMPHC@osfinfo?4c?$AA@ 50031b04     LIBCMTD:osfinfo.obj
 0002:00006b74       ??_C@_07FEAFKIIG@a_map?4c?$AA@ 50031b74     LIBCMTD:a_map.obj
 0002:00006bb4       ??_C@_0CP@JOANPPIG@f?3?2vs70builds?23077?2vc?2crtbld?2crt@ 50031bb4     LIBCMTD:_flswbuf.obj
 0002:00006be4       ___dnames                  50031be4     LIBCMTD:timeset.obj
 0002:00006bfc       ___mnames                  50031bfc     LIBCMTD:timeset.obj
 0002:00006c44       ??_C@_07LOOFNDIO@tzset?4c?$AA@ 50031c44     LIBCMTD:tzset.obj
 0002:00006c4c       ??_C@_02CLFPBFFP@TZ?$AA@   50031c4c     LIBCMTD:tzset.obj
 0002:00006c6c       ??_C@_0L@DILIPMN@inithelp?4c?$AA@ 50031c6c     LIBCMTD:inithelp.obj
 0002:00006c78       ??_C@_0L@KBNGFDKM@convrtcp?4c?$AA@ 50031c78     LIBCMTD:convrtcp.obj
 0002:00006ca4       ??_C@_08EOPENFML@chsize?4c?$AA@ 50031ca4     LIBCMTD:chsize.obj
 0002:00006cb0       ??_C@_09OJCCCDEJ@size?5?$DO?$DN?50?$AA@ 50031cb0     LIBCMTD:chsize.obj
 0002:00006cdc       ??_C@_07NIBBAFJP@w_loc?4c?$AA@ 50031cdc     LIBCMTD:w_loc.obj
 0002:00006cf4       ??_C@_07GCMFDNDD@a_loc?4c?$AA@ 50031cf4     LIBCMTD:a_loc.obj
 0002:00006d1c       ??_C@_0L@CELCHBFJ@wtombenv?4c?$AA@ 50031d1c     LIBCMTD:wtombenv.obj
 0002:00006d28       ??_C@_07KLPPCEPH@a_cmp?4c?$AA@ 50031d28     LIBCMTD:a_cmp.obj
 0002:00006d30       ??_C@_0DN@NFIMOOFE@cchCount1?$DN?$DN0?5?$CG?$CG?5cchCount2?$DN?$DN1?5?$HM?$HM?5@ 50031d30     LIBCMTD:a_cmp.obj
 0002:00006d88       ??_C@_08BMJILFKN@setenv?4c?$AA@ 50031d88     LIBCMTD:setenv.obj
 0002:00006d94       ??_C@_05MAJJAKPI@FALSE?$AA@ 50031d94     LIBCMTD:setenv.obj
 0002:00006df0       ___rtc_iaa                 50031df0     LIBCMTD:initsect.obj
 0002:00006e18       ___rtc_izz                 50031e18     LIBCMTD:initsect.obj
 0002:00006e1c       ___rtc_taa                 50031e1c     LIBCMTD:initsect.obj
 0002:00006e44       ___rtc_tzz                 50031e44     LIBCMTD:initsect.obj
 0002:00006fa8       __IMPORT_DESCRIPTOR_WINMM  50031fa8     winmm:WINMM.dll
 0002:00006fbc       __IMPORT_DESCRIPTOR_KERNEL32 50031fbc     kernel32:KERNEL32.dll
 0002:00006fd0       __IMPORT_DESCRIPTOR_USER32 50031fd0     user32:USER32.dll
 0002:00006fe4       __IMPORT_DESCRIPTOR_ADVAPI32 50031fe4     advapi32:ADVAPI32.dll
 0002:00006ff8       __IMPORT_DESCRIPTOR_ole32  50031ff8     ole32:ole32.dll
 0002:0000700c       __IMPORT_DESCRIPTOR_OLEAUT32 5003200c     oleaut32:OLEAUT32.dll
 0002:00007020       __IMPORT_DESCRIPTOR_SS3DGFunc 50032020     SS3DGFunc:SS3DGFunc.dll
 0002:00007034       __IMPORT_DESCRIPTOR_imagehlp 50032034     imagehlp:imagehlp.dll
 0002:00007048       __NULL_IMPORT_DESCRIPTOR   50032048     winmm:WINMM.dll
 0003:00000000       ___xc_a                    50033000     LIBCMTD:crt0init.obj
 0003:00000008       ___xc_z                    50033008     LIBCMTD:crt0init.obj
 0003:0000000c       ___xi_a                    5003300c     LIBCMTD:crt0init.obj
 0003:00000020       ___xi_z                    50033020     LIBCMTD:crt0init.obj
 0003:00000024       ___xp_a                    50033024     LIBCMTD:crt0init.obj
 0003:0000002c       ___xp_z                    5003302c     LIBCMTD:crt0init.obj
 0003:00000030       ___xt_a                    50033030     LIBCMTD:crt0init.obj
 0003:00000038       ___xt_z                    50033038     LIBCMTD:crt0init.obj
 0003:00000040       __NLG_Destination          50033040     LIBCMTD:exsup.obj
 0003:00000050       ?_RTC_ErrorLevels@@3PAHA   50033050     LIBCMTD:error.obj
 0003:00000080       __crtDbgFlag               50033080     LIBCMTD:dbgheap.obj
 0003:00000088       __crtBreakAlloc            50033088     LIBCMTD:dbgheap.obj
 0003:000000a4       __aexit_rtn                500330a4     LIBCMTD:dllcrt0.obj
 0003:000001d8       __crtAssertBusy            500331d8     LIBCMTD:dbgrpt.obj
 0003:000001dc       __CrtDbgMode               500331dc     LIBCMTD:dbgrpt.obj
 0003:000001e8       __CrtDbgFile               500331e8     LIBCMTD:dbgrpt.obj
 0003:00000210       ___security_cookie         50033210     LIBCMTD:seccook.obj
 0003:00000214       ___tlsindex                50033214     LIBCMTD:tidtable.obj
 0003:00000218       ?__pInconsistency@@3P6AXXZA 50033218     LIBCMTD:hooks.obj
 0003:00000388       __XcptActTab               50033388     LIBCMTD:winxfltr.obj
 0003:00000400       __First_FPE_Indx           50033400     LIBCMTD:winxfltr.obj
 0003:00000404       __Num_FPE                  50033404     LIBCMTD:winxfltr.obj
 0003:00000408       __XcptActTabSize           50033408     LIBCMTD:winxfltr.obj
 0003:0000040c       __XcptActTabCount          5003340c     LIBCMTD:winxfltr.obj
 0003:00000410       ___nullstring              50033410     LIBCMTD:output.obj
 0003:00000414       ___wnullstring             50033414     LIBCMTD:output.obj
 0003:00000418       __pfnAllocHook             50033418     LIBCMTD:dbghook.obj
 0003:0000041c       __amblksiz                 5003341c     LIBCMTD:heapinit.obj
 0003:00000428       ___initiallocinfo          50033428     LIBCMTD:setlocal.obj
 0003:0000047c       ___ptlocinfo               5003347c     LIBCMTD:setlocal.obj
 0003:000005b8       ___lc_category             500335b8     LIBCMTD:setlocal.obj
 0003:00000600       ___mb_cur_max              50033600     LIBCMTD:nlsdata1.obj
 0003:00000604       ___decimal_point           50033604     LIBCMTD:nlsdata1.obj
 0003:00000608       ___decimal_point_length    50033608     LIBCMTD:nlsdata1.obj
 0003:00000610       __iob                      50033610     LIBCMTD:_file.obj
 0003:00000890       ___badioinfo               50033890     LIBCMTD:ioinit.obj
 0003:00000a48       __cfltcvt_tab              50033a48     LIBCMTD:cmiscdat.obj
 0003:00000a60       __pctype                   50033a60     LIBCMTD:ctype.obj
 0003:00000a64       __pwctype                  50033a64     LIBCMTD:ctype.obj
 0003:00000a70       ___lc_time_curr            50033a70     LIBCMTD:strftime.obj
 0003:00000a78       ___lc_time_c               50033a78     LIBCMTD:strftime.obj
 0003:00000b30       ___lconv_static_decimal    50033b30     LIBCMTD:lconv.obj
 0003:00000b34       ___lconv_c                 50033b34     LIBCMTD:lconv.obj
 0003:00000b64       ___lconv                   50033b64     LIBCMTD:lconv.obj
 0003:00000b68       ___lc_clike                50033b68     LIBCMTD:nlsdata2.obj
 0003:00000b70       __timezone                 50033b70     LIBCMTD:timeset.obj
 0003:00000b74       __daylight                 50033b74     LIBCMTD:timeset.obj
 0003:00000b78       __dstbias                  50033b78     LIBCMTD:timeset.obj
 0003:00000c00       __tzname                   50033c00     LIBCMTD:timeset.obj
 0003:00000c20       __lpdays                   50033c20     LIBCMTD:days.obj
 0003:00000c54       __days                     50033c54     LIBCMTD:days.obj
 0003:00000ca0       ?g_cObjects@@3JA           50033ca0     OleDBThreadNew.obj
 0003:00000ca4       ?g_cLocks@@3JA             50033ca4     OleDBThreadNew.obj
 0003:00000cac       ?g_ExceptionCS@@3U_RTL_CRITICAL_SECTION@@A 50033cac     ExceptionFilter.obj
 0003:00000ce0       ___pPurecall               50033ce0     LIBCMTD:purevirt.obj
 0003:00000d04       __aenvptr                  50033d04     LIBCMTD:dllcrt0.obj
 0003:00000d08       __wenvptr                  50033d08     LIBCMTD:dllcrt0.obj
 0003:00000d0c       ___error_mode              50033d0c     LIBCMTD:dllcrt0.obj
 0003:00000d10       ___app_type                50033d10     LIBCMTD:dllcrt0.obj
 0003:00000e6c       _gpFlsAlloc                50033e6c     LIBCMTD:tidtable.obj
 0003:00000e70       _gpFlsGetValue             50033e70     LIBCMTD:tidtable.obj
 0003:00000e74       _gpFlsSetValue             50033e74     LIBCMTD:tidtable.obj
 0003:00000e78       _gpFlsFree                 50033e78     LIBCMTD:tidtable.obj
 0003:00000f1c       __umaskval                 50033f1c     LIBCMTD:crt0dat.obj
 0003:00000f20       __osplatform               50033f20     LIBCMTD:crt0dat.obj
 0003:00000f24       __osver                    50033f24     LIBCMTD:crt0dat.obj
 0003:00000f28       __winver                   50033f28     LIBCMTD:crt0dat.obj
 0003:00000f2c       __winmajor                 50033f2c     LIBCMTD:crt0dat.obj
 0003:00000f30       __winminor                 50033f30     LIBCMTD:crt0dat.obj
 0003:00000f34       ___argc                    50033f34     LIBCMTD:crt0dat.obj
 0003:00000f38       ___argv                    50033f38     LIBCMTD:crt0dat.obj
 0003:00000f3c       ___wargv                   50033f3c     LIBCMTD:crt0dat.obj
 0003:00000f40       __environ                  50033f40     LIBCMTD:crt0dat.obj
 0003:00000f44       ___initenv                 50033f44     LIBCMTD:crt0dat.obj
 0003:00000f48       __wenviron                 50033f48     LIBCMTD:crt0dat.obj
 0003:00000f4c       ___winitenv                50033f4c     LIBCMTD:crt0dat.obj
 0003:00000f50       __pgmptr                   50033f50     LIBCMTD:crt0dat.obj
 0003:00000f54       __wpgmptr                  50033f54     LIBCMTD:crt0dat.obj
 0003:00000f58       __exitflag                 50033f58     LIBCMTD:crt0dat.obj
 0003:00000f5c       __C_Termination_Done       50033f5c     LIBCMTD:crt0dat.obj
 0003:00000f60       __C_Exit_Done              50033f60     LIBCMTD:crt0dat.obj
 0003:00000f68       __newmode                  50033f68     LIBCMTD:_newmode.obj
 0003:00000f6c       ?_pnhHeap@@3P6AHI@ZA       50033f6c     LIBCMTD:handler.obj
 0003:00000f7c       __cflush                   50033f7c     LIBCMTD:_file.obj
 0003:00000f80       __stdbuf                   50033f80     LIBCMTD:_sftbuf.obj
 0003:00001094       __adbgmsg                  50034094     LIBCMTD:crt0msg.obj
 0003:000010cc       ___lconv_static_null       500340cc     LIBCMTD:lconv.obj
 0003:000010d0       ___lc_time_intl            500340d0     LIBCMTD:inittime.obj
 0003:000010d4       ___lconv_intl              500340d4     LIBCMTD:initmon.obj
 0003:000010d8       ___lc_handle               500340d8     LIBCMTD:nlsdata2.obj
 0003:000010f0       ___lc_codepage             500340f0     LIBCMTD:nlsdata2.obj
 0003:000010f4       ___lc_collate_cp           500340f4     LIBCMTD:nlsdata2.obj
 0003:000010fc       ___lc_id                   500340fc     LIBCMTD:nlsdata3.obj
 0003:00001148       __commode                  50034148     LIBCMTD:ncommode.obj
 0003:00001210       __fmode                    50034210     LIBCMTD:txtmode.obj
 0003:00001220       ___ctype1                  50034220     <common>
 0003:00001224       ___ctype1_refcount         50034224     <common>
 0003:00001228       ___lconv_mon_refcount      50034228     <common>
 0003:0000122c       ___lconv_intl_refcount     5003422c     <common>
 0003:00001230       ___lconv_num_refcount      50034230     <common>
 0003:00001234       ___mblcid                  50034234     <common>
 0003:00001238       ___ptmbcinfo               50034238     <common>
 0003:0000123c       ___ismbcodepage            5003423c     <common>
 0003:00001240       __mbctype                  50034240     <common>
 0003:00001344       ___mbcodepage              50034344     <common>
 0003:00001350       ___mbulinfo                50034350     <common>
 0003:00001360       __mbcasemap                50034360     <common>
 0003:00001460       __nhandle                  50034460     <common>
 0003:00001480       ___pioinfo                 50034480     <common>
 0003:00001580       ___piob                    50034580     <common>
 0003:000015a0       __bufin                    500345a0     <common>
 0003:000025a0       __nstream                  500355a0     <common>
 0003:000025a4       ___setlc_active            500355a4     <common>
 0003:000025a8       ___unguarded_readlc_active 500355a8     <common>
 0003:000025ac       ___sbh_initialized         500355ac     <common>
 0003:000025b0       ___sbh_pHeaderDefer        500355b0     <common>
 0003:000025b4       ___sbh_cntHeaderList       500355b4     <common>
 0003:000025b8       ___sbh_pHeaderList         500355b8     <common>
 0003:000025bc       ___sbh_threshold           500355bc     <common>
 0003:000025c0       ___sbh_pHeaderScan         500355c0     <common>
 0003:000025c4       ___sbh_sizeHeaderList      500355c4     <common>
 0003:000025c8       ___sbh_indGroupDefer       500355c8     <common>
 0003:000025cc       __crtheap                  500355cc     <common>
 0003:000025d0       ___active_heap             500355d0     <common>
 0003:000025d4       ___env_initialized         500355d4     <common>
 0003:000025d8       ___onexitend               500355d8     <common>
 0003:000025dc       ___onexitbegin             500355dc     <common>
 0003:000025e0       ___mbctype_initialized     500355e0     <common>
 0003:000025e4       __FPinit                   500355e4     <common>
 0003:000025e8       __pfnReportHook            500355e8     <common>
 0003:000025ec       __pReportHookList          500355ec     <common>
 0003:000025f0       __acmdln                   500355f0     <common>
 0003:000025f4       __pRawDllMain              500355f4     <common>
 0003:000025f8       __pfnDumpClient            500355f8     <common>
 0003:000025fc       __FPmtterm                 500355fc     <common>
 0003:00002600       __FPmtinit                 50035600     <common>

 entry point at        0001:000119f0

 Static symbols

 0001:0000d000       ?CatchGuardHandler@@YA?AW4_EXCEPTION_DISPOSITION@@PAUEHExceptionRecord@@PAUCatchGuardRN@@PAX2@Z 5000e000 f   LIBCMTD:trnsctrl.obj
 0001:0000d140       ?TranslatorGuardHandler@@YA?AW4_EXCEPTION_DISPOSITION@@PAUEHExceptionRecord@@PAUTranslatorGuardRN@@PAX2@Z 5000e140 f   LIBCMTD:trnsctrl.obj
 0001:0000d358       $$$00001                   5000e358 f   LIBCMTD:exsup.obj
 0001:0000d378       __unwind_handler           5000e378 f   LIBCMTD:exsup.obj
 0001:0000d378       $$$00003                   5000e378 f   LIBCMTD:exsup.obj
 0001:0000d39a       $$$00005                   5000e39a f   LIBCMTD:exsup.obj
 0001:0000d402       $$$00007                   5000e402 f   LIBCMTD:exsup.obj
 0001:0000d446       $$$00011                   5000e446 f   LIBCMTD:exsup.obj
 0001:0000d551       $$$00003                   5000e551 f   LIBCMTD:exsup3.obj
 0001:0000d5c0       ?failwithmessage@@YAXPAXHHPBD@Z 5000e5c0 f   LIBCMTD:error.obj
 0001:0000d6b0       ?DebuggerProbe@@YAHK@Z     5000e6b0 f   LIBCMTD:error.obj
 0001:0000d730       ?DebuggerRuntime@@YAHKHPAXPB_W@Z 5000e730 f   LIBCMTD:error.obj
 0001:0000d9c0       ?IntToString@@YAPADH@Z     5000e9c0 f   LIBCMTD:error.obj
 0001:0000dbb0       ?_IsDebuggerPresent@@YAHXZ 5000ebb0 f   LIBCMTD:error.obj
 0001:0000dbe0       ?Initialize@@YAHXZ         5000ebe0 f   LIBCMTD:error.obj
 0001:0000dc60       ?Win95IsDebuggerPresent@@YGHXZ 5000ec60 f   LIBCMTD:error.obj
 0001:0000dc70       ?WinGetDebugContext@@YAPAXXZ 5000ec70 f   LIBCMTD:error.obj
 0001:0000dc80       ?GetCurrentTib@@YAPAU_TIB@@XZ 5000ec80 f   LIBCMTD:error.obj
 0001:0000dd70       __threadstartex@4          5000ed70 f   LIBCMTD:threadex.obj
 0001:0000ece0       _realloc_help              5000fce0 f   LIBCMTD:dbgheap.obj
 0001:0000fa20       _CheckBytes                50010a20 f   LIBCMTD:dbgheap.obj
 0001:00010770       __printMemBlockData        50011770 f   LIBCMTD:dbgheap.obj
 0001:00011210       _wcsncnt                   50012210 f   LIBCMTD:wcstombs.obj
 0001:00012750       _CrtMessageWindow          50013750 f   LIBCMTD:dbgrpt.obj
 0001:00012b40       ?FindHandler@@YAXPAUEHExceptionRecord@@PAUEHRegistrationNode@@PAU_CONTEXT@@PAXPBU_s_FuncInfo@@EH1@Z 50013b40 f   LIBCMTD:frame.obj
 0001:00012de0       ?FindHandlerForForeignException@@YAXPAUEHExceptionRecord@@PAUEHRegistrationNode@@PAU_CONTEXT@@PAXPBU_s_FuncInfo@@HH1@Z 50013de0 f   LIBCMTD:frame.obj
 0001:00012f10       ?TypeMatch@@YAHPBU_s_HandlerType@@PBU_s_CatchableType@@PBU_s_ThrowInfo@@@Z 50013f10 f   LIBCMTD:frame.obj
 0001:00013110       ?FrameUnwindFilter@@YAHPAU_EXCEPTION_POINTERS@@@Z 50014110 f   LIBCMTD:frame.obj
 0001:00013150       ?CatchIt@@YAXPAUEHExceptionRecord@@PAUEHRegistrationNode@@PAU_CONTEXT@@PAXPBU_s_FuncInfo@@PBU_s_HandlerType@@PBU_s_CatchableType@@PBU_s_TryBlockMapEntry@@H1E@Z 50014150 f   LIBCMTD:frame.obj
 0001:00013210       ?CallCatchBlock@@YAPAXPAUEHExceptionRecord@@PAUEHRegistrationNode@@PAU_CONTEXT@@PBU_s_FuncInfo@@PAXHK@Z 50014210 f   LIBCMTD:frame.obj
 0001:00013440       ?ExFilterRethrow@@YAHPAU_EXCEPTION_POINTERS@@@Z 50014440 f   LIBCMTD:frame.obj
 0001:00013490       ?BuildCatchObject@@YAXPAUEHExceptionRecord@@PAXPBU_s_HandlerType@@PBU_s_CatchableType@@@Z 50014490 f   LIBCMTD:frame.obj
 0001:000137c0       ?AdjustPointer@@YAPAXPAXABUPMD@@@Z 500147c0 f   LIBCMTD:frame.obj
 0001:00014b40       ?GetImageInfo@@YAPAUImageInfo@@K@Z 50015b40 f   LIBCMTD:pdblkup.obj
 0001:00014f00       ?GetPdbDll@@YAPAUHINSTANCE__@@XZ 50015f00 f   LIBCMTD:pdblkup.obj
 0001:000151e0       _doexit                    500161e0 f   LIBCMTD:crt0dat.obj
 0001:00015380       __initterm                 50016380 f   LIBCMTD:crt0dat.obj
 0001:000153b0       __initterm_e               500163b0 f   LIBCMTD:crt0dat.obj
 0001:000155e0       _xcptlookup                500165e0 f   LIBCMTD:winxfltr.obj
 0001:00016670       _write_char                50017670 f   LIBCMTD:output.obj
 0001:00016710       _write_multi_char          50017710 f   LIBCMTD:output.obj
 0001:00016750       _write_string              50017750 f   LIBCMTD:output.obj
 0001:000167c0       _get_int_arg               500177c0 f   LIBCMTD:output.obj
 0001:000167e0       _get_int64_arg             500177e0 f   LIBCMTD:output.obj
 0001:00016800       _get_short_arg             50017800 f   LIBCMTD:output.obj
 0001:000175a0       _write_char                500185a0 f   LIBCMTD:woutput.obj
 0001:00017600       _write_multi_char          50018600 f   LIBCMTD:woutput.obj
 0001:00017640       _write_string              50018640 f   LIBCMTD:woutput.obj
 0001:000176b0       _get_int_arg               500186b0 f   LIBCMTD:woutput.obj
 0001:000176d0       _get_int64_arg             500186d0 f   LIBCMTD:woutput.obj
 0001:00019d50       ___updatetlocinfo_lk       5001ad50 f   LIBCMTD:setlocal.obj
 0001:0001a140       __setlocale_lk             5001b140 f   LIBCMTD:setlocal.obj
 0001:0001a4f0       __setlocale_set_cat        5001b4f0 f   LIBCMTD:setlocal.obj
 0001:0001a8c0       __setlocale_get_all        5001b8c0 f   LIBCMTD:setlocal.obj
 0001:0001af80       _report_failure            5001bf80 f   LIBCMTD:secchk.obj
 0001:0001b600       _flsall                    5001c600 f   LIBCMTD:fflush.obj
 0001:0001c5d0       _parse_cmdline             5001d5d0 f   LIBCMTD:stdargv.obj
 0001:0001d010       ___crtInitCritSecNoSpinCount@8 5001e010 f   LIBCMTD:initcrit.obj
 0001:0001d080       _xtoa                      5001e080 f   LIBCMTD:xtoa.obj
 0001:0001d200       _x64toa@20                 5001e200 f   LIBCMTD:xtoa.obj
 0001:0001d850       _ctrlevent_capture@4       5001e850 f   LIBCMTD:winsig.obj
 0001:0001db80       _siglookup                 5001eb80 f   LIBCMTD:winsig.obj
 0001:0001e650       _getSystemCP               5001f650 f   LIBCMTD:mbctype.obj
 0001:0001e6b0       __setmbcp_lk               5001f6b0 f   LIBCMTD:mbctype.obj
 0001:0001e9a0       _CPtoLCID                  5001f9a0 f   LIBCMTD:mbctype.obj
 0001:0001ea20       _setSBCS                   5001fa20 f   LIBCMTD:mbctype.obj
 0001:0001eaa0       _setSBUpLow                5001faa0 f   LIBCMTD:mbctype.obj
 0001:0001eea0       __onexit_lk                5001fea0 f   LIBCMTD:onexit.obj
 0001:000204f0       __expandtime               500214f0 f   LIBCMTD:strftime.obj
 0001:00020ad0       __store_str                50021ad0 f   LIBCMTD:strftime.obj
 0001:00020b20       __store_num                50021b20 f   LIBCMTD:strftime.obj
 0001:00020bd0       __store_number             50021bd0 f   LIBCMTD:strftime.obj
 0001:00020c80       __store_winword            50021c80 f   LIBCMTD:strftime.obj
 0001:000215e0       __get_lc_time              500225e0 f   LIBCMTD:inittime.obj
 0001:00022120       _fix_grouping              50023120 f   LIBCMTD:initnum.obj
 0001:000225c0       _fix_grouping              500235c0 f   LIBCMTD:initmon.obj
 0001:000230b0       _TranslateName             500240b0 f   LIBCMTD:getqloc.obj
 0001:00023140       _GetLcidFromLangCountry    50024140 f   LIBCMTD:getqloc.obj
 0001:00023200       _LangCountryEnumProc@4     50024200 f   LIBCMTD:getqloc.obj
 0001:00023580       _GetLcidFromLanguage       50024580 f   LIBCMTD:getqloc.obj
 0001:000235f0       _LanguageEnumProc@4        500245f0 f   LIBCMTD:getqloc.obj
 0001:00023740       _GetLcidFromCountry        50024740 f   LIBCMTD:getqloc.obj
 0001:00023790       _CountryEnumProc@4         50024790 f   LIBCMTD:getqloc.obj
 0001:00023860       _GetLcidFromDefault        50024860 f   LIBCMTD:getqloc.obj
 0001:00023890       _ProcessCodePage           50024890 f   LIBCMTD:getqloc.obj
 0001:00023940       _TestDefaultCountry        50024940 f   LIBCMTD:getqloc.obj
 0001:00023990       _TestDefaultLanguage       50024990 f   LIBCMTD:getqloc.obj
 0001:00023a30       _crtGetLocaleInfoA@16      50024a30 f   LIBCMTD:getqloc.obj
 0001:00023bc0       _LcidFromHexString         50024bc0 f   LIBCMTD:getqloc.obj
 0001:00023c40       _GetPrimaryLen             50024c40 f   LIBCMTD:getqloc.obj
 0001:00024a70       __tsopen_lk                50025a70 f   LIBCMTD:open.obj
 0001:000254e0       _strncnt                   500264e0 f   LIBCMTD:a_map.obj
 0001:00025aa0       __tzset_lk                 50026aa0 f   LIBCMTD:tzset.obj
 0001:00025f30       __isindst_lk               50026f30 f   LIBCMTD:tzset.obj
 0001:00026200       _cvtdate                   50027200 f   LIBCMTD:tzset.obj
 0001:00028ca0       _strncnt                   50029ca0 f   LIBCMTD:a_cmp.obj
 0001:00029070       _findenv                   5002a070 f   LIBCMTD:setenv.obj
 0001:000290f0       _copy_environ              5002a0f0 f   LIBCMTD:setenv.obj
 0001:000292b0       _$$$00001                  5002a2b0 f   LIBCMTD:strchr.obj
 0001:00029570       __unwindfunclet$?CreateInstance@CFOleDBThread@@UAGJPAUIUnknown@@ABU_GUID@@PAPAX@Z$0 5002a570 f   Factory.obj
 0001:0002957e       __ehhandler$?CreateInstance@CFOleDBThread@@UAGJPAUIUnknown@@ABU_GUID@@PAPAX@Z 5002a57e f   Factory.obj
 0001:00029590       __unwindfunclet$??0COleDBThread@@QAE@PAUDB_INITIALIZE_DESC@@PAVCOleDBThreadCls@@@Z$0 5002a590 f   OleDBThread.obj
 0001:0002959e       __ehhandler$??0COleDBThread@@QAE@PAUDB_INITIALIZE_DESC@@PAVCOleDBThreadCls@@@Z 5002a59e f   OleDBThread.obj
 0001:000295b0       __unwindfunclet$?SetBLOBData@COleDBThread@@QAEHPAG00PAXK@Z$0 5002a5b0 f   OleDBThread.obj
 0001:000295be       __ehhandler$?SetBLOBData@COleDBThread@@QAEHPAG00PAXK@Z 5002a5be f   OleDBThread.obj
 0001:000295d0       __unwindfunclet$?InitDBModule@COleDBThreadCls@@UAGHPAUDB_INITIALIZE_DESC@@@Z$0 5002a5d0 f   OleDBThreadCls.obj
 0001:000295de       __unwindfunclet$?InitDBModule@COleDBThreadCls@@UAGHPAUDB_INITIALIZE_DESC@@@Z$1 5002a5de f   OleDBThreadCls.obj
 0001:000295ec       __unwindfunclet$?InitDBModule@COleDBThreadCls@@UAGHPAUDB_INITIALIZE_DESC@@@Z$2 5002a5ec f   OleDBThreadCls.obj
 0001:000295fa       __unwindfunclet$?InitDBModule@COleDBThreadCls@@UAGHPAUDB_INITIALIZE_DESC@@@Z$3 5002a5fa f   OleDBThreadCls.obj
 0001:00029608       __unwindfunclet$?InitDBModule@COleDBThreadCls@@UAGHPAUDB_INITIALIZE_DESC@@@Z$4 5002a608 f   OleDBThreadCls.obj
 0001:00029616       __unwindfunclet$?InitDBModule@COleDBThreadCls@@UAGHPAUDB_INITIALIZE_DESC@@@Z$5 5002a616 f   OleDBThreadCls.obj
 0001:00029624       __unwindfunclet$?InitDBModule@COleDBThreadCls@@UAGHPAUDB_INITIALIZE_DESC@@@Z$6 5002a624 f   OleDBThreadCls.obj
 0001:00029632       __ehhandler$?InitDBModule@COleDBThreadCls@@UAGHPAUDB_INITIALIZE_DESC@@@Z 5002a632 f   OleDBThreadCls.obj
 0001:00029640       __unwindfunclet$?CreateDBConnection@COleDBThreadCls@@UAGHXZ$0 5002a640 f   OleDBThreadCls.obj
 0001:0002964e       __ehhandler$?CreateDBConnection@COleDBThreadCls@@UAGHXZ 5002a64e f   OleDBThreadCls.obj
 0001:00029660       __unwindfunclet$??0CMsgQueue@@QAE@K@Z$0 5002a660 f   DBMsgQueue.obj
 0001:0002966b       __unwindfunclet$??0CMsgQueue@@QAE@K@Z$1 5002a66b f   DBMsgQueue.obj
 0001:00029679       __unwindfunclet$??0CMsgQueue@@QAE@K@Z$2 5002a679 f   DBMsgQueue.obj
 0001:00029687       __ehhandler$??0CMsgQueue@@QAE@K@Z 5002a687 f   DBMsgQueue.obj
 0001:000296a0       __unwindfunclet$??1CMsgQueue@@QAE@XZ$0 5002a6a0 f   DBMsgQueue.obj
 0001:000296ab       __ehhandler$??1CMsgQueue@@QAE@XZ 5002a6ab f   DBMsgQueue.obj
 0001:000296c0       __unwindfunclet$??0CMsgQueueUnit@@QAE@K@Z$0 5002a6c0 f   SimpleVoidList.obj
 0001:000296ce       __ehhandler$??0CMsgQueueUnit@@QAE@K@Z 5002a6ce f   SimpleVoidList.obj

Line numbers for .\debug\SimpleVoidList.obj(d:\corum\develop_v1\oledbthreadnew\simplevoidlist.cpp) segment .text

     5 0001:0000c690     6 0001:0000c6c8     7 0001:0000c6d1     8 0001:0000c6db
    10 0001:0000c6e5    11 0001:0000c74d    12 0001:0000c75e    15 0001:0000c790
    16 0001:0000c7b3    17 0001:0000c7bb    18 0001:0000c7fb    21 0001:0000c810
    22 0001:0000c833    23 0001:0000c841    25 0001:0000c84b    26 0001:0000c854
    27 0001:0000c85c    29 0001:0000c866    31 0001:0000c875    32 0001:0000c878
    35 0001:0000c890    36 0001:0000c8b3    38 0001:0000c8bb    40 0001:0000c8ca
    41 0001:0000c8d9    44 0001:0000c8f0    45 0001:0000c913    47 0001:0000c927
    49 0001:0000c930    50 0001:0000c939    51 0001:0000c944    52 0001:0000c946
    54 0001:0000c94e    56 0001:0000c957    57 0001:0000c95a    60 0001:0000c970
    61 0001:0000c993    62 0001:0000c99a    64 0001:0000c9a1    65 0001:0000c9a9
    67 0001:0000c9af    68 0001:0000c9b7    69 0001:0000c9c3    70 0001:0000c9c9
    72 0001:0000c9cb    73 0001:0000c9d5    74 0001:0000c9e8    77 0001:0000ca00
    78 0001:0000ca23    80 0001:0000ca2b    82 0001:0000ca35    84 0001:0000ca3f
    85 0001:0000ca45

Line numbers for .\debug\DBMsgQueue.obj(d:\corum\develop_v1\oledbthreadnew\simplevoidlist.h) segment .text

    25 0001:0000c4b0    28 0001:0000c610

Line numbers for .\debug\DBMsgQueue.obj(d:\corum\develop_v1\oledbthreadnew\dbmsgqueue.cpp) segment .text

    10 0001:0000c060    11 0001:0000c0aa    12 0001:0000c104    14 0001:0000c15e
    15 0001:0000c16f    17 0001:0000c180    18 0001:0000c189    21 0001:0000c1c0
    22 0001:0000c1ff    23 0001:0000c23f    24 0001:0000c27f    37 0001:0000c310
    38 0001:0000c333    39 0001:0000c33e    40 0001:0000c34e    41 0001:0000c359
    44 0001:0000c370    45 0001:0000c393    46 0001:0000c39e    47 0001:0000c3b4
    49 0001:0000c3bf    50 0001:0000c3c2    27 0001:0000c3e0    28 0001:0000c403
    29 0001:0000c40f    53 0001:0000c420    54 0001:0000c443    55 0001:0000c44e
    56 0001:0000c489    58 0001:0000c494    59 0001:0000c497    32 0001:0000c4e0
    33 0001:0000c503    34 0001:0000c515    62 0001:0000c520    63 0001:0000c543
    64 0001:0000c554    67 0001:0000c570    68 0001:0000c593    69 0001:0000c5a2
    72 0001:0000c5c0    73 0001:0000c5e3    74 0001:0000c5f2    77 0001:0000c640
    78 0001:0000c663    79 0001:0000c676

Line numbers for .\debug\TSMemPool.obj(d:\corum\develop_v1\oledbthreadnew\cspinlock.h) segment .text

    12 0001:0000bdb0    13 0001:0000be60    15 0001:0000bf40    16 0001:0000bfa0

Line numbers for .\debug\TSMemPool.obj(d:\corum\develop_v1\oledbthreadnew\tsmempool.cpp) segment .text

     7 0001:0000bd10     8 0001:0000bd3e     9 0001:0000bd46    10 0001:0000bd5b
    12 0001:0000bd6c    13 0001:0000bd8e    16 0001:0000bdf0    17 0001:0000be13
    19 0001:0000be1c    21 0001:0000be32    24 0001:0000be90    25 0001:0000beb3
    27 0001:0000bec4    29 0001:0000becb    30 0001:0000bed6    31 0001:0000beef
    33 0001:0000befa    35 0001:0000bf08    37 0001:0000bf1c    38 0001:0000bf1f
    41 0001:0000bff0    42 0001:0000c013    44 0001:0000c01a    45 0001:0000c025
    46 0001:0000c03f    47 0001:0000c04a

Line numbers for .\debug\ExceptionFilter.obj(d:\corum\develop_v1\oledbthreadnew\exceptionfilter.cpp) segment .text

    20 0001:0000b750    21 0001:0000b76e    24 0001:0000b782    25 0001:0000b793
    27 0001:0000b7ba    28 0001:0000b7ce    33 0001:0000b7d8    35 0001:0000b7f3
    36 0001:0000b807    39 0001:0000b811    40 0001:0000b82a    41 0001:0000b83b
    42 0001:0000b85c    43 0001:0000b87d    44 0001:0000b89e    45 0001:0000b8bf
    46 0001:0000b8d8    48 0001:0000b8e9    49 0001:0000b8fe    50 0001:0000b913
    52 0001:0000b91f    53 0001:0000b938    54 0001:0000b94a    55 0001:0000b954
    56 0001:0000b966    57 0001:0000b970    58 0001:0000b982    61 0001:0000b98c
    63 0001:0000b9b7    67 0001:0000b9c5    69 0001:0000ba0e    70 0001:0000ba18
    71 0001:0000ba31    73 0001:0000ba3d    74 0001:0000ba49    76 0001:0000ba56
    78 0001:0000ba85    79 0001:0000bab7    81 0001:0000bab9    83 0001:0000bae1
    84 0001:0000bb04    86 0001:0000bb2c    87 0001:0000bb44    90 0001:0000bb5c
    91 0001:0000bb84    93 0001:0000bbab    95 0001:0000bbe0    96 0001:0000bbff
    98 0001:0000bc01   100 0001:0000bc03   101 0001:0000bc07   103 0001:0000bc0c
   104 0001:0000bc1d   106 0001:0000bc29   108 0001:0000bc3f   110 0001:0000bc53
   111 0001:0000bc55

Line numbers for .\debug\SeqStream.obj(d:\corum\develop_v1\oledbthreadnew\seqstream.h) segment .text

    14 0001:0000b320    16 0001:0000b350

Line numbers for .\debug\SeqStream.obj(d:\corum\develop_v1\oledbthreadnew\seqstream.cpp) segment .text

     5 0001:0000b100     6 0001:0000b11e     7 0001:0000b133    10 0001:0000b140
    11 0001:0000b15e    12 0001:0000b176    14 0001:0000b17e    16 0001:0000b1ca
    17 0001:0000b1cc    20 0001:0000b1f0    21 0001:0000b20e    23 0001:0000b217
    24 0001:0000b22c    25 0001:0000b234    26 0001:0000b249    28 0001:0000b251
    30 0001:0000b259    31 0001:0000b272    34 0001:0000b276    35 0001:0000b27b
    38 0001:0000b2a0    39 0001:0000b2d4    40 0001:0000b2de    41 0001:0000b2e8
    42 0001:0000b2f2    45 0001:0000b2fc    46 0001:0000b305    49 0001:0000b430
    51 0001:0000b45c    52 0001:0000b472    55 0001:0000b490    57 0001:0000b4b3
    58 0001:0000b4bc    59 0001:0000b4c1    62 0001:0000b4d0    64 0001:0000b4f3
    65 0001:0000b4fd    67 0001:0000b507    68 0001:0000b51d    70 0001:0000b527
    71 0001:0000b52c    74 0001:0000b540    76 0001:0000b563    77 0001:0000b582
    80 0001:0000b5a0    82 0001:0000b5be    83 0001:0000b5c4    85 0001:0000b5cd
    86 0001:0000b5d3    88 0001:0000b5dd    89 0001:0000b5e3    92 0001:0000b5ea
    93 0001:0000b5f9    96 0001:0000b61e    97 0001:0000b624   100 0001:0000b62b
   101 0001:0000b648   103 0001:0000b657   104 0001:0000b65d   106 0001:0000b665
   107 0001:0000b66d   109 0001:0000b674   110 0001:0000b676   113 0001:0000b690
   115 0001:0000b6ae   116 0001:0000b6b4   118 0001:0000b6bb   119 0001:0000b6c1
   121 0001:0000b6ca   122 0001:0000b6d0   125 0001:0000b6d4   128 0001:0000b6e3
   129 0001:0000b706   131 0001:0000b723   132 0001:0000b729   134 0001:0000b731
   135 0001:0000b733

Line numbers for .\debug\OleDBThreadNew.obj(d:\corum\develop_v1\oledbthreadnew\oledbthreadnew.cpp) segment .text

    23 0001:0000aa20    26 0001:0000aa3e    29 0001:0000aa5b    32 0001:0000aa63
    33 0001:0000aa77    37 0001:0000aa79    44 0001:0000aa8d    45 0001:0000aa92
    51 0001:0000aab0    84 0001:0000aace    85 0001:0000aad5    87 0001:0000aadc
    88 0001:0000aaf1    89 0001:0000aaf8    92 0001:0000ab43    93 0001:0000ab49
    94 0001:0000ab68    95 0001:0000ab6e    98 0001:0000ab86   101 0001:0000ab89
   105 0001:0000aba0   106 0001:0000abbe   107 0001:0000abd0   108 0001:0000abd4
   109 0001:0000abd9   117 0001:0000abe0   118 0001:0000abfe   125 0001:0000ac05
   126 0001:0000ac27   127 0001:0000ac47   129 0001:0000ac62   130 0001:0000ac7d
   134 0001:0000ac9a   138 0001:0000acae   143 0001:0000acc7   147 0001:0000acdd
   151 0001:0000acf6   153 0001:0000ad11   154 0001:0000ad14   158 0001:0000ada0
   159 0001:0000adbe   165 0001:0000adc5   166 0001:0000ade5   168 0001:0000ae00
   169 0001:0000ae1b   172 0001:0000ae38   174 0001:0000ae51   177 0001:0000ae6a
   178 0001:0000ae94   180 0001:0000aeaf   181 0001:0000aed9   182 0001:0000aef4
   184 0001:0000af0f   185 0001:0000af12   190 0001:0000af90   191 0001:0000afae
   196 0001:0000afb5   198 0001:0000afcf   199 0001:0000afd5   200 0001:0000aff0
   212 0001:0000b00a   214 0001:0000b03b   215 0001:0000b041   222 0001:0000b047
   224 0001:0000b07e   225 0001:0000b084   226 0001:0000b08b   228 0001:0000b09e
   229 0001:0000b0a1

Line numbers for .\debug\OleDBThreadCls.obj(d:\corum\develop_v1\oledbthreadnew\oledbthreadcls.h) segment .text

    76 0001:00006ed0    84 0001:00006f00   110 0001:000085e0   108 0001:00009490
   104 0001:00009a10   114 0001:00009a40   113 0001:00009c40   102 0001:0000a130
   103 0001:0000a9f0

Line numbers for .\debug\OleDBThreadCls.obj(d:\corum\develop_v1\oledbthreadnew\oledbthreadcls.cpp) segment .text

     9 0001:00006bd0    10 0001:00006bee    11 0001:00006bf4    12 0001:00006bfc
    15 0001:00006c20    17 0001:00006c3e    21 0001:00006c50    22 0001:00006c6e
    23 0001:00006c75    25 0001:00006c7e    26 0001:00006ca8    28 0001:00006cb0
    30 0001:00006cb8    31 0001:00006ccd    34 0001:00006cd4    35 0001:00006cd7
    38 0001:00006cf0    39 0001:00006d0e    40 0001:00006d23    43 0001:00006d30
    44 0001:00006d4e    46 0001:00006d66    49 0001:00006da3    50 0001:00006da9
    54 0001:00006dc0    55 0001:00006df4    57 0001:00006e05    58 0001:00006e0f
    59 0001:00006e16    61 0001:00006e20    62 0001:00006e2d    64 0001:00006e3a
    65 0001:00006e47    66 0001:00006e54    67 0001:00006e61    68 0001:00006e6e
    70 0001:00006e7b    72 0001:00006e8e    73 0001:00006eab    76 0001:00006f80
    77 0001:00006fac    79 0001:00006fb7    80 0001:00006fcd    82 0001:00006fe5
    83 0001:00006ffb    86 0001:00007011    88 0001:00007029    89 0001:00007036
    90 0001:0000707a    92 0001:0000707c    93 0001:00007088    95 0001:000070cb
    96 0001:000070e2    98 0001:00007125    99 0001:00007174   100 0001:000071c3
   101 0001:00007212   103 0001:00007261   104 0001:00007270   107 0001:00007350
   108 0001:0000736e   109 0001:00007375   111 0001:00007384   114 0001:0000738e
   117 0001:000073b3   119 0001:000073da   121 0001:000073e6   122 0001:000073eb
   125 0001:00007410   126 0001:0000742e   127 0001:00007435   129 0001:0000746b
   130 0001:00007474   131 0001:00007479   139 0001:00007490   140 0001:000074ae
   141 0001:000074b8   134 0001:000074d0   135 0001:000074f3   136 0001:000074fc
   144 0001:00007510   145 0001:0000752e   146 0001:00007538   149 0001:00007550
   150 0001:00007573   151 0001:000075a6   154 0001:000075b0   155 0001:000075ce
   156 0001:000075e2   158 0001:000075e6   160 0001:000075f3   161 0001:000075f8
   164 0001:00007610   165 0001:0000762e   166 0001:00007638   169 0001:00007650
   170 0001:00007683   172 0001:0000768d   174 0001:000076a2   176 0001:000076b1
   178 0001:000076bb   179 0001:00007734   180 0001:00007740   182 0001:00007741
   184 0001:0000774b   186 0001:00007764   187 0001:000077e7   188 0001:000077f3
   190 0001:000077f4   192 0001:000077fe   194 0001:00007822   195 0001:000078a1
   196 0001:000078ad   198 0001:000078ae   200 0001:000078b8   202 0001:000078d8
   203 0001:0000794e   204 0001:0000795a   206 0001:0000795b   208 0001:00007965
   210 0001:0000797b   211 0001:000079fa   213 0001:00007a07   215 0001:00007a11
   218 0001:00007a31   219 0001:00007a98   220 0001:00007aa4   222 0001:00007aa5
   224 0001:00007aaf   227 0001:00007aba   228 0001:00007b21   229 0001:00007b2d
   232 0001:00007b2e   235 0001:00007b38   238 0001:00007b59   239 0001:00007b5e
   242 0001:00007bb0   243 0001:00007be3   245 0001:00007bff   247 0001:00007c0c
   248 0001:00007c77   250 0001:00007c7f   252 0001:00007c84   253 0001:00007c87
   256 0001:00007cb0   257 0001:00007cce   259 0001:00007cd6   261 0001:00007ce0
   262 0001:00007cf0   264 0001:00007cf7   266 0001:00007d3b   268 0001:00007d49
   272 0001:00007d53   274 0001:00007d6b   275 0001:00007d78   276 0001:00007dbc
   278 0001:00007dbe   280 0001:00007dd1   282 0001:00007dd6   286 0001:00007df0
   287 0001:00007e0e   288 0001:00007e28   289 0001:00007e42   290 0001:00007e5c
   292 0001:00007e76   293 0001:00007e96   294 0001:00007eb6   295 0001:00007ed6
   297 0001:00007ef6   299 0001:00007f09   300 0001:00007f17   302 0001:00007f1c
   303 0001:00007f57   307 0001:00007ff0   308 0001:0000800e   309 0001:00008028
   310 0001:00008042   311 0001:0000805c   313 0001:00008076   314 0001:00008096
   315 0001:000080b6   316 0001:000080d6   318 0001:000080f6   320 0001:00008109
   321 0001:00008117   323 0001:0000811c   324 0001:0000814f   327 0001:000081e0
   328 0001:000081fe   329 0001:00008218   331 0001:00008238   333 0001:0000824b
   334 0001:00008259   336 0001:0000825e   337 0001:00008278   341 0001:000082c0
   342 0001:000082de   343 0001:000082f8   345 0001:00008318   347 0001:0000832b
   348 0001:00008339   350 0001:0000833e   351 0001:00008364   354 0001:000083b0
   355 0001:000083ce   357 0001:000083de   358 0001:000083e9   360 0001:000083ed
   361 0001:00008402   364 0001:00008420   365 0001:0000843e   367 0001:0000844e
   368 0001:00008459   370 0001:0000845d   371 0001:00008471   374 0001:00008490
   375 0001:000084ae   376 0001:000084c0   378 0001:000084c6   379 0001:000084d3
   384 0001:000084da   386 0001:000084f9   387 0001:0000850a   388 0001:0000851b
   389 0001:0000852c   390 0001:0000853d   391 0001:0000854e   392 0001:0000855f
   393 0001:00008570   394 0001:00008581   395 0001:0000858f   396 0001:000085a1
   397 0001:000085b2   398 0001:000085c0   400 0001:000085c5   401 0001:000085c8
   404 0001:00008620   405 0001:00008643   407 0001:00008649   408 0001:00008656
   411 0001:00008658   412 0001:0000866b   415 0001:00008690   416 0001:000086ae
   417 0001:000086c8   419 0001:000086e8   421 0001:000086fb   422 0001:00008709
   424 0001:0000870e   425 0001:00008730   428 0001:00008780   429 0001:0000879e
   430 0001:000087b8   432 0001:000087d8   434 0001:000087eb   435 0001:000087f9
   437 0001:000087fd   438 0001:0000881f   441 0001:00008870   442 0001:0000888e
   443 0001:000088a8   445 0001:000088c8   447 0001:000088db   448 0001:000088e9
   450 0001:000088ed   451 0001:0000890b   455 0001:00008960   456 0001:0000897e
   458 0001:0000898e   459 0001:00008999   461 0001:0000899d   462 0001:000089be
   465 0001:000089e0   466 0001:000089fe   468 0001:00008a0e   469 0001:00008a19
   471 0001:00008a1d   472 0001:00008a31   476 0001:00008a50   477 0001:00008a6e
   478 0001:00008a88   479 0001:00008aa2   481 0001:00008abc   482 0001:00008adc
   483 0001:00008afc   485 0001:00008b1c   487 0001:00008b2f   488 0001:00008b3d
   490 0001:00008b42   491 0001:00008b72   495 0001:00008bf0   496 0001:00008c0e
   497 0001:00008c28   498 0001:00008c42   499 0001:00008c5c   501 0001:00008c74
   502 0001:00008c94   503 0001:00008cb4   504 0001:00008cd4   506 0001:00008cf4
   508 0001:00008d07   509 0001:00008d15   511 0001:00008d1a   512 0001:00008d4d
   516 0001:00008de0   517 0001:00008dfe   518 0001:00008e18   519 0001:00008e32
   521 0001:00008e4c   522 0001:00008e6c   523 0001:00008e8c   525 0001:00008eac
   527 0001:00008ebf   528 0001:00008ecd   530 0001:00008ed2   531 0001:00008f02
   535 0001:00008f80   536 0001:00008f9e   537 0001:00008fb8   538 0001:00008fd2
   539 0001:00008fec   541 0001:00009004   542 0001:00009024   543 0001:00009044
   544 0001:00009064   546 0001:00009084   548 0001:00009097   549 0001:000090a5
   551 0001:000090aa   552 0001:000090d9   555 0001:00009170   556 0001:0000918e
   557 0001:000091a8   559 0001:000091c8   561 0001:000091db   562 0001:000091e9
   564 0001:000091ee   565 0001:00009208   568 0001:00009250   569 0001:0000926e
   571 0001:0000927e   572 0001:00009289   574 0001:0000928e   575 0001:000092a6
   578 0001:000092c0   579 0001:000092de   581 0001:000092ee   582 0001:000092f9
   584 0001:000092fe   585 0001:00009316   588 0001:00009330   589 0001:0000934e
   590 0001:00009360   592 0001:00009366   593 0001:0000937f   594 0001:00009397
   595 0001:000093a6   600 0001:000093ab   601 0001:000093b1   603 0001:000093b9
   605 0001:000093c5   607 0001:000093c7   608 0001:000093db   610 0001:000093dd
   613 0001:000093ea   614 0001:0000940a   615 0001:00009416   616 0001:00009423
   617 0001:0000942c   619 0001:00009435   620 0001:00009441   623 0001:000094d0
   624 0001:000094ee   625 0001:00009500   627 0001:00009506   628 0001:0000951f
   629 0001:00009537   630 0001:00009546   635 0001:0000954b   637 0001:00009551
   639 0001:00009559   641 0001:00009565   643 0001:00009567   644 0001:0000957b
   646 0001:0000957d   649 0001:0000958a   650 0001:000095aa   651 0001:000095b6
   652 0001:000095bf   654 0001:000095c8   655 0001:000095d4   659 0001:00009620
   660 0001:0000963e   662 0001:00009647   663 0001:00009654   666 0001:00009659
   667 0001:0000966b   669 0001:00009671   670 0001:0000968a   671 0001:000096a2
   672 0001:000096b1   677 0001:000096b6   679 0001:000096bc   681 0001:000096c4
   683 0001:000096d0   685 0001:000096d2   686 0001:000096e6   688 0001:000096eb
   691 0001:000096f8   692 0001:00009718   693 0001:00009724   694 0001:00009730
   695 0001:0000973c   696 0001:00009756   697 0001:0000975f   699 0001:00009768
   702 0001:00009774   704 0001:0000977d   708 0001:0000978a   711 0001:000097d0
   712 0001:000097ee   713 0001:00009800   715 0001:00009806   716 0001:00009813
   721 0001:0000981a   723 0001:00009820   725 0001:00009828   727 0001:00009834
   729 0001:00009836   730 0001:0000984a   732 0001:0000984e   735 0001:0000985b
   737 0001:0000987b   738 0001:00009887   740 0001:00009890   742 0001:0000989c
   743 0001:000098a1   746 0001:000098c0   747 0001:000098de   749 0001:000098e6
   750 0001:000098ed   752 0001:000098f4   753 0001:00009906   755 0001:0000990c
   757 0001:00009922   759 0001:00009928   761 0001:0000993e   764 0001:00009954
   768 0001:00009970   770 0001:00009983   772 0001:00009985   774 0001:00009994
   776 0001:0000999c   778 0001:000099b1   779 0001:000099b9   781 0001:000099d1
   784 0001:00009a80   785 0001:00009a9e   786 0001:00009ab7   789 0001:00009ad0
   790 0001:00009aee   792 0001:00009af8   793 0001:00009b01   795 0001:00009b17
   796 0001:00009b20   798 0001:00009b36   799 0001:00009b3b   802 0001:00009b60
   803 0001:00009b7e   804 0001:00009b87   807 0001:00009b90   808 0001:00009bb3
   810 0001:00009bb9   811 0001:00009bc6   814 0001:00009bca   815 0001:00009bd3
   817 0001:00009bd7   818 0001:00009beb   820 0001:00009bf7   821 0001:00009c04
   824 0001:00009c08   826 0001:00009c1b   828 0001:00009c23   829 0001:00009c28
   832 0001:00009c80   833 0001:00009ca3   834 0001:00009cb2   837 0001:00009cd0
   838 0001:00009cf3   839 0001:00009d02   842 0001:00009d20   843 0001:00009d43
   844 0001:00009d59   847 0001:00009d70   848 0001:00009d93   849 0001:00009da9
   852 0001:00009dc0   853 0001:00009de3   855 0001:00009df3   856 0001:00009e00
   858 0001:00009e04   859 0001:00009e09   862 0001:00009e20   863 0001:00009e43
   864 0001:00009e4b   866 0001:00009e55   867 0001:00009e69   869 0001:00009e6f
   870 0001:00009e76   873 0001:00009e90   874 0001:00009eb3   875 0001:00009ed0
   878 0001:00009ef0   879 0001:00009f13   881 0001:00009f1e   883 0001:00009f31
   885 0001:00009f49   887 0001:00009f4b   889 0001:00009f6e   894 0001:00009f90
   896 0001:00009fb7   898 0001:00009feb   900 0001:00009ff5   901 0001:0000a007
   903 0001:0000a00d   904 0001:0000a01a   907 0001:0000a01b   910 0001:0000a025
   911 0001:0000a03f   912 0001:0000a058   913 0001:0000a073   914 0001:0000a09b
   917 0001:0000a0aa   918 0001:0000a0b6   919 0001:0000a0c2   921 0001:0000a0cc
   922 0001:0000a0d8   925 0001:0000a170   926 0001:0000a197   927 0001:0000a1b7
   929 0001:0000a1d2   930 0001:0000a1e4   932 0001:0000a1ea   933 0001:0000a1f7
   936 0001:0000a1f8   938 0001:0000a205   941 0001:0000a20e   942 0001:0000a228
   943 0001:0000a241   944 0001:0000a260   945 0001:0000a288   947 0001:0000a297
   949 0001:0000a299   952 0001:0000a2a2   953 0001:0000a2ae   954 0001:0000a2ba
   956 0001:0000a2c4   958 0001:0000a2d0   961 0001:0000a330   962 0001:0000a357
   964 0001:0000a362   966 0001:0000a397   968 0001:0000a3ae   969 0001:0000a3c0
   971 0001:0000a3c6   972 0001:0000a3d3   975 0001:0000a3d4   977 0001:0000a3e1
   980 0001:0000a3ea   981 0001:0000a404   983 0001:0000a41d   984 0001:0000a43f
   985 0001:0000a467   987 0001:0000a476   989 0001:0000a478   992 0001:0000a481
   993 0001:0000a48d   994 0001:0000a499   996 0001:0000a4a3   999 0001:0000a4af
  1000 0001:0000a4be  1003 0001:0000a520  1004 0001:0000a547  1005 0001:0000a567
  1007 0001:0000a57f  1008 0001:0000a591  1010 0001:0000a597  1011 0001:0000a5a4
  1014 0001:0000a5a5  1016 0001:0000a5af  1019 0001:0000a5b9  1020 0001:0000a5d3
  1021 0001:0000a5ec  1022 0001:0000a607  1023 0001:0000a62f  1025 0001:0000a63e
  1027 0001:0000a640  1030 0001:0000a64a  1031 0001:0000a656  1033 0001:0000a660
  1035 0001:0000a66c  1039 0001:0000a6c0  1040 0001:0000a6e3  1042 0001:0000a6ee
  1043 0001:0000a6f5  1044 0001:0000a6fc  1045 0001:0000a703  1046 0001:0000a70a
  1047 0001:0000a711  1051 0001:0000a718  1052 0001:0000a732  1053 0001:0000a73f
  1056 0001:0000a74c  1058 0001:0000a754  1059 0001:0000a75b  1061 0001:0000a76f
  1062 0001:0000a781  1064 0001:0000a78b  1065 0001:0000a7a1  1067 0001:0000a7a7
  1068 0001:0000a7b4  1071 0001:0000a7b6  1073 0001:0000a7bf  1075 0001:0000a7cc
  1077 0001:0000a7de  1079 0001:0000a80f  1080 0001:0000a81d  1081 0001:0000a82b
  1082 0001:0000a839  1085 0001:0000a845  1087 0001:0000a85a  1091 0001:0000a873
  1093 0001:0000a8b4  1095 0001:0000a8c3  1097 0001:0000a8c5  1099 0001:0000a8f6
  1100 0001:0000a904  1101 0001:0000a912  1102 0001:0000a920  1106 0001:0000a92c
  1107 0001:0000a93f  1110 0001:0000a944  1114 0001:0000a953  1116 0001:0000a968
  1118 0001:0000a970  1121 0001:0000a975

Line numbers for .\debug\OleDBThread.obj(d:\corum\develop_v1\oledbthreadnew\oledbthread.h) segment .text

    45 0001:000064d0    48 0001:00006510    43 0001:00006800    44 0001:00006840
    46 0001:00006b40    47 0001:00006b70    49 0001:00006ba0

Line numbers for .\debug\OleDBThread.obj(d:\corum\develop_v1\oledbthreadnew\oledbthreadcls.h) segment .text

   107 0001:00002830   109 0001:00002870   111 0001:000028b0

Line numbers for .\debug\OleDBThread.obj(d:\corum\develop_v1\oledbthreadnew\oledbthread.cpp) segment .text

    31 0001:00000570    32 0001:0000058e    33 0001:00000594    34 0001:0000059c
    39 0001:000005c0    40 0001:000005f8    41 0001:00000601    42 0001:0000060b
    43 0001:00000615    44 0001:0000061f    45 0001:00000629    46 0001:00000633
    47 0001:0000063d    48 0001:00000649    50 0001:00000652    52 0001:0000065c
    54 0001:0000066a    55 0001:000006d5    57 0001:000006de    58 0001:000006f2
    61 0001:000006f3    64 0001:00000720    68 0001:00000767    69 0001:0000076e
    74 0001:00000775    75 0001:00000799    76 0001:0000079f    78 0001:000007a9
    80 0001:000007b0    81 0001:000007d4    84 0001:000007fd    85 0001:00000807
    86 0001:00000810    87 0001:00000830    88 0001:0000083a    91 0001:00000880
    92 0001:0000088a    93 0001:00000893    94 0001:000008ac    95 0001:000008b6
    98 0001:000008fc    99 0001:00000906   100 0001:0000090f   101 0001:00000928
   102 0001:00000932   105 0001:00000978   106 0001:00000982   107 0001:0000098b
   108 0001:000009a4   109 0001:000009ae   111 0001:000009f4   112 0001:00000a22
   113 0001:00000a2c   115 0001:00000a3f   116 0001:00000a66   118 0001:00000a78
   119 0001:00000a9f   122 0001:00000ab1   123 0001:00000acd   126 0001:00000adf
   127 0001:00000b06   131 0001:00000b15   132 0001:00000b41   136 0001:00000b50
   137 0001:00000b7c   142 0001:00000b9a   143 0001:00000ba0   145 0001:00000bac
   146 0001:00000bd8   147 0001:00000bee   148 0001:00000c04   150 0001:00000c26
   152 0001:00000c2f   156 0001:00000cd0   158 0001:00000d17   159 0001:00000d1e
   160 0001:00000d25   163 0001:00000d2c   166 0001:00000d36   167 0001:00000d5a
   168 0001:00000d60   170 0001:00000d6a   172 0001:00000d71   173 0001:00000d95
   176 0001:00000dbe   177 0001:00000dc8   178 0001:00000dd1   179 0001:00000df1
   180 0001:00000dfb   183 0001:00000e41   184 0001:00000e4b   185 0001:00000e54
   186 0001:00000e6d   187 0001:00000e77   190 0001:00000ebd   191 0001:00000ec7
   192 0001:00000ed0   193 0001:00000ee9   194 0001:00000ef3   197 0001:00000f39
   198 0001:00000f43   199 0001:00000f4c   200 0001:00000f65   201 0001:00000f6f
   204 0001:00000fb5   205 0001:00000fbf   206 0001:00000fc8   207 0001:00000fd1
   208 0001:00000fdb   211 0001:00001021   213 0001:00001027   214 0001:0000102e
   215 0001:00001034   216 0001:0000103a   217 0001:00001041   219 0001:00001075
   221 0001:00001077   224 0001:00001081   225 0001:000010af   226 0001:000010bb
   228 0001:000010ce   229 0001:000010dd   230 0001:000010e6   231 0001:000010ed
   233 0001:0000110a   234 0001:00001113   236 0001:00001134   237 0001:0000115b
   239 0001:0000116d   240 0001:00001194   243 0001:000011a6   244 0001:000011c2
   247 0001:000011d4   248 0001:000011fb   252 0001:0000120a   253 0001:00001236
   257 0001:00001245   258 0001:00001271   263 0001:0000128f   264 0001:00001295
   266 0001:000012a1   267 0001:000012cd   268 0001:000012e3   269 0001:000012f9
   271 0001:0000131b   273 0001:00001324   276 0001:000013f0   277 0001:00001413
   281 0001:0000141a   282 0001:00001421   283 0001:00001427   284 0001:0000143d
   285 0001:00001444   287 0001:00001478   288 0001:0000149a   289 0001:000014a1
   291 0001:000014a7   293 0001:000014cb   295 0001:000014de   296 0001:000014e7
   299 0001:00001550   300 0001:00001573   301 0001:0000157a   302 0001:00001581
   303 0001:00001588   304 0001:0000158f   305 0001:00001596   306 0001:0000159d
   307 0001:000015a4   308 0001:000015ab   309 0001:000015b2   310 0001:000015b9
   313 0001:000015c3   315 0001:000015cc   318 0001:000015d3   320 0001:000015ee
   321 0001:0000161a   323 0001:00001633   324 0001:0000165a   326 0001:00001673
   327 0001:00001691   330 0001:00001698   331 0001:000016b8   334 0001:000016d1
   337 0001:000016f2   339 0001:00001707   340 0001:00001723   342 0001:0000172c
   343 0001:00001740   346 0001:00001747   349 0001:00001753   352 0001:00001777
   354 0001:000017a1   355 0001:000017bf   356 0001:000017d8   357 0001:000017f2
   358 0001:0000180c   359 0001:00001826   360 0001:00001840   361 0001:0000185a
   362 0001:00001874   363 0001:0000189a   364 0001:000018b4   365 0001:000018dc
   366 0001:00001902   368 0001:00001928   370 0001:00001946   371 0001:0000196e
   373 0001:00001987   375 0001:00001989   377 0001:000019af   379 0001:000019c5
   381 0001:000019ca   384 0001:000019d6   385 0001:000019f9   388 0001:00001a16
   390 0001:00001a49   391 0001:00001a67   396 0001:00001a75   399 0001:00001a9a
   400 0001:00001aa4   402 0001:00001aae   403 0001:00001ad0   405 0001:00001ae1
   408 0001:00001afa   411 0001:00001b04   413 0001:00001b2e   415 0001:00001b39
   416 0001:00001b5c   420 0001:00001b61   421 0001:00001b94   422 0001:00001ba3
   423 0001:00001bb2   426 0001:00001bb7   429 0001:00001bda   430 0001:00001bff
   434 0001:00001c04   435 0001:00001c29   436 0001:00001c3a   438 0001:00001c5b
   439 0001:00001c6a   442 0001:00001c79   443 0001:00001c91   445 0001:00001cac
   446 0001:00001ccd   447 0001:00001ce8   449 0001:00001cf2   451 0001:00001d07
   452 0001:00001d0d   455 0001:00001e00   456 0001:00001e23   457 0001:00001e2a
   458 0001:00001e31   459 0001:00001e38   460 0001:00001e3f   462 0001:00001e46
   463 0001:00001e6d   465 0001:00001e86   466 0001:00001ea4   469 0001:00001eab
   470 0001:00001ecb   473 0001:00001ee1   476 0001:00001f02   477 0001:00001f17
   479 0001:00001f2c   480 0001:00001f2f   483 0001:00001fd0   484 0001:00001ff3
   485 0001:00001ffa   486 0001:00002001   487 0001:00002008   488 0001:0000200f
   489 0001:00002016   490 0001:0000201d   491 0001:00002024   492 0001:0000202b
   493 0001:00002032   494 0001:00002039   496 0001:00002043   497 0001:0000206a
   499 0001:00002083   500 0001:000020a1   503 0001:000020a8   505 0001:000020ae
   506 0001:000020c2   510 0001:000020c9   511 0001:000020e9   514 0001:00002102
   515 0001:00002123   517 0001:00002138   518 0001:00002150   520 0001:00002159
   521 0001:0000216d   526 0001:00002174   528 0001:00002180   530 0001:00002191
   531 0001:000021ac   533 0001:000021c4   535 0001:000021d0   536 0001:000021e4
   539 0001:000021e5   541 0001:000021ee   542 0001:00002202   549 0001:00002203
   551 0001:0000222d   552 0001:0000224b   553 0001:00002264   554 0001:0000227e
   555 0001:00002298   556 0001:000022b2   557 0001:000022cc   558 0001:000022e6
   559 0001:00002300   560 0001:00002326   561 0001:00002340   562 0001:00002368
   563 0001:0000238e   567 0001:000023b4   569 0001:000023d2   570 0001:000023fa
   572 0001:00002413   574 0001:00002415   576 0001:0000243b   578 0001:00002451
   580 0001:00002456   583 0001:00002462   584 0001:00002485   586 0001:0000248b
   588 0001:00002497   589 0001:000024a3   591 0001:000024bf   592 0001:000024c8
   594 0001:000024e1   595 0001:000024ea   597 0001:00002503   601 0001:0000250a
   603 0001:0000253d   604 0001:0000254b   606 0001:00002551   607 0001:00002565
   616 0001:00002566   617 0001:00002570   619 0001:0000257a   622 0001:0000259f
   625 0001:000025a9   627 0001:000025d3   629 0001:000025de   630 0001:00002601
   634 0001:00002606   635 0001:00002639   636 0001:00002648   638 0001:00002657
   641 0001:0000265c   644 0001:0000267f   645 0001:000026a4   649 0001:000026a9
   650 0001:000026b8   653 0001:000026c7   654 0001:000026cd   656 0001:000026dc
   657 0001:000026fd   658 0001:00002718   660 0001:00002722   662 0001:00002737
   663 0001:0000273d   666 0001:000028f0   667 0001:00002913   668 0001:00002919
   670 0001:0000291d   671 0001:00002938   673 0001:00002953   675 0001:0000296b
   676 0001:00002970   680 0001:00002990   681 0001:000029b3   682 0001:000029ba
   683 0001:000029c1   684 0001:000029c8   685 0001:000029cf   686 0001:000029d6
   687 0001:000029dd   688 0001:000029e4   689 0001:000029eb   690 0001:000029f2
   691 0001:000029f9   692 0001:00002a3b   693 0001:00002a47   695 0001:00002a51
   697 0001:00002a5a   700 0001:00002a64   701 0001:00002a8b   703 0001:00002aa7
   704 0001:00002ac5   707 0001:00002acf   708 0001:00002aef   711 0001:00002b0b
   714 0001:00002b2c   717 0001:00002b41   720 0001:00002b62   722 0001:00002b8c
   723 0001:00002ba7   724 0001:00002bbd   725 0001:00002bd4   726 0001:00002beb
   727 0001:00002c02   728 0001:00002c19   729 0001:00002c30   730 0001:00002c47
   731 0001:00002c6c   732 0001:00002c83   733 0001:00002ca6   735 0001:00002cc9
   737 0001:00002ce5   738 0001:00002d0a   740 0001:00002d23   742 0001:00002d25
   744 0001:00002d48   746 0001:00002d5e   749 0001:00002d63   750 0001:00002d86
   752 0001:00002d8c   753 0001:00002d96   754 0001:00002db1   755 0001:00002dc6
   756 0001:00002dd2   760 0001:00002ddc   763 0001:00002e0c   764 0001:00002e16
   767 0001:00002e20   770 0001:00002e48   773 0001:00002e52   778 0001:00002e7c
   780 0001:00002e87   781 0001:00002ead   784 0001:00002eb2   785 0001:00002ee3
   786 0001:00002ef2   788 0001:00002f01   791 0001:00002f06   794 0001:00002f2c
   795 0001:00002f54   798 0001:00002f59   799 0001:00002f7a   800 0001:00002f95
   802 0001:00002f9f   804 0001:00002fba   806 0001:00002fcf   807 0001:00002fd5
   810 0001:000030e0   811 0001:00003103   812 0001:0000310a   813 0001:00003111
   814 0001:00003118   815 0001:0000311f   816 0001:00003126   817 0001:0000312d
   818 0001:00003134   819 0001:0000313b   820 0001:00003153   821 0001:0000316c
   822 0001:000031ae   826 0001:000031ba   827 0001:000031c4   828 0001:000031ce
   829 0001:000031d8   830 0001:000031e2   831 0001:000031ec   832 0001:000031f6
   833 0001:00003200   834 0001:0000320a   835 0001:00003214   836 0001:0000321e
   837 0001:00003228   838 0001:00003232   839 0001:0000323b   840 0001:00003242
   845 0001:00003249   846 0001:0000326f   849 0001:0000328b   850 0001:000032bb
   852 0001:000032d7   853 0001:000032f7   855 0001:00003313   856 0001:0000333e
   858 0001:0000335a   859 0001:00003383   861 0001:0000339f   864 0001:000033a9
   866 0001:000033d3   868 0001:000033db   869 0001:00003401   872 0001:00003406
   873 0001:0000340f   875 0001:0000343d   876 0001:00003458   877 0001:0000347e
   878 0001:00003489   879 0001:00003492   881 0001:00003497   882 0001:000034bd
   883 0001:000034e3   887 0001:000034e8   888 0001:000034fd   889 0001:00003518
   890 0001:0000352d   892 0001:00003542   893 0001:00003545   896 0001:00003650
   898 0001:00003673   899 0001:0000367a   900 0001:00003681   901 0001:00003688
   902 0001:0000368f   903 0001:00003696   904 0001:0000369d   905 0001:000036a4
   906 0001:000036ab   907 0001:000036c3   908 0001:000036dc   909 0001:0000371e
   913 0001:0000372a   914 0001:00003734   915 0001:0000373e   916 0001:00003748
   917 0001:00003752   918 0001:0000375c   919 0001:00003766   920 0001:00003770
   921 0001:0000377a   922 0001:00003784   923 0001:0000378e   924 0001:00003798
   925 0001:000037a2   926 0001:000037ab   927 0001:000037b2   931 0001:000037b9
   932 0001:000037df   936 0001:000037fb   938 0001:00003805   939 0001:00003829
   944 0001:0000384b   945 0001:00003865   948 0001:0000386e   949 0001:000038a8
   951 0001:000038c4   952 0001:000038e4   954 0001:00003900   955 0001:0000392b
   957 0001:00003947   958 0001:00003970   960 0001:0000398c   963 0001:00003996
   965 0001:000039c0   967 0001:000039c8   968 0001:000039ee   971 0001:000039f3
   972 0001:000039fc   974 0001:00003a2a   975 0001:00003a45   976 0001:00003a6b
   977 0001:00003a76   978 0001:00003a7f   980 0001:00003a84   981 0001:00003aaa
   982 0001:00003ad0   986 0001:00003ad5   987 0001:00003aea   988 0001:00003b05
   989 0001:00003b1a   991 0001:00003b2f   992 0001:00003b32   995 0001:00003c50
   996 0001:00003c73   997 0001:00003c79  1001 0001:00003c7d  1003 0001:00003cbf
  1004 0001:00003cc4  1007 0001:00003ce0  1008 0001:00003d03  1009 0001:00003d0a
  1011 0001:00003d11  1012 0001:00003d38  1014 0001:00003d51  1015 0001:00003d6f
  1017 0001:00003d73  1018 0001:00003d76  1021 0001:00003dc0  1022 0001:00003de3
  1023 0001:00003e02  1025 0001:00003e0f  1027 0001:00003e2e  1028 0001:00003e3f
  1029 0001:00003e50  1030 0001:00003e61  1031 0001:00003e72  1032 0001:00003e83
  1033 0001:00003e94  1034 0001:00003ea5  1035 0001:00003eb6  1036 0001:00003ec4
  1037 0001:00003ed6  1038 0001:00003ee7  1039 0001:00003ef5  1041 0001:00003efa
  1042 0001:00003efd  1045 0001:00003f20  1046 0001:00003f43  1048 0001:00003f61
  1049 0001:00003f66  1052 0001:00003f80  1053 0001:00003fa3  1054 0001:00003faa
  1056 0001:00003fb1  1057 0001:00003fb8  1058 0001:00003fbf  1061 0001:00003fc6
  1062 0001:00003fed  1064 0001:00003ff3  1065 0001:00003ffd  1066 0001:00004009
  1080 0001:00004013  1081 0001:0000403c  1083 0001:00004042  1084 0001:0000404c
  1085 0001:00004058  1089 0001:00004062  1090 0001:0000407d  1092 0001:00004092
  1093 0001:000040c5  1095 0001:000040cb  1096 0001:000040d7  1097 0001:000040e1
  1103 0001:000040eb  1104 0001:000040f1  1105 0001:000040f8  1107 0001:000040fe
  1109 0001:0000411e  1110 0001:0000413f  1111 0001:0000415a  1112 0001:00004164
  1118 0001:0000416b  1119 0001:0000418c  1120 0001:000041a7  1122 0001:000041b1
  1123 0001:000041b4  1129 0001:00004230  1130 0001:00004253  1131 0001:0000426d
  1134 0001:0000428d  1135 0001:00004297  1139 0001:000042c5  1141 0001:000042cf
  1143 0001:000042d9  1144 0001:000042e3  1145 0001:000042ed  1147 0001:000042f7
  1148 0001:00004301  1150 0001:0000430b  1152 0001:00004315  1154 0001:0000431f
  1157 0001:00004329  1163 0001:00004333  1164 0001:00004361  1165 0001:0000436b
  1168 0001:00004377  1169 0001:00004383  1170 0001:00004390  1171 0001:0000439d
  1172 0001:000043db  1173 0001:000043e7  1176 0001:000043f4  1177 0001:00004420
  1179 0001:00004442  1180 0001:0000446c  1182 0001:0000448e  1183 0001:000044bb
  1185 0001:000044c4  1186 0001:000044df  1187 0001:000044ee  1190 0001:000044f8
  1191 0001:0000451c  1194 0001:00004526  1195 0001:00004530  1196 0001:0000453a
  1197 0001:00004544  1198 0001:0000454e  1199 0001:00004558  1200 0001:00004564
  1201 0001:0000456e  1202 0001:00004578  1203 0001:00004582  1204 0001:0000458c
  1205 0001:00004596  1206 0001:000045a0  1207 0001:000045a9  1208 0001:000045b0
  1211 0001:000045b7  1212 0001:000045e3  1214 0001:000045ec  1215 0001:00004607
  1216 0001:00004616  1219 0001:00004620  1220 0001:0000465c  1222 0001:00004665
  1223 0001:00004680  1224 0001:0000469b  1225 0001:000046aa  1228 0001:000046b4
  1229 0001:000046e0  1231 0001:000046ed  1232 0001:00004708  1233 0001:0000472c
  1234 0001:00004747  1236 0001:00004751  1237 0001:00004780  1238 0001:0000479b
  1239 0001:000047b6  1240 0001:000047c5  1243 0001:000047cf  1245 0001:00004804
  1248 0001:0000483c  1252 0001:00004845  1255 0001:00004850  1256 0001:0000487a
  1259 0001:0000489e  1260 0001:000048bf  1262 0001:000048e1  1263 0001:0000490b
  1265 0001:0000492d  1266 0001:00004948  1268 0001:00004952  1269 0001:00004987
  1271 0001:000049a6  1272 0001:000049c1  1274 0001:000049dc  1275 0001:000049e2
  1278 0001:00004b70  1279 0001:00004b93  1281 0001:00004bae  1283 0001:00004bcd
  1285 0001:00004bd3  1286 0001:00004beb  1290 0001:00004bf5  1292 0001:00004c1d
  1294 0001:00004c23  1295 0001:00004c3b  1299 0001:00004c45  1301 0001:00004c6a
  1302 0001:00004c7d  1303 0001:00004c95  1306 0001:00004c9c  1307 0001:00004caf
  1308 0001:00004cc7  1309 0001:00004cca  1313 0001:00004d10  1316 0001:00004d33
  1318 0001:00004d5b  1320 0001:00004d61  1323 0001:00004d6b  1324 0001:00004d72
  1326 0001:00004d8a  1328 0001:00004d90  1329 0001:00004da3  1332 0001:00004dad
  1334 0001:00004dc8  1335 0001:00004dcf  1337 0001:00004df4  1338 0001:00004e07
  1341 0001:00004e1f  1343 0001:00004e32  1344 0001:00004e51  1346 0001:00004e57
  1347 0001:00004e6f  1350 0001:00004e76  1351 0001:00004e8e  1352 0001:00004e91
  1356 0001:00004ee0  1357 0001:00004f18  1358 0001:00004f32  1361 0001:00004f52
  1362 0001:00004f5c  1365 0001:00004f8a  1367 0001:00004f94  1369 0001:00004f9e
  1370 0001:00004fa8  1371 0001:00004fb2  1372 0001:00004fbc  1374 0001:00004fc6
  1375 0001:00004fd0  1376 0001:00004fda  1379 0001:00004fe4  1380 0001:00004fee
  1388 0001:00004ff8  1389 0001:00005026  1390 0001:00005032  1393 0001:0000503e
  1394 0001:0000504a  1395 0001:00005057  1396 0001:00005064  1397 0001:000050a2
  1398 0001:000050ae  1401 0001:000050bb  1402 0001:000050e7  1404 0001:00005109
  1405 0001:00005138  1407 0001:0000515a  1409 0001:00005187  1411 0001:00005190
  1412 0001:000051ab  1413 0001:000051ba  1416 0001:000051c4  1418 0001:000051e8
  1419 0001:00005203  1423 0001:0000520d  1424 0001:00005217  1425 0001:00005221
  1426 0001:0000522b  1427 0001:00005235  1428 0001:0000523f  1429 0001:0000524b
  1430 0001:00005255  1431 0001:0000525f  1432 0001:00005269  1433 0001:00005273
  1434 0001:0000527d  1435 0001:00005287  1436 0001:00005290  1437 0001:00005297
  1440 0001:0000529e  1441 0001:000052ca  1443 0001:000052d3  1444 0001:000052ee
  1445 0001:000052fd  1448 0001:00005307  1449 0001:00005343  1451 0001:0000534c
  1452 0001:00005367  1453 0001:00005382  1454 0001:00005391  1458 0001:0000539b
  1459 0001:000053c7  1461 0001:000053d4  1462 0001:000053ef  1463 0001:00005413
  1464 0001:0000542e  1466 0001:00005438  1467 0001:00005467  1468 0001:00005482
  1469 0001:0000549d  1470 0001:000054ac  1473 0001:000054b6  1475 0001:000054eb
  1481 0001:00005547  1483 0001:0000556c  1484 0001:00005578  1485 0001:00005582
  1488 0001:000055a2  1489 0001:000055da  1491 0001:000055e7  1492 0001:00005602
  1493 0001:00005626  1494 0001:00005641  1496 0001:0000564b  1497 0001:0000567a
  1498 0001:00005695  1499 0001:000056b0  1501 0001:000056bf  1503 0001:0000570e
  1506 0001:00005718  1508 0001:00005733  1509 0001:0000575d  1511 0001:0000577f
  1512 0001:0000579a  1514 0001:000057a4  1515 0001:000057d9  1517 0001:000057fb
  1518 0001:00005816  1520 0001:00005831  1522 0001:00005880  1523 0001:00005886
  1526 0001:00005a00  1527 0001:00005a27  1529 0001:00005a39  1530 0001:00005a40
  1531 0001:00005a47  1532 0001:00005a4e  1533 0001:00005a55  1534 0001:00005a5c
  1537 0001:00005a6a  1538 0001:00005a70  1541 0001:00005a75  1543 0001:00005a82
  1544 0001:00005aa8  1546 0001:00005ab2  1547 0001:00005ac7  1549 0001:00005acd
  1550 0001:00005ad3  1552 0001:00005ae8  1555 0001:00005aed  1556 0001:00005b0a
  1559 0001:00005b23  1562 0001:00005b41  1566 0001:00005b61  1570 0001:00005b85
  1571 0001:00005b8f  1573 0001:00005b99  1574 0001:00005bb5  1580 0001:00005bd1
  1585 0001:00005beb  1587 0001:00005c1b  1588 0001:00005c34  1589 0001:00005c3e
  1590 0001:00005c7e  1592 0001:00005c8c  1595 0001:00005ca5  1596 0001:00005cbb
  1597 0001:00005cd1  1598 0001:00005ce6  1601 0001:00005ceb  1602 0001:00005d00
  1604 0001:00005d15  1605 0001:00005d1b  1608 0001:00005d30  1611 0001:00005e60
  1612 0001:00005e87  1614 0001:00005e99  1615 0001:00005ea0  1616 0001:00005ea7
  1617 0001:00005eae  1618 0001:00005eb5  1619 0001:00005ebc  1622 0001:00005eca
  1623 0001:00005ed0  1626 0001:00005ed5  1627 0001:00005efb  1629 0001:00005f05
  1630 0001:00005f1a  1632 0001:00005f20  1633 0001:00005f26  1635 0001:00005f3b
  1638 0001:00005f40  1639 0001:00005f5d  1642 0001:00005f76  1645 0001:00005f94
  1649 0001:00005fb4  1651 0001:00005fd8  1652 0001:00005fe2  1654 0001:00005fec
  1655 0001:00006008  1657 0001:00006024  1660 0001:0000603e  1662 0001:00006072
  1663 0001:0000608b  1664 0001:00006095  1665 0001:000060d5  1667 0001:000060e3
  1670 0001:000060fc  1671 0001:00006112  1672 0001:00006128  1673 0001:0000613d
  1676 0001:00006142  1677 0001:00006157  1679 0001:0000616c  1680 0001:00006172
  1682 0001:00006187  1685 0001:000062c0  1686 0001:000062e3  1687 0001:00006307
  1688 0001:0000632b  1689 0001:0000634f  1690 0001:00006373  1692 0001:00006397
  1694 0001:0000639f  1695 0001:000063bb  1697 0001:000063c1  1698 0001:000063cd
  1700 0001:000063f8  1703 0001:00006411  1704 0001:0000641a  1706 0001:0000645a
  1709 0001:00006472  1711 0001:00006487  1712 0001:000064a1  1714 0001:000064b9
  1718 0001:000065a0  1721 0001:000065e0  1722 0001:000065e7  1724 0001:000065ee
  1726 0001:000065f5  1729 0001:0000660d  1735 0001:0000663e  1737 0001:000066b1
  1740 0001:000066b3  1741 0001:000066e2  1744 0001:000066e4  1748 0001:00006713
  1749 0001:00006719  1751 0001:00006721  1753 0001:00006729  1755 0001:0000672f
  1756 0001:00006750  1759 0001:00006769  1762 0001:00006771  1764 0001:0000678f
  1766 0001:00006795  1769 0001:00006880  1772 0001:000068a7  1774 0001:000068c9
  1775 0001:000068d9  1777 0001:000068e0  1778 0001:000068f2  1780 0001:00006904
  1782 0001:00006914  1784 0001:00006926  1785 0001:00006936  1786 0001:00006938
  1789 0001:0000693a  1792 0001:0000694e  1793 0001:00006968  1794 0001:00006996
  1796 0001:000069cd  1797 0001:000069e7  1799 0001:00006a02  1800 0001:00006a1b
  1801 0001:00006a25  1802 0001:00006a65  1804 0001:00006a73  1807 0001:00006a8c
  1810 0001:00006ab5  1813 0001:00006aba

Line numbers for .\debug\Factory.obj(c:\program files\microsoft visual studio .net 2003\vc7\platformsdk\include\guiddef.h) segment .text

   193 0001:000001c0   194 0001:000001de   195 0001:000001ee   160 0001:00000210
   161 0001:0000022e   162 0001:00000245

Line numbers for .\debug\Factory.obj(d:\corum\develop_v1\oledbthreadnew\factory.cpp) segment .text

     9 0001:00000000    10 0001:00000034    11 0001:0000003e    14 0001:000000e0
    16 0001:0000010c    19 0001:00000120    20 0001:0000013e    21 0001:00000145
    23 0001:0000014e    24 0001:00000178    26 0001:00000180    27 0001:00000188
    28 0001:0000019d    31 0001:000001a4    32 0001:000001a7    35 0001:00000260
    36 0001:0000027e    37 0001:00000293    40 0001:000002a0    41 0001:000002be
    42 0001:000002d6    43 0001:00000313    44 0001:00000319    47 0001:00000390
    48 0001:000003c3    49 0001:000003ca    50 0001:000003d1    52 0001:000003da
    53 0001:000003e0    54 0001:000003e7    56 0001:000003ec    57 0001:00000448
    59 0001:0000044e    60 0001:0000046d    62 0001:00000473    65 0001:000004b0
    66 0001:000004b2    69 0001:000004b9    70 0001:000004bc    73 0001:00000540
    76 0001:0000055e    77 0001:00000560

Line numbers for C:\Program Files\Microsoft Visual Studio .NET 2003\Vc7\lib\LIBCMTD.lib(f:\vs70builds\3077\vc\crtbld\crt\src\tzset.c) segment .text

    88 0001:000259a0    91 0001:000259c3    93 0001:000259cc    94 0001:000259d6
    96 0001:000259dd    97 0001:000259e6    98 0001:000259eb   102 0001:00025a06
   106 0001:00025a11   113 0001:00025a30   114 0001:00025a53   115 0001:00025a5d
   117 0001:00025a64   120 0001:00025a77   122 0001:00025a82   135 0001:00025aa0
   138 0001:00025ac3   141 0001:00025aca   142 0001:00025ad4   147 0001:00025adb
   152 0001:00025ae3   158 0001:00025aed   163 0001:00025b03   173 0001:00025b27
   174 0001:00025b30   175 0001:00025b41   178 0001:00025b4b   182 0001:00025b5f
   187 0001:00025b69   189 0001:00025b78   190 0001:00025b83   198 0001:00025b98
   200 0001:00025bac   202 0001:00025bb6   204 0001:00025bc9   205 0001:00025bcb
   213 0001:00025bd5   233 0001:00025bdf   234 0001:00025c0b   235 0001:00025c15
   236 0001:00025c17   246 0001:00025c20   247 0001:00025c4c   248 0001:00025c55
   249 0001:00025c57   256 0001:00025c6e   260 0001:00025c73   266 0001:00025ca0
   272 0001:00025ca5   273 0001:00025cae   275 0001:00025cbe   277 0001:00025cfe
   279 0001:00025d03   282 0001:00025d24   289 0001:00025d2f   290 0001:00025d43
   299 0001:00025d4d   300 0001:00025d61   301 0001:00025d6a   307 0001:00025d73
   309 0001:00025d8a   314 0001:00025db6   318 0001:00025dc5   319 0001:00025de8
   324 0001:00025e09   328 0001:00025e14   329 0001:00025e34   333 0001:00025e55
   334 0001:00025e5b   339 0001:00025e67   340 0001:00025e7c   341 0001:00025e91
   343 0001:00025e9b   344 0001:00025e9d   346 0001:00025ea5   523 0001:00025ec0
   526 0001:00025ee3   527 0001:00025eed   528 0001:00025ef4   530 0001:00025f11
   533 0001:00025f1c   534 0001:00025f1f   540 0001:00025f30   543 0001:00025f34
   544 0001:00025f3d   551 0001:00025f44   552 0001:00025f64   556 0001:00025f71
   567 0001:00025f7c   568 0001:00025fc9   579 0001:00025fcb   583 0001:00026012
   594 0001:0002601d   595 0001:0002606a   606 0001:0002606c   609 0001:000260b3
   624 0001:000260b5   636 0001:000260d8   643 0001:000260fb   647 0001:00026109
   648 0001:00026125   649 0001:0002612c   650 0001:00026148   652 0001:00026152
   656 0001:00026154   657 0001:00026170   658 0001:00026177   659 0001:00026193
   662 0001:00026197   664 0001:000261be   665 0001:000261cc   666 0001:000261d7
   668 0001:000261de   674 0001:000261e2   675 0001:000261ed   677 0001:000261f4
   680 0001:000261f6   395 0001:00026200   399 0001:00026208   409 0001:00026212
   415 0001:0002626d   420 0001:000262be   421 0001:000262c6   422 0001:000262dd
   423 0001:000262df   432 0001:000262f3   434 0001:00026354   437 0001:0002635d
   442 0001:0002635f   444 0001:000263b8   447 0001:000263c1   451 0001:000263c7
   452 0001:000263d0   457 0001:000263ed   459 0001:000263f6   463 0001:000263fb
   464 0001:00026404   470 0001:00026421   471 0001:0002643b   472 0001:0002644d
   474 0001:0002645a   475 0001:00026468   476 0001:0002647a   483 0001:00026489
   487 0001:00026491

Line numbers for C:\Program Files\Microsoft Visual Studio .NET 2003\Vc7\lib\LIBCMTD.lib(f:\vs70builds\3077\vc\crtbld\crt\src\strtime.c) segment .text

    37 0001:000113e0    40 0001:000113e6    42 0001:000113f0    43 0001:000113f7
    44 0001:000113fe    48 0001:00011405    50 0001:00011413    52 0001:0001141a
    54 0001:0001142d    56 0001:00011441    58 0001:00011455    60 0001:00011469
    62 0001:0001147d    64 0001:00011491    65 0001:00011494

Line numbers for C:\Program Files\Microsoft Visual Studio .NET 2003\Vc7\lib\LIBCMTD.lib(f:\vs70builds\3077\vc\crtbld\crt\src\strdate.c) segment .text

    37 0001:000114a0    41 0001:000114a6    42 0001:000114b0    43 0001:000114b7
    44 0001:000114be    48 0001:000114cd    50 0001:000114db    52 0001:000114e2
    54 0001:000114f5    56 0001:00011509    58 0001:0001151d    60 0001:00011531
    62 0001:00011545    64 0001:00011559    65 0001:0001155c

Line numbers for C:\Program Files\Microsoft Visual Studio .NET 2003\Vc7\lib\LIBCMTD.lib(f:\vs70builds\3077\vc\crtbld\crt\src\strftime.c) segment .text

   110 0001:0001fcb0   111 0001:0001fcb7   112 0001:0001fcbf   115 0001:0001fcc6
   116 0001:0001fcde   117 0001:0001fd11   119 0001:0001fd2c   120 0001:0001fd36
   122 0001:0001fd3c   123 0001:0001fd54   124 0001:0001fd63   125 0001:0001fd88
   126 0001:0001fd97   127 0001:0001fdbd   128 0001:0001fdbf   131 0001:0001fdce
   132 0001:0001fdd1   138 0001:0001fde0   139 0001:0001fde7   140 0001:0001fdef
   143 0001:0001fdf6   144 0001:0001fe0e   145 0001:0001fe42   147 0001:0001fe60
   148 0001:0001fe6a   150 0001:0001fe70   151 0001:0001fe88   152 0001:0001fe97
   153 0001:0001febd   154 0001:0001fecc   155 0001:0001fef2   156 0001:0001fef4
   159 0001:0001ff03   160 0001:0001ff06   166 0001:0001ff10   167 0001:0001ff17
   168 0001:0001ff1f   171 0001:0001ff26   172 0001:0001ff3e   173 0001:0001ff71
   174 0001:0001ff89   175 0001:0001ffbd   176 0001:0001ffed   177 0001:00020009
   178 0001:00020025   179 0001:00020041   181 0001:00020061   182 0001:0002006b
   183 0001:00020071   185 0001:0002007d   186 0001:00020094   187 0001:000200ac
   188 0001:000200b8   189 0001:000200e1   190 0001:000200ee   191 0001:00020118
   192 0001:0002011a   193 0001:00020132   194 0001:0002013f   195 0001:00020169
   196 0001:00020176   197 0001:000201a0   198 0001:000201a2   199 0001:000201ae
   200 0001:000201d7   201 0001:000201e3   202 0001:0002020c   203 0001:00020218
   204 0001:00020241   205 0001:0002024d   206 0001:00020276   207 0001:00020282
   210 0001:00020298   211 0001:0002029b   249 0001:000202a0   250 0001:000202a3
   251 0001:000202bd   292 0001:000202c0   294 0001:000202c4   296 0001:000202cf
   297 0001:000202da   300 0001:000202e2   301 0001:00020302   311 0001:00020310
   315 0001:00020316   322 0001:0002031d   325 0001:0002033a   327 0001:00020340
   328 0001:00020365   332 0001:0002036c   339 0001:00020372   341 0001:0002037c
   347 0001:00020392   354 0001:00020397   357 0001:000203a0   358 0001:000203a7
   360 0001:000203b2   361 0001:000203b9   368 0001:000203c2   370 0001:000203ec
   371 0001:000203f3   374 0001:000203f8   375 0001:00020401   387 0001:00020406
   390 0001:00020424   392 0001:0002042f   393 0001:00020454   394 0001:0002045b
   398 0001:0002045d   399 0001:00020479   404 0001:00020482   405 0001:0002049e
   408 0001:000204a7   416 0001:000204ac   421 0001:000204b8   422 0001:000204be
   426 0001:000204c6   429 0001:000204cc   433 0001:000204d5   436 0001:000204db
   438 0001:000204dd   477 0001:000204f0   487 0001:000204f7   491 0001:00020522
   492 0001:0002053f   496 0001:00020544   497 0001:00020562   501 0001:00020567
   502 0001:00020585   506 0001:0002058a   507 0001:000205a8   510 0001:000205ad
   516 0001:000205b7   518 0001:000205d9   521 0001:000205e0   522 0001:000205e8
   523 0001:000205ef   524 0001:00020604   529 0001:00020611   531 0001:00020633
   535 0001:0002063a   540 0001:0002063f   542 0001:00020661   544 0001:00020668
   545 0001:00020670   546 0001:00020677   547 0001:0002068c   552 0001:00020699
   554 0001:000206bb   557 0001:000206c2   562 0001:000206c7   563 0001:000206e4
   568 0001:000206e9   569 0001:00020706   572 0001:0002070b   573 0001:00020722
   575 0001:00020729   576 0001:00020743   581 0001:00020748   582 0001:00020768
   587 0001:0002076d   588 0001:0002078d   593 0001:00020792   594 0001:000207af
   597 0001:000207b4   598 0001:000207bd   599 0001:000207d7   600 0001:000207d9
   601 0001:000207f3   606 0001:000207f8   607 0001:00020814   610 0001:00020819
   611 0001:00020822   616 0001:00020824   617 0001:00020841   620 0001:00020846
   621 0001:0002084f   622 0001:00020856   623 0001:00020858   625 0001:00020864
   626 0001:0002086f   627 0001:00020876   628 0001:00020878   629 0001:00020889
   630 0001:0002089c   633 0001:000208a5   634 0001:000208bf   637 0001:000208c4
   643 0001:000208ca   645 0001:000208ec   648 0001:000208f3   654 0001:000208f5
   656 0001:00020917   659 0001:0002091e   666 0001:00020923   668 0001:00020945
   670 0001:0002094c   673 0001:00020951   675 0001:00020962   676 0001:0002097c
   680 0001:00020981   682 0001:000209aa   683 0001:000209c4   687 0001:000209c6
   689 0001:000209cb   690 0001:000209ef   693 0001:000209f1   694 0001:00020a06
   704 0001:00020a13   705 0001:00020a18   734 0001:00020ad0   736 0001:00020ad3
   737 0001:00020ae5   738 0001:00020b07   739 0001:00020b14   740 0001:00020b16
   774 0001:00020b20   775 0001:00020b24   777 0001:00020b2b   778 0001:00020b31
   779 0001:00020b45   782 0001:00020b47   783 0001:00020b51   784 0001:00020b6d
   785 0001:00020b86   786 0001:00020b94   787 0001:00020b9d   788 0001:00020b9f
   789 0001:00020bac   791 0001:00020bb9   792 0001:00020bbb   793 0001:00020bc4
   830 0001:00020bd0   835 0001:00020bd6   838 0001:00020bde   841 0001:00020be6
   842 0001:00020c02   843 0001:00020c0f   846 0001:00020c2b   847 0001:00020c33
   848 0001:00020c3b   852 0001:00020c44   853 0001:00020c4c   854 0001:00020c5f
   855 0001:00020c70   856 0001:00020c78   902 0001:00020c80   910 0001:00020ca6
   913 0001:00020cba   914 0001:00020cc6   916 0001:00020cc8   917 0001:00020cd4
   920 0001:00020cd6   924 0001:00020ce2   933 0001:00020cf2   934 0001:00020cf8
   935 0001:00020d01   936 0001:00020d03   938 0001:00020d0b   939 0001:00020d1b
   940 0001:00020d28   941 0001:00020d33   942 0001:00020d3e   943 0001:00020d49
   944 0001:00020d53   948 0001:00020d59   950 0001:00020d77   952 0001:00020d81
   956 0001:00020d88   958 0001:00020d8f   960 0001:00020db2   962 0001:00020dbb
   963 0001:00020dc0   966 0001:00020dce   968 0001:00020dd4   969 0001:00020def
   970 0001:00020df5   973 0001:00020dfc   977 0001:00020e06   980 0001:00020e28
   981 0001:00020e2e   982 0001:00020e45   983 0001:00020e67   984 0001:00020e74
   986 0001:00020e76   987 0001:00020e7c   988 0001:00020e8a   995 0001:00020e94
   997 0001:00020eae   998 0001:00020eb2  1001 0001:00020eb9  1003 0001:00020eec
  1006 0001:00020ef5  1009 0001:00020f22  1011 0001:00020f41  1012 0001:00020f48
  1013 0001:00020f4e  1014 0001:00020f54  1015 0001:00020f58  1017 0001:00020f5d
  1019 0001:00020f7c  1020 0001:00020f83  1021 0001:00020f89  1022 0001:00020f8f
  1023 0001:00020f93  1025 0001:00020f98  1027 0001:00020fac  1028 0001:00020fb2
  1029 0001:00020fb6  1031 0001:00020fbb  1033 0001:00020fcf  1034 0001:00020fd6
  1035 0001:00020fda  1037 0001:00020fdf  1039 0001:00020ff3  1040 0001:00020ffa
  1041 0001:00020ffe  1043 0001:00021003  1045 0001:00021017  1046 0001:0002101e
  1047 0001:00021022  1049 0001:00021027  1051 0001:0002103b  1052 0001:00021042
  1053 0001:00021046  1056 0001:0002104b  1057 0001:00021060  1058 0001:00021069
  1059 0001:00021080  1060 0001:00021089  1061 0001:0002108d  1063 0001:00021092
  1064 0001:0002109b  1065 0001:000210a7  1066 0001:000210a9  1068 0001:000210b5
  1075 0001:000210cb  1078 0001:000210eb  1080 0001:000210f6  1081 0001:0002111b
  1084 0001:00021122  1085 0001:00021144  1088 0001:00021151  1089 0001:00021173
  1090 0001:00021180  1091 0001:00021185  1098 0001:0002119f  1101 0001:000211be
  1103 0001:000211c9  1104 0001:000211ee  1107 0001:000211f5  1108 0001:00021217
  1110 0001:00021224  1111 0001:00021246  1112 0001:00021253  1114 0001:00021258
  1115 0001:0002125e  1118 0001:00021263  1120 0001:0002126f  1121 0001:00021278
  1123 0001:00021292  1125 0001:0002129d  1126 0001:000212a6  1133 0001:000212ab
  1136 0001:000212cb  1138 0001:000212d6  1139 0001:000212fb  1142 0001:00021302
  1143 0001:00021324  1146 0001:00021331  1147 0001:00021353  1148 0001:00021360
  1150 0001:00021365  1151 0001:00021367  1153 0001:00021370  1160 0001:00021375
  1167 0001:0002137d  1169 0001:000213a5  1171 0001:000213ac  1172 0001:000213b2
  1178 0001:000213b7  1181 0001:000213d7  1183 0001:000213e2  1184 0001:00021407
  1187 0001:0002140b  1188 0001:0002142d  1190 0001:0002143a  1191 0001:0002145c
  1193 0001:00021469  1195 0001:0002146e  1196 0001:00021473

Line numbers for C:\Program Files\Microsoft Visual Studio .NET 2003\Vc7\lib\LIBCMTD.lib(f:\vs70builds\3077\vc\crtbld\crt\src\wcslen.c) segment .text

    36 0001:0000e670    37 0001:0000e674    39 0001:0000e67a    41 0001:0000e68f
    42 0001:0000e69a

Line numbers for C:\Program Files\Microsoft Visual Studio .NET 2003\Vc7\lib\LIBCMTD.lib(F:\VS70Builds\3077\vc\crtbld\crt\src\Intel\STRSPN.ASM) segment .text

   191 0001:00022ba0   191 0001:00022ba0   198 0001:00022ba4   199 0001:00022ba6
   200 0001:00022ba7   201 0001:00022ba8   202 0001:00022ba9   203 0001:00022baa
   204 0001:00022bab   205 0001:00022bac   206 0001:00022bad   212 0001:00022bae
   216 0001:00022bb4   217 0001:00022bb6   218 0001:00022bb8   219 0001:00022bba
   220 0001:00022bbd   221 0001:00022bc1   227 0001:00022bc3   236 0001:00022bc8
   237 0001:00022bca   238 0001:00022bcc   239 0001:00022bce   240 0001:00022bd1
   247 0001:00022bd5   248 0001:00022bd7   257 0001:00022bda   259 0001:00022bdd

Line numbers for C:\Program Files\Microsoft Visual Studio .NET 2003\Vc7\lib\LIBCMTD.lib(F:\VS70Builds\3077\vc\crtbld\crt\src\intel\_strnicm.asm) segment .text

    69 0001:00028350    69 0001:00028350    75 0001:00028356    76 0001:00028359
    77 0001:0002835b    79 0001:0002835d    80 0001:00028360    82 0001:00028363
    83 0001:00028365    84 0001:00028367    89 0001:0002836c    91 0001:0002836e
    93 0001:00028370    95 0001:00028372    97 0001:00028374    98 0001:00028376
   100 0001:00028378   101 0001:0002837b   103 0001:0002837e   104 0001:00028380
   106 0001:00028382   107 0001:00028384   109 0001:00028386   112 0001:00028388
   113 0001:0002838a   115 0001:0002838c   116 0001:0002838e   118 0001:00028390
   121 0001:00028392   122 0001:00028394   124 0001:00028396   125 0001:00028399
   128 0001:0002839b   129 0001:0002839d   130 0001:0002839f   133 0001:000283a1
   134 0001:000283a6   135 0001:000283a8   138 0001:000283aa   140 0001:000283ac

Line numbers for C:\Program Files\Microsoft Visual Studio .NET 2003\Vc7\lib\LIBCMTD.lib(f:\vs70builds\3077\vc\crtbld\crt\src\strnicmp.c) segment .text

    47 0001:00026c50    50 0001:00026c56    52 0001:00026c61    53 0001:00026c6c
    56 0001:00026c74    59 0001:00026c7e    63 0001:00026c87    68 0001:00026c9d
    69 0001:00026cc2    74 0001:00026ce7    77 0001:00026d00    80 0001:00026d08
    81 0001:00026d0a

Line numbers for C:\Program Files\Microsoft Visual Studio .NET 2003\Vc7\lib\LIBCMTD.lib(F:\VS70Builds\3077\vc\crtbld\crt\src\intel\strncpy.asm) segment .text

    66 0001:0001dd70    62 0001:0001dd70    67 0001:0001dd74    68 0001:0001dd75
    69 0001:0001dd77    71 0001:0001dd7d    72 0001:0001dd7e    73 0001:0001dd7f
    74 0001:0001dd81    75 0001:0001dd85    76 0001:0001dd8b    77 0001:0001dd8f
    79 0001:0001dd91    80 0001:0001dd94    81 0001:0001dd9a    86 0001:0001dd9c
    87 0001:0001dd9e    88 0001:0001dda1    89 0001:0001dda3    90 0001:0001dda6
    91 0001:0001dda9    92 0001:0001ddab    93 0001:0001ddad    95 0001:0001ddaf
    96 0001:0001ddb5    97 0001:0001ddb7    98 0001:0001ddb9    99 0001:0001ddbc
   102 0001:0001ddbe   103 0001:0001ddc1   109 0001:0001ddc3   110 0001:0001ddc5
   111 0001:0001ddc8   112 0001:0001ddca   113 0001:0001ddcd   114 0001:0001ddcf
   115 0001:0001ddd1   116 0001:0001ddd4   118 0001:0001ddd6   119 0001:0001ddda
   120 0001:0001dddb   121 0001:0001dddc   122 0001:0001dddd   127 0001:0001ddde
   128 0001:0001dde4   130 0001:0001dde6   131 0001:0001dde8   132 0001:0001ddeb
   133 0001:0001ddee   134 0001:0001ddf4   135 0001:0001ddfa   137 0001:0001ddfc
   138 0001:0001ddfe   139 0001:0001de01   142 0001:0001de03   143 0001:0001de05
   145 0001:0001de08   146 0001:0001de0b   147 0001:0001de0d   148 0001:0001de0e
   150 0001:0001de0f   151 0001:0001de13   152 0001:0001de14   157 0001:0001de15
   158 0001:0001de17   159 0001:0001de1a   160 0001:0001de1d   163 0001:0001de1f
   164 0001:0001de24   165 0001:0001de26   166 0001:0001de28   167 0001:0001de2b
   168 0001:0001de2d   169 0001:0001de2f   170 0001:0001de32   171 0001:0001de37
   175 0001:0001de39   176 0001:0001de3b   177 0001:0001de3d   178 0001:0001de3f
   179 0001:0001de41   180 0001:0001de47   181 0001:0001de49   182 0001:0001de4f
   188 0001:0001de51   189 0001:0001de53   192 0001:0001de55   193 0001:0001de5b
   194 0001:0001de5d   197 0001:0001de5f   198 0001:0001de65   199 0001:0001de67
   202 0001:0001de69   203 0001:0001de6b   208 0001:0001de6d   209 0001:0001de70
   210 0001:0001de72   211 0001:0001de75   214 0001:0001de77   216 0001:0001de79
   217 0001:0001de7b   218 0001:0001de7e   219 0001:0001de81   221 0001:0001de83
   222 0001:0001de86   224 0001:0001de8c   225 0001:0001de90   226 0001:0001de91
   227 0001:0001de92   228 0001:0001de93

Line numbers for C:\Program Files\Microsoft Visual Studio .NET 2003\Vc7\lib\LIBCMTD.lib(F:\VS70Builds\3077\vc\crtbld\crt\src\intel\strncmp.asm) segment .text

    62 0001:00022b60    62 0001:00022b60    69 0001:00022b66    70 0001:00022b69
    72 0001:00022b6b    74 0001:00022b6d    76 0001:00022b70    77 0001:00022b72
    78 0001:00022b74    79 0001:00022b76    80 0001:00022b78    83 0001:00022b7a
    84 0001:00022b7c    85 0001:00022b7f    86 0001:00022b81    87 0001:00022b84
    89 0001:00022b86    90 0001:00022b89    91 0001:00022b8b    95 0001:00022b8d
    98 0001:00022b90   101 0001:00022b92   103 0001:00022b94

Line numbers for C:\Program Files\Microsoft Visual Studio .NET 2003\Vc7\lib\LIBCMTD.lib(F:\VS70Builds\3077\vc\crtbld\crt\src\intel\strlen.asm) segment .text

    60 0001:0000e2b0    54 0001:0000e2b0    61 0001:0000e2b4    62 0001:0000e2ba
    66 0001:0000e2bc    67 0001:0000e2be    68 0001:0000e2c1    69 0001:0000e2c3
    70 0001:0000e2c5    71 0001:0000e2cb    73 0001:0000e2cd    78 0001:0000e2e0
    79 0001:0000e2e2    80 0001:0000e2e7    81 0001:0000e2e9    82 0001:0000e2ec
    83 0001:0000e2ee    84 0001:0000e2f1    85 0001:0000e2f6    87 0001:0000e2f8
    88 0001:0000e2fb    89 0001:0000e2fd    90 0001:0000e2ff    91 0001:0000e301
    92 0001:0000e303    93 0001:0000e308    94 0001:0000e30a    95 0001:0000e30f
    96 0001:0000e311   100 0001:0000e313   101 0001:0000e316   102 0001:0000e31a
   103 0001:0000e31c   105 0001:0000e31d   106 0001:0000e320   107 0001:0000e324
   108 0001:0000e326   110 0001:0000e327   111 0001:0000e32a   112 0001:0000e32e
   113 0001:0000e330   115 0001:0000e331   116 0001:0000e334   117 0001:0000e338
   118 0001:0000e33a

Line numbers for C:\Program Files\Microsoft Visual Studio .NET 2003\Vc7\lib\LIBCMTD.lib(f:\vs70builds\3077\vc\crtbld\crt\src\stricmp.c) segment .text

    44 0001:00026ba0    48 0001:00026ba6    50 0001:00026bb1    51 0001:00026bbc
    53 0001:00026bc4    57 0001:00026bcd    62 0001:00026bdf    63 0001:00026c04
    68 0001:00026c29    71 0001:00026c37    72 0001:00026c3d

Line numbers for C:\Program Files\Microsoft Visual Studio .NET 2003\Vc7\lib\LIBCMTD.lib(F:\VS70Builds\3077\vc\crtbld\crt\src\intel\_stricmp.asm) segment .text

    61 0001:000264a0    61 0001:000264a0    68 0001:000264a6    69 0001:000264a9
    71 0001:000264ac    76 0001:000264b0    77 0001:000264b2    79 0001:000264b4
    80 0001:000264b6    81 0001:000264b9    82 0001:000264bb    84 0001:000264be
    85 0001:000264c0    87 0001:000264c2    88 0001:000264c4    89 0001:000264c6
    90 0001:000264c8    91 0001:000264cb    92 0001:000264cd    94 0001:000264cf
    96 0001:000264d1    97 0001:000264d3    98 0001:000264d5    99 0001:000264d7
   100 0001:000264da   101 0001:000264dc   103 0001:000264de   104 0001:000264e0
   107 0001:000264e2   108 0001:000264e4   110 0001:000264e6   112 0001:000264e9

Line numbers for C:\Program Files\Microsoft Visual Studio .NET 2003\Vc7\lib\LIBCMTD.lib(F:\VS70Builds\3077\vc\crtbld\crt\src\Intel\STRSPN.ASM) segment .text

   191 0001:00022b10   191 0001:00022b10   198 0001:00022b14   199 0001:00022b16
   200 0001:00022b17   201 0001:00022b18   202 0001:00022b19   203 0001:00022b1a
   204 0001:00022b1b   205 0001:00022b1c   206 0001:00022b1d   212 0001:00022b1e
   216 0001:00022b24   217 0001:00022b26   218 0001:00022b28   219 0001:00022b2a
   220 0001:00022b2d   221 0001:00022b31   227 0001:00022b33   229 0001:00022b36
   234 0001:00022b3c   236 0001:00022b3f   237 0001:00022b41   238 0001:00022b43
   239 0001:00022b45   240 0001:00022b48   245 0001:00022b4c   255 0001:00022b4e
   257 0001:00022b50   259 0001:00022b53

Line numbers for C:\Program Files\Microsoft Visual Studio .NET 2003\Vc7\lib\LIBCMTD.lib(F:\VS70Builds\3077\vc\crtbld\crt\src\intel\strcmp.asm) segment .text

    69 0001:0001dfe0    65 0001:0001dfe0    70 0001:0001dfe4    72 0001:0001dfe8
    73 0001:0001dfee    77 0001:0001dff0    79 0001:0001dff2    80 0001:0001dff4
    81 0001:0001dff6    82 0001:0001dff8    83 0001:0001dffa    84 0001:0001dffd
    85 0001:0001dfff    86 0001:0001e001    88 0001:0001e003    90 0001:0001e006
    91 0001:0001e009    92 0001:0001e00b    93 0001:0001e00d    94 0001:0001e00f
    95 0001:0001e012    96 0001:0001e014    97 0001:0001e017    98 0001:0001e01a
    99 0001:0001e01c   103 0001:0001e020   104 0001:0001e022   111 0001:0001e024
   112 0001:0001e026   113 0001:0001e028   114 0001:0001e02b   118 0001:0001e02c
   119 0001:0001e032   121 0001:0001e034   122 0001:0001e036   123 0001:0001e039
   124 0001:0001e03b   125 0001:0001e03d   126 0001:0001e040   127 0001:0001e042
   129 0001:0001e044   130 0001:0001e04a   135 0001:0001e04c   136 0001:0001e04f
   137 0001:0001e052   138 0001:0001e054   139 0001:0001e056   140 0001:0001e058
   141 0001:0001e05a   142 0001:0001e05d   143 0001:0001e05f   144 0001:0001e061
   145 0001:0001e063   146 0001:0001e066

Line numbers for C:\Program Files\Microsoft Visual Studio .NET 2003\Vc7\lib\LIBCMTD.lib(F:\VS70Builds\3077\vc\crtbld\crt\src\intel\strchr.asm) segment .text

    54 0001:000292b0    54 0001:000292b0    55 0001:000292b3    56 0001:000292b4
    60 0001:000292c0    64 0001:000292c0    65 0001:000292c2    69 0001:000292c6
    70 0001:000292c7    71 0001:000292c9    72 0001:000292cc    73 0001:000292d0
    74 0001:000292d6    77 0001:000292d8    78 0001:000292da    79 0001:000292dd
    80 0001:000292df    81 0001:000292e1    82 0001:000292e3    83 0001:000292e5
    84 0001:000292eb    87 0001:000292ed    88 0001:000292ef    89 0001:000292f0
    90 0001:000292f2    91 0001:000292f5    92 0001:000292f6    97 0001:000292f8
    98 0001:000292fa   100 0001:000292ff   101 0001:00029301   103 0001:00029303
   104 0001:00029305   106 0001:00029307   107 0001:00029309   109 0001:0002930c
   110 0001:0002930f   112 0001:00029311   113 0001:00029313   115 0001:00029316
   116 0001:0002931c   120 0001:0002931e   121 0001:00029323   123 0001:00029325
   124 0001:0002932a   126 0001:0002932c   127 0001:00029332   130 0001:00029334
   131 0001:00029335   133 0001:00029336   134 0001:00029337   135 0001:00029339
   138 0001:0002933a   139 0001:0002933d   140 0001:0002933f   141 0001:00029341
   142 0001:00029343   143 0001:00029345   144 0001:00029347   145 0001:00029349
   146 0001:0002934b   147 0001:0002934d   148 0001:00029350   149 0001:00029352
   150 0001:00029354   151 0001:00029356   152 0001:00029358   153 0001:0002935a
   154 0001:0002935c   155 0001:0002935e   156 0001:00029360   159 0001:00029362
   160 0001:00029363   161 0001:00029364   162 0001:00029367   163 0001:00029368
   166 0001:00029369   167 0001:0002936c   168 0001:0002936d   169 0001:0002936e
   170 0001:0002936f   173 0001:00029370   174 0001:00029373   175 0001:00029374
   176 0001:00029375   177 0001:00029376   180 0001:00029377   181 0001:0002937a
   182 0001:0002937b   183 0001:0002937c   184 0001:0002937d

Line numbers for C:\Program Files\Microsoft Visual Studio .NET 2003\Vc7\lib\LIBCMTD.lib(F:\VS70Builds\3077\vc\crtbld\crt\src\intel\strcat.asm) segment .text

    89 0001:0001d410    88 0001:0001d410    90 0001:0001d411    91 0001:0001d415
    97 0001:0001d420   101 0001:0001d420   102 0001:0001d424   103 0001:0001d425
   104 0001:0001d42b   107 0001:0001d42d   108 0001:0001d42f   109 0001:0001d432
   110 0001:0001d434   111 0001:0001d436   112 0001:0001d43c   117 0001:0001d440
   118 0001:0001d442   119 0001:0001d447   120 0001:0001d449   121 0001:0001d44c
   122 0001:0001d44e   123 0001:0001d451   124 0001:0001d456   126 0001:0001d458
   127 0001:0001d45b   128 0001:0001d45d   129 0001:0001d45f   130 0001:0001d461
   131 0001:0001d463   132 0001:0001d468   133 0001:0001d46a   134 0001:0001d46f
   135 0001:0001d471   139 0001:0001d473   140 0001:0001d476   142 0001:0001d478
   143 0001:0001d47b   145 0001:0001d47d   146 0001:0001d480   148 0001:0001d482
   153 0001:0001d485   154 0001:0001d489   155 0001:0001d48f   158 0001:0001d491
   159 0001:0001d493   160 0001:0001d496   161 0001:0001d498   162 0001:0001d49a
   163 0001:0001d49c   164 0001:0001d49f   165 0001:0001d4a5   166 0001:0001d4a7
   169 0001:0001d4a9   170 0001:0001d4ab   172 0001:0001d4ae   173 0001:0001d4b3
   175 0001:0001d4b5   176 0001:0001d4b7   178 0001:0001d4ba   179 0001:0001d4bc
   181 0001:0001d4be   182 0001:0001d4c1   184 0001:0001d4c6   187 0001:0001d4c8
   188 0001:0001d4ca   189 0001:0001d4cc   190 0001:0001d4ce   191 0001:0001d4d0
   192 0001:0001d4d6   193 0001:0001d4d8   194 0001:0001d4de   195 0001:0001d4e0
   198 0001:0001d4e2   199 0001:0001d4e4   200 0001:0001d4e8   201 0001:0001d4e9
   203 0001:0001d4ea   204 0001:0001d4ed   205 0001:0001d4f1   206 0001:0001d4f5
   207 0001:0001d4f6   209 0001:0001d4f7   210 0001:0001d4fa   211 0001:0001d4fe
   212 0001:0001d4ff   214 0001:0001d500   215 0001:0001d502   216 0001:0001d506
   217 0001:0001d507

Line numbers for C:\Program Files\Microsoft Visual Studio .NET 2003\Vc7\lib\LIBCMTD.lib(F:\VS70Builds\3077\vc\crtbld\crt\src\intel\memset.asm) segment .text

    60 0001:0000e230    56 0001:0000e230    61 0001:0000e234    63 0001:0000e238
    64 0001:0000e23a    66 0001:0000e23c    67 0001:0000e23e    72 0001:0000e242
    73 0001:0000e243    75 0001:0000e245    76 0001:0000e248    78 0001:0000e24a
    79 0001:0000e24c    80 0001:0000e24f    82 0001:0000e251    84 0001:0000e253
    85 0001:0000e255    86 0001:0000e258    87 0001:0000e25b    91 0001:0000e25d
    92 0001:0000e25f    94 0001:0000e262    96 0001:0000e264    98 0001:0000e266
   100 0001:0000e269   103 0001:0000e26b   104 0001:0000e26d   105 0001:0000e270
   106 0001:0000e273   108 0001:0000e275   110 0001:0000e277   111 0001:0000e279
   115 0001:0000e27b   116 0001:0000e27d   118 0001:0000e280   119 0001:0000e283
   123 0001:0000e285   124 0001:0000e289   126 0001:0000e28a   129 0001:0000e28b
   131 0001:0000e28f

Line numbers for C:\Program Files\Microsoft Visual Studio .NET 2003\Vc7\lib\LIBCMTD.lib(F:\VS70Builds\3077\vc\crtbld\crt\src\Intel\MEMCPY.ASM) segment .text

   109 0001:0001e070   109 0001:0001e070   121 0001:0001e073   122 0001:0001e074
   124 0001:0001e075   125 0001:0001e078   127 0001:0001e07b   137 0001:0001e07e
   139 0001:0001e080   140 0001:0001e082   142 0001:0001e084   143 0001:0001e086
   145 0001:0001e088   146 0001:0001e08a   162 0001:0001e090   163 0001:0001e096
   165 0001:0001e098   166 0001:0001e09b   168 0001:0001e09e   169 0001:0001e0a1
   171 0001:0001e0a3   173 0001:0001e0a5   191 0001:0001e0ac   192 0001:0001e0ae
   194 0001:0001e0b3   195 0001:0001e0b6   197 0001:0001e0b8   198 0001:0001e0bb
   200 0001:0001e0bd   204 0001:0001e0c4   208 0001:0001e0cc   215 0001:0001e0e0
   216 0001:0001e0e2   218 0001:0001e0e4   219 0001:0001e0e6   221 0001:0001e0e9
   222 0001:0001e0ec   224 0001:0001e0ef   225 0001:0001e0f2   227 0001:0001e0f5
   228 0001:0001e0f8   230 0001:0001e0fb   231 0001:0001e0fe   233 0001:0001e100
   235 0001:0001e102   239 0001:0001e10c   240 0001:0001e10e   242 0001:0001e110
   243 0001:0001e112   245 0001:0001e115   246 0001:0001e118   248 0001:0001e11b
   249 0001:0001e11e   251 0001:0001e121   252 0001:0001e124   254 0001:0001e126
   256 0001:0001e128   260 0001:0001e130   261 0001:0001e132   263 0001:0001e134
   264 0001:0001e136   266 0001:0001e139   267 0001:0001e13c   269 0001:0001e13f
   270 0001:0001e142   272 0001:0001e144   274 0001:0001e146   281 0001:0001e170
   283 0001:0001e174   285 0001:0001e178   287 0001:0001e17c   289 0001:0001e180
   291 0001:0001e184   293 0001:0001e188   295 0001:0001e18c   297 0001:0001e190
   299 0001:0001e194   301 0001:0001e198   303 0001:0001e19c   305 0001:0001e1a0
   307 0001:0001e1a4   309 0001:0001e1a8   311 0001:0001e1af   312 0001:0001e1b1
   314 0001:0001e1b3   323 0001:0001e1cc   324 0001:0001e1cf   325 0001:0001e1d0
   327 0001:0001e1d1   331 0001:0001e1d4   333 0001:0001e1d6   334 0001:0001e1d8
   335 0001:0001e1db   336 0001:0001e1dc   337 0001:0001e1dd   341 0001:0001e1e0
   343 0001:0001e1e2   344 0001:0001e1e4   345 0001:0001e1e7   346 0001:0001e1ea
   347 0001:0001e1ed   348 0001:0001e1ee   349 0001:0001e1ef   353 0001:0001e1f4
   355 0001:0001e1f6   356 0001:0001e1f8   357 0001:0001e1fb   358 0001:0001e1fe
   359 0001:0001e201   360 0001:0001e204   361 0001:0001e207   362 0001:0001e208
   363 0001:0001e209   374 0001:0001e20c   375 0001:0001e210   380 0001:0001e214
   381 0001:0001e21a   383 0001:0001e21c   384 0001:0001e21f   386 0001:0001e222
   387 0001:0001e225   389 0001:0001e227   390 0001:0001e228   391 0001:0001e22a
   393 0001:0001e22b   397 0001:0001e234   400 0001:0001e236   405 0001:0001e240
   406 0001:0001e242   408 0001:0001e247   409 0001:0001e24a   411 0001:0001e24c
   412 0001:0001e24f   414 0001:0001e251   418 0001:0001e258   425 0001:0001e26c
   426 0001:0001e26f   428 0001:0001e271   429 0001:0001e274   431 0001:0001e277
   432 0001:0001e27a   434 0001:0001e27d   435 0001:0001e280   437 0001:0001e282
   438 0001:0001e283   439 0001:0001e285   441 0001:0001e286   445 0001:0001e290
   446 0001:0001e293   448 0001:0001e295   449 0001:0001e298   451 0001:0001e29b
   452 0001:0001e29e   454 0001:0001e2a1   455 0001:0001e2a4   457 0001:0001e2a7
   458 0001:0001e2aa   460 0001:0001e2ac   461 0001:0001e2ad   462 0001:0001e2af
   464 0001:0001e2b0   468 0001:0001e2b8   469 0001:0001e2bb   471 0001:0001e2bd
   472 0001:0001e2c0   474 0001:0001e2c3   475 0001:0001e2c6   477 0001:0001e2c9
   478 0001:0001e2cc   480 0001:0001e2cf   481 0001:0001e2d2   483 0001:0001e2d5
   484 0001:0001e2d8   486 0001:0001e2de   487 0001:0001e2df   488 0001:0001e2e1
   490 0001:0001e2e2   499 0001:0001e30c   501 0001:0001e310   503 0001:0001e314
   505 0001:0001e318   507 0001:0001e31c   509 0001:0001e320   511 0001:0001e324
   513 0001:0001e328   515 0001:0001e32c   517 0001:0001e330   519 0001:0001e334
   521 0001:0001e338   523 0001:0001e33c   525 0001:0001e340   527 0001:0001e344
   529 0001:0001e34b   530 0001:0001e34d   532 0001:0001e34f   541 0001:0001e368
   543 0001:0001e36b   544 0001:0001e36c   545 0001:0001e36d   549 0001:0001e370
   551 0001:0001e373   552 0001:0001e376   553 0001:0001e379   554 0001:0001e37a
   555 0001:0001e37b   559 0001:0001e380   561 0001:0001e383   562 0001:0001e386
   563 0001:0001e389   564 0001:0001e38c   565 0001:0001e38f   566 0001:0001e390
   567 0001:0001e391   571 0001:0001e394   573 0001:0001e397   574 0001:0001e39a
   575 0001:0001e39d   576 0001:0001e3a0   577 0001:0001e3a3   578 0001:0001e3a6
   579 0001:0001e3a9   580 0001:0001e3aa   581 0001:0001e3ab

Line numbers for C:\Program Files\Microsoft Visual Studio .NET 2003\Vc7\lib\LIBCMTD.lib(F:\VS70Builds\3077\vc\crtbld\crt\src\intel\memcmp.asm) segment .text

    64 0001:0000cc90    60 0001:0000cc90    65 0001:0000cc94    66 0001:0000cc96
    68 0001:0000cc98    69 0001:0000cc9c    70 0001:0000cc9d    71 0001:0000cc9e
    72 0001:0000cca0    75 0001:0000cca4    76 0001:0000cca6    77 0001:0000cca9
    84 0001:0000ccab    85 0001:0000ccb0    87 0001:0000ccb2    88 0001:0000ccb4
    89 0001:0000ccb6    90 0001:0000ccb8    91 0001:0000ccbb    92 0001:0000ccbe
    93 0001:0000ccc1    96 0001:0000ccc3    97 0001:0000ccc5    98 0001:0000ccc7
    99 0001:0000ccc9   101 0001:0000cccb   102 0001:0000ccce   103 0001:0000ccd1
   104 0001:0000ccd3   106 0001:0000ccd5   107 0001:0000ccd8   109 0001:0000ccdb
   110 0001:0000ccde   112 0001:0000cce0   113 0001:0000cce1   115 0001:0000cce2
   119 0001:0000cce3   120 0001:0000cce5   122 0001:0000cce8   123 0001:0000cceb
   125 0001:0000cced   127 0001:0000ccef   130 0001:0000ccf1   131 0001:0000ccf4
   132 0001:0000ccf7   133 0001:0000ccf9   134 0001:0000ccfb   135 0001:0000ccfd
   136 0001:0000ccff   137 0001:0000cd02   138 0001:0000cd05   139 0001:0000cd07
   140 0001:0000cd09   144 0001:0000cd0b   147 0001:0000cd10   148 0001:0000cd12
   149 0001:0000cd13   150 0001:0000cd16   151 0001:0000cd17   157 0001:0000cd18
   159 0001:0000cd1a   160 0001:0000cd1c   161 0001:0000cd1e   162 0001:0000cd20
   163 0001:0000cd22   164 0001:0000cd24   165 0001:0000cd27   166 0001:0000cd29
   167 0001:0000cd2b   168 0001:0000cd2d   169 0001:0000cd30   170 0001:0000cd32
   171 0001:0000cd38   172 0001:0000cd3e   173 0001:0000cd40   174 0001:0000cd42
   176 0001:0000cd45   177 0001:0000cd46   178 0001:0000cd47

Line numbers for C:\Program Files\Microsoft Visual Studio .NET 2003\Vc7\lib\LIBCMTD.lib(F:\VS70Builds\3077\vc\crtbld\crt\src\intel\memcpy.asm) segment .text

   109 0001:0000def0   109 0001:0000def0   121 0001:0000def3   122 0001:0000def4
   124 0001:0000def5   125 0001:0000def8   127 0001:0000defb   137 0001:0000defe
   139 0001:0000df00   140 0001:0000df02   142 0001:0000df04   143 0001:0000df06
   145 0001:0000df08   146 0001:0000df0a   162 0001:0000df10   163 0001:0000df16
   165 0001:0000df18   166 0001:0000df1b   168 0001:0000df1e   169 0001:0000df21
   171 0001:0000df23   173 0001:0000df25   191 0001:0000df2c   192 0001:0000df2e
   194 0001:0000df33   195 0001:0000df36   197 0001:0000df38   198 0001:0000df3b
   200 0001:0000df3d   204 0001:0000df44   208 0001:0000df4c   215 0001:0000df60
   216 0001:0000df62   218 0001:0000df64   219 0001:0000df66   221 0001:0000df69
   222 0001:0000df6c   224 0001:0000df6f   225 0001:0000df72   227 0001:0000df75
   228 0001:0000df78   230 0001:0000df7b   231 0001:0000df7e   233 0001:0000df80
   235 0001:0000df82   239 0001:0000df8c   240 0001:0000df8e   242 0001:0000df90
   243 0001:0000df92   245 0001:0000df95   246 0001:0000df98   248 0001:0000df9b
   249 0001:0000df9e   251 0001:0000dfa1   252 0001:0000dfa4   254 0001:0000dfa6
   256 0001:0000dfa8   260 0001:0000dfb0   261 0001:0000dfb2   263 0001:0000dfb4
   264 0001:0000dfb6   266 0001:0000dfb9   267 0001:0000dfbc   269 0001:0000dfbf
   270 0001:0000dfc2   272 0001:0000dfc4   274 0001:0000dfc6   281 0001:0000dff0
   283 0001:0000dff4   285 0001:0000dff8   287 0001:0000dffc   289 0001:0000e000
   291 0001:0000e004   293 0001:0000e008   295 0001:0000e00c   297 0001:0000e010
   299 0001:0000e014   301 0001:0000e018   303 0001:0000e01c   305 0001:0000e020
   307 0001:0000e024   309 0001:0000e028   311 0001:0000e02f   312 0001:0000e031
   314 0001:0000e033   323 0001:0000e04c   324 0001:0000e04f   325 0001:0000e050
   327 0001:0000e051   331 0001:0000e054   333 0001:0000e056   334 0001:0000e058
   335 0001:0000e05b   336 0001:0000e05c   337 0001:0000e05d   341 0001:0000e060
   343 0001:0000e062   344 0001:0000e064   345 0001:0000e067   346 0001:0000e06a
   347 0001:0000e06d   348 0001:0000e06e   349 0001:0000e06f   353 0001:0000e074
   355 0001:0000e076   356 0001:0000e078   357 0001:0000e07b   358 0001:0000e07e
   359 0001:0000e081   360 0001:0000e084   361 0001:0000e087   362 0001:0000e088
   363 0001:0000e089   374 0001:0000e08c   375 0001:0000e090   380 0001:0000e094
   381 0001:0000e09a   383 0001:0000e09c   384 0001:0000e09f   386 0001:0000e0a2
   387 0001:0000e0a5   389 0001:0000e0a7   390 0001:0000e0a8   391 0001:0000e0aa
   393 0001:0000e0ab   397 0001:0000e0b4   400 0001:0000e0b6   405 0001:0000e0c0
   406 0001:0000e0c2   408 0001:0000e0c7   409 0001:0000e0ca   411 0001:0000e0cc
   412 0001:0000e0cf   414 0001:0000e0d1   418 0001:0000e0d8   425 0001:0000e0ec
   426 0001:0000e0ef   428 0001:0000e0f1   429 0001:0000e0f4   431 0001:0000e0f7
   432 0001:0000e0fa   434 0001:0000e0fd   435 0001:0000e100   437 0001:0000e102
   438 0001:0000e103   439 0001:0000e105   441 0001:0000e106   445 0001:0000e110
   446 0001:0000e113   448 0001:0000e115   449 0001:0000e118   451 0001:0000e11b
   452 0001:0000e11e   454 0001:0000e121   455 0001:0000e124   457 0001:0000e127
   458 0001:0000e12a   460 0001:0000e12c   461 0001:0000e12d   462 0001:0000e12f
   464 0001:0000e130   468 0001:0000e138   469 0001:0000e13b   471 0001:0000e13d
   472 0001:0000e140   474 0001:0000e143   475 0001:0000e146   477 0001:0000e149
   478 0001:0000e14c   480 0001:0000e14f   481 0001:0000e152   483 0001:0000e155
   484 0001:0000e158   486 0001:0000e15e   487 0001:0000e15f   488 0001:0000e161
   490 0001:0000e162   499 0001:0000e18c   501 0001:0000e190   503 0001:0000e194
   505 0001:0000e198   507 0001:0000e19c   509 0001:0000e1a0   511 0001:0000e1a4
   513 0001:0000e1a8   515 0001:0000e1ac   517 0001:0000e1b0   519 0001:0000e1b4
   521 0001:0000e1b8   523 0001:0000e1bc   525 0001:0000e1c0   527 0001:0000e1c4
   529 0001:0000e1cb   530 0001:0000e1cd   532 0001:0000e1cf   541 0001:0000e1e8
   543 0001:0000e1eb   544 0001:0000e1ec   545 0001:0000e1ed   549 0001:0000e1f0
   551 0001:0000e1f3   552 0001:0000e1f6   553 0001:0000e1f9   554 0001:0000e1fa
   555 0001:0000e1fb   559 0001:0000e200   561 0001:0000e203   562 0001:0000e206
   563 0001:0000e209   564 0001:0000e20c   565 0001:0000e20f   566 0001:0000e210
   567 0001:0000e211   571 0001:0000e214   573 0001:0000e217   574 0001:0000e21a
   575 0001:0000e21d   576 0001:0000e220   577 0001:0000e223   578 0001:0000e226
   579 0001:0000e229   580 0001:0000e22a   581 0001:0000e22b

Line numbers for C:\Program Files\Microsoft Visual Studio .NET 2003\Vc7\lib\LIBCMTD.lib(f:\vs70builds\3077\vc\crtbld\crt\src\output.c) segment .text

   346 0001:00016820   377 0001:00016831   378 0001:00016838   379 0001:00016842
   380 0001:0001684c   383 0001:00016853   384 0001:00016885   385 0001:000168cc
   388 0001:000168e9   396 0001:0001690f   405 0001:00016916   406 0001:00016931
   410 0001:00016936   411 0001:0001694f   412 0001:00016956   413 0001:0001695d
   414 0001:00016964   418 0001:00016969   420 0001:000169a2   421 0001:000169ab
   423 0001:000169ad   424 0001:000169b6   426 0001:000169b8   427 0001:000169c1
   429 0001:000169c3   430 0001:000169ce   432 0001:000169d0   435 0001:000169d9
   439 0001:000169de   441 0001:000169ea   442 0001:000169f9   444 0001:000169ff
   445 0001:00016a08   448 0001:00016a10   450 0001:00016a12   452 0001:00016a26
   457 0001:00016a2b   458 0001:00016a32   462 0001:00016a37   464 0001:00016a43
   465 0001:00016a52   466 0001:00016a58   468 0001:00016a5f   470 0001:00016a61
   472 0001:00016a75   476 0001:00016a7a   478 0001:00016ab7   479 0001:00016ac0
   503 0001:00016ac5   505 0001:00016adc   506 0001:00016ae5   508 0001:00016af0
   510 0001:00016b0c   511 0001:00016b15   513 0001:00016b20   518 0001:00016b22
   526 0001:00016b64   527 0001:00016b66   528 0001:00016b70   530 0001:00016b75
   533 0001:00016b77   534 0001:00016b80   538 0001:00016b82   542 0001:00016b8e
   554 0001:00016b93   557 0001:00016bd0   559 0001:00016bdb   568 0001:00016be4
   569 0001:00016beb   570 0001:00016bfe   575 0001:00016c06   576 0001:00016c19
   579 0001:00016c20   581 0001:00016c40   583 0001:00016c47   584 0001:00016c49
   586 0001:00016c57   587 0001:00016c60   610 0001:00016c67   623 0001:00016c6c
   624 0001:00016c7e   626 0001:00016c93   627 0001:00016c9c   628 0001:00016cab
   629 0001:00016cad   630 0001:00016cb7   631 0001:00016cc3   632 0001:00016cd4
   633 0001:00016cdb   634 0001:00016cdd   635 0001:00016ce4   636 0001:00016cf0
   640 0001:00016cfc   647 0001:00016d01   648 0001:00016d0c   667 0001:00016d15
   668 0001:00016d3c   673 0001:00016d4b   674 0001:00016d53   675 0001:00016d59
   676 0001:00016d62   677 0001:00016d6b   678 0001:00016d95   679 0001:00016db0
   680 0001:00016dbf   681 0001:00016dce   683 0001:00016dd0   684 0001:00016dd2
   685 0001:00016dd8   686 0001:00016de1   687 0001:00016de8   688 0001:00016df1
   689 0001:00016e17   690 0001:00016e28   714 0001:00016e36   723 0001:00016e3b
   733 0001:00016e4d   734 0001:00016e55   735 0001:00016e65   737 0001:00016e67
   739 0001:00016e75   741 0001:00016e7c   746 0001:00016e81   747 0001:00016e88
   754 0001:00016e99   755 0001:00016ea2   758 0001:00016eab   759 0001:00016eb1
   760 0001:00016eb8   761 0001:00016ecc   762 0001:00016ed3   763 0001:00016ede
   765 0001:00016ee5   768 0001:00016eee   769 0001:00016f0f   770 0001:00016f15
   771 0001:00016f1b   773 0001:00016f1d   787 0001:00016f24   789 0001:00016f42
   793 0001:00016f66   794 0001:00016f77   797 0001:00016f84   798 0001:00016f9b
   802 0001:00016fa8   803 0001:00016fb3   804 0001:00016fbf   807 0001:00016fc8
   809 0001:00016fd7   814 0001:00016fdc   815 0001:00016fe5   816 0001:00016fec
   819 0001:00016fee   820 0001:00016ff5   827 0001:00016ff7   837 0001:00016ffe
   838 0001:00017008   842 0001:0001700a   846 0001:00017014   847 0001:0001701b
   849 0001:00017025   850 0001:0001702b   851 0001:00017038   853 0001:0001703f
   857 0001:00017041   858 0001:00017048   860 0001:00017053   883 0001:0001705e
   884 0001:00017069   885 0001:00017081   895 0001:00017086   896 0001:0001708e
   897 0001:00017096   898 0001:000170b2   899 0001:000170b4   900 0001:000170d0
   903 0001:000170d2   904 0001:000170da   905 0001:000170f3   906 0001:000170f5
   910 0001:0001710f   911 0001:0001712b   912 0001:0001714a   913 0001:00017156
   914 0001:00017158   918 0001:00017170   924 0001:0001717b   930 0001:00017196
   931 0001:0001719c   932 0001:000171a3   933 0001:000171a5   934 0001:000171ae
   935 0001:000171b7   939 0001:000171be   940 0001:000171cc   945 0001:000171d3
   947 0001:000171dc   948 0001:000171fa   949 0001:0001721c   950 0001:00017241
   952 0001:0001724a   954 0001:0001725c   955 0001:00017270   957 0001:00017275
   958 0001:00017281   962 0001:0001728a   963 0001:000172a5   964 0001:000172b4
   975 0001:000172bd   978 0001:000172c7   979 0001:000172cf   981 0001:000172da
   982 0001:000172e0   984 0001:000172e7   986 0001:000172f1   987 0001:000172f7
   989 0001:000172fe   991 0001:00017308   992 0001:0001730e   998 0001:00017315
  1002 0001:00017324  1004 0001:0001732c  1008 0001:00017348  1010 0001:00017363
  1012 0001:00017373  1034 0001:0001738f  1038 0001:000173a3  1039 0001:000173ac
  1040 0001:000173b5  1041 0001:000173ce  1042 0001:000173f1  1043 0001:000173fa
  1044 0001:000173fc  1045 0001:00017417  1046 0001:00017429  1047 0001:0001742b
  1048 0001:0001742d  1052 0001:00017448  1054 0001:00017450  1060 0001:0001746c
  1061 0001:00017472  1062 0001:00017480  1067 0001:00017487  1069 0001:0001748c
  1070 0001:00017492  1126 0001:000175a0  1127 0001:000175a3  1129 0001:000175b7
  1130 0001:000175c4  1133 0001:000175c6  1137 0001:000175e2  1138 0001:000175eb
  1139 0001:000175ed  1140 0001:000175fa  1191 0001:00017600  1192 0001:00017603
  1193 0001:00017613  1194 0001:00017628  1195 0001:00017630  1196 0001:00017632
  1197 0001:00017634  1251 0001:00017640  1252 0001:00017644  1254 0001:00017658
  1255 0001:00017665  1257 0001:00017667  1258 0001:00017677  1259 0001:0001769f
  1260 0001:000176a7  1261 0001:000176a9  1262 0001:000176ab  1285 0001:000176b0
  1286 0001:000176b3  1287 0001:000176c8  1318 0001:000176d0  1319 0001:000176d3
  1320 0001:000176eb

Line numbers for C:\Program Files\Microsoft Visual Studio .NET 2003\Vc7\lib\LIBCMTD.lib(f:\vs70builds\3077\vc\crtbld\crt\src\vsprintf.c) segment .text

    85 0001:0001d510    87 0001:0001d516    90 0001:0001d51c    96 0001:0001d540
    98 0001:0001d549    99 0001:0001d553   101 0001:0001d564   102 0001:0001d57b
   103 0001:0001d581   105 0001:0001d5cb   106 0001:0001d5ce

Line numbers for C:\Program Files\Microsoft Visual Studio .NET 2003\Vc7\lib\LIBCMTD.lib(f:\vs70builds\3077\vc\crtbld\crt\src\swprintf.c) segment .text

    87 0001:0000e4b0    89 0001:0000e4b6    93 0001:0000e4bc    95 0001:0000e4c2
    96 0001:0000e4e6    98 0001:0000e50a    99 0001:0000e514   101 0001:0000e525
   106 0001:0000e52f   108 0001:0000e546   109 0001:0000e591   111 0001:0000e5db
   112 0001:0000e5de   139 0001:0000e5f0   141 0001:0000e5f6   145 0001:0000e5fc
   147 0001:0000e602   149 0001:0000e629   150 0001:0000e633   151 0001:0000e63d
   153 0001:0000e650   154 0001:0000e667   155 0001:0000e66a

Line numbers for C:\Program Files\Microsoft Visual Studio .NET 2003\Vc7\lib\LIBCMTD.lib(f:\vs70builds\3077\vc\crtbld\crt\src\stream.c) segment .text

    45 0001:0001bd00    46 0001:0001bd23    51 0001:0001bd2a    52 0001:0001bd34
    59 0001:0001bd3b    61 0001:0001bd5c    65 0001:0001bd6e    73 0001:0001bd89
    74 0001:0001bd95    75 0001:0001bda8    77 0001:0001bdad    79 0001:0001bdc6
    80 0001:0001bddd    81 0001:0001bdf5    84 0001:0001bdfa    85 0001:0001be09
    88 0001:0001be0e    93 0001:0001be13    97 0001:0001be41   103 0001:0001be61
   104 0001:0001be77   105 0001:0001be86   108 0001:0001be88   110 0001:0001be9e
   113 0001:0001bead   115 0001:0001beaf   120 0001:0001beb4   121 0001:0001beba
   122 0001:0001bece   123 0001:0001beeb   129 0001:0001bf03   133 0001:0001bf0e
   134 0001:0001bf11

Line numbers for C:\Program Files\Microsoft Visual Studio .NET 2003\Vc7\lib\LIBCMTD.lib(f:\vs70builds\3077\vc\crtbld\crt\src\sprintf.c) segment .text

    85 0001:0000e340    87 0001:0000e346    91 0001:0000e34c    93 0001:0000e352
    94 0001:0000e376    97 0001:0000e39a   101 0001:0000e3a4   102 0001:0000e3ae
   104 0001:0000e3bf   106 0001:0000e3d6   107 0001:0000e3dc   109 0001:0000e427
   110 0001:0000e42a   137 0001:0000e430   139 0001:0000e436   143 0001:0000e43c
   145 0001:0000e442   147 0001:0000e469   148 0001:0000e473   149 0001:0000e47d
   151 0001:0000e490   152 0001:0000e4a7   153 0001:0000e4aa

Line numbers for C:\Program Files\Microsoft Visual Studio .NET 2003\Vc7\lib\LIBCMTD.lib(f:\vs70builds\3077\vc\crtbld\crt\src\sprintf.c) segment .text

    85 0001:0001d320    87 0001:0001d326    91 0001:0001d32c    93 0001:0001d332
    94 0001:0001d356    99 0001:0001d37a   101 0001:0001d383   102 0001:0001d38d
   104 0001:0001d39e   106 0001:0001d3b5   107 0001:0001d3bb   109 0001:0001d406
   110 0001:0001d409

Line numbers for C:\Program Files\Microsoft Visual Studio .NET 2003\Vc7\lib\LIBCMTD.lib(f:\vs70builds\3077\vc\crtbld\crt\src\output.c) segment .text

   346 0001:000158a0   377 0001:000158b1   378 0001:000158b8   379 0001:000158c2
   380 0001:000158cc   383 0001:000158d3   384 0001:00015903   385 0001:0001594a
   388 0001:00015967   398 0001:0001598d   399 0001:00015994   400 0001:000159ac
   401 0001:000159c6   402 0001:000159da   405 0001:00015a06   406 0001:00015a20
   410 0001:00015a25   411 0001:00015a3e   412 0001:00015a45   413 0001:00015a4c
   414 0001:00015a53   418 0001:00015a58   420 0001:00015a91   421 0001:00015a9a
   423 0001:00015a9c   424 0001:00015aa5   426 0001:00015aa7   427 0001:00015ab0
   429 0001:00015ab2   430 0001:00015abe   432 0001:00015ac0   435 0001:00015ac9
   439 0001:00015ace   441 0001:00015ada   442 0001:00015ae9   444 0001:00015aef
   445 0001:00015af8   448 0001:00015b00   450 0001:00015b02   452 0001:00015b16
   457 0001:00015b1b   458 0001:00015b22   462 0001:00015b27   464 0001:00015b33
   465 0001:00015b42   466 0001:00015b48   468 0001:00015b4f   470 0001:00015b51
   472 0001:00015b65   476 0001:00015b6a   478 0001:00015ba7   479 0001:00015bb0
   503 0001:00015bb5   505 0001:00015bcc   506 0001:00015bd5   508 0001:00015be1
   510 0001:00015bfd   511 0001:00015c06   513 0001:00015c12   518 0001:00015c14
   526 0001:00015c56   527 0001:00015c58   528 0001:00015c62   530 0001:00015c67
   533 0001:00015c69   534 0001:00015c72   538 0001:00015c74   542 0001:00015c80
   554 0001:00015c85   557 0001:00015cc2   561 0001:00015ccc   589 0001:00015cd8
   590 0001:00015ce3   592 0001:00015cf6   595 0001:00015d10   596 0001:00015d16
   597 0001:00015d1d   601 0001:00015d1f   603 0001:00015d32   604 0001:00015d3e
   607 0001:00015d45   610 0001:00015d4e   623 0001:00015d53   624 0001:00015d65
   626 0001:00015d7a   627 0001:00015d83   628 0001:00015d92   629 0001:00015d94
   630 0001:00015d9f   631 0001:00015dab   632 0001:00015dbc   633 0001:00015dc3
   634 0001:00015dc5   635 0001:00015dcc   636 0001:00015dd8   640 0001:00015de4
   644 0001:00015de9   645 0001:00015df3   667 0001:00015dff   668 0001:00015e26
   694 0001:00015e35   695 0001:00015e40   696 0001:00015e46   697 0001:00015e4e
   698 0001:00015e55   699 0001:00015e5e   700 0001:00015e84   701 0001:00015e95
   703 0001:00015ea3   704 0001:00015ea5   705 0001:00015eab   706 0001:00015eb4
   707 0001:00015ebd   708 0001:00015ee3   709 0001:00015ef4   714 0001:00015f00
   723 0001:00015f05   733 0001:00015f17   734 0001:00015f1f   735 0001:00015f2f
   737 0001:00015f31   739 0001:00015f3f   741 0001:00015f46   746 0001:00015f4b
   747 0001:00015f52   754 0001:00015f62   755 0001:00015f6b   758 0001:00015f74
   759 0001:00015f7a   760 0001:00015f81   761 0001:00015f95   762 0001:00015f9c
   763 0001:00015fa7   765 0001:00015fae   768 0001:00015fb7   769 0001:00015fd8
   770 0001:00015fde   771 0001:00015fe4   773 0001:00015fe6   787 0001:00015fed
   789 0001:0001600b   793 0001:0001602f   794 0001:00016040   797 0001:0001604d
   798 0001:00016064   802 0001:00016071   803 0001:0001607c   804 0001:00016088
   807 0001:00016091   809 0001:000160a0   814 0001:000160a5   815 0001:000160ae
   816 0001:000160b5   819 0001:000160b7   820 0001:000160be   827 0001:000160c0
   837 0001:000160c7   838 0001:000160d1   842 0001:000160d3   846 0001:000160dd
   847 0001:000160e4   849 0001:000160ee   850 0001:000160f2   851 0001:000160fe
   853 0001:00016105   857 0001:00016107   858 0001:0001610e   860 0001:00016119
   883 0001:00016124   884 0001:0001612f   885 0001:00016147   895 0001:0001614c
   896 0001:00016154   897 0001:0001615c   898 0001:00016178   899 0001:0001617a
   900 0001:00016196   903 0001:00016198   904 0001:000161a0   905 0001:000161b9
   906 0001:000161bb   910 0001:000161d5   911 0001:000161f1   912 0001:00016210
   913 0001:0001621c   914 0001:0001621e   918 0001:00016236   924 0001:00016241
   930 0001:0001625c   931 0001:00016262   932 0001:00016269   933 0001:0001626b
   934 0001:00016274   935 0001:0001627d   939 0001:00016284   940 0001:00016292
   945 0001:00016299   947 0001:0001629f   948 0001:000162bd   949 0001:000162df
   950 0001:00016304   952 0001:0001630d   954 0001:0001631f   955 0001:00016333
   957 0001:00016338   958 0001:00016341   962 0001:0001634a   963 0001:00016365
   964 0001:00016374   975 0001:0001637d   978 0001:00016387   979 0001:0001638f
   981 0001:0001639a   982 0001:0001639e   984 0001:000163a5   986 0001:000163af
   987 0001:000163b3   989 0001:000163ba   991 0001:000163c4   992 0001:000163c8
   998 0001:000163cf  1002 0001:000163de  1004 0001:000163e6  1008 0001:00016402
  1010 0001:0001641d  1012 0001:0001642d  1017 0001:00016449  1022 0001:0001645d
  1023 0001:00016466  1024 0001:0001646f  1025 0001:00016488  1026 0001:000164c4
  1027 0001:000164cd  1028 0001:000164cf  1029 0001:000164f0  1030 0001:000164f5
  1031 0001:000164f7  1052 0001:00016512  1054 0001:0001651a  1060 0001:00016536
  1061 0001:0001653c  1062 0001:0001654a  1067 0001:00016551  1069 0001:00016556
  1070 0001:0001655c  1126 0001:00016670  1127 0001:00016674  1129 0001:00016688
  1130 0001:00016695  1135 0001:00016697  1137 0001:000166ef  1138 0001:000166f8
  1139 0001:000166fa  1140 0001:00016707  1191 0001:00016710  1192 0001:00016713
  1193 0001:00016723  1194 0001:00016737  1195 0001:0001673f  1196 0001:00016741
  1197 0001:00016743  1251 0001:00016750  1252 0001:00016754  1254 0001:00016768
  1255 0001:00016775  1257 0001:00016777  1258 0001:00016787  1259 0001:000167ac
  1260 0001:000167b4  1261 0001:000167b6  1262 0001:000167b8  1285 0001:000167c0
  1286 0001:000167c3  1287 0001:000167d8  1318 0001:000167e0  1319 0001:000167e3
  1320 0001:000167fb  1345 0001:00016800  1346 0001:00016803  1347 0001:00016819

Line numbers for C:\Program Files\Microsoft Visual Studio .NET 2003\Vc7\lib\LIBCMTD.lib(f:\vs70builds\3077\vc\crtbld\crt\src\fprintf.c) segment .text

    48 0001:00011560    54 0001:00011583    56 0001:00011589    57 0001:000115ad
    60 0001:000115d1    63 0001:000115d7    64 0001:000115e3    67 0001:000115ea
    68 0001:000115f9    69 0001:00011610    74 0001:0001162e    78 0001:0001163b
    79 0001:0001163e

Line numbers for C:\Program Files\Microsoft Visual Studio .NET 2003\Vc7\lib\LIBCMTD.lib(f:\vs70builds\3077\vc\crtbld\crt\src\fopen.c) segment .text

    50 0001:00011650    54 0001:00011673    55 0001:00011697    56 0001:000116bf
    57 0001:000116e3    62 0001:0001170b    63 0001:00011719    64 0001:00011724
    68 0001:00011728    75 0001:0001172f    81 0001:00011758    85 0001:00011765
    86 0001:00011768   115 0001:00011780   116 0001:00011783   117 0001:00011795

Line numbers for C:\Program Files\Microsoft Visual Studio .NET 2003\Vc7\lib\LIBCMTD.lib(f:\vs70builds\3077\vc\crtbld\crt\src\fflush.c) segment .text

    58 0001:0001b460    63 0001:0001b483    64 0001:0001b489    66 0001:0001b495
    68 0001:0001b4a1    69 0001:0001b4a8    72 0001:0001b4c5    75 0001:0001b4d2
    76 0001:0001b4d5    99 0001:0001b4f0   115 0001:0001b4f3   117 0001:0001b503
   121 0001:0001b508   122 0001:0001b516   124 0001:0001b52b   125 0001:0001b52d
   151 0001:0001b530   153 0001:0001b536   157 0001:0001b53d   161 0001:0001b543
   163 0001:0001b573   167 0001:0001b592   168 0001:0001b5a0   170 0001:0001b5af
   171 0001:0001b5b1   172 0001:0001b5c0   176 0001:0001b5c7   177 0001:0001b5d2
   179 0001:0001b5dc   180 0001:0001b5df   202 0001:0001b5f0   203 0001:0001b5f3
   204 0001:0001b5fd   237 0001:0001b600   239 0001:0001b623   240 0001:0001b62a
   243 0001:0001b631   244 0001:0001b63b   247 0001:0001b642   249 0001:0001b663
   258 0001:0001b690   260 0001:0001b6a8   266 0001:0001b6af   269 0001:0001b6c5
   275 0001:0001b6cb   279 0001:0001b6e5   281 0001:0001b6ee   282 0001:0001b6f0
   288 0001:0001b709   289 0001:0001b723   296 0001:0001b738   300 0001:0001b752
   305 0001:0001b765   309 0001:0001b770   310 0001:0001b776   312 0001:0001b77b
   313 0001:0001b77e

Line numbers for C:\Program Files\Microsoft Visual Studio .NET 2003\Vc7\lib\LIBCMTD.lib(f:\vs70builds\3077\vc\crtbld\crt\src\fclose.c) segment .text

    45 0001:00011270    46 0001:00011293    48 0001:0001129a    51 0001:000112be
    52 0001:000112c9    55 0001:000112d3    56 0001:000112d5    57 0001:000112e1
    58 0001:000112e8    61 0001:00011305    65 0001:00011312    66 0001:00011315
    87 0001:00011330    89 0001:00011336    92 0001:0001133d   113 0001:00011343
   115 0001:00011367   124 0001:00011374   125 0001:00011383   127 0001:0001138f
   128 0001:000113a2   130 0001:000113a9   139 0001:000113b4   140 0001:000113c5
   145 0001:000113cf   146 0001:000113d9   147 0001:000113dc

Line numbers for C:\Program Files\Microsoft Visual Studio .NET 2003\Vc7\lib\LIBCMTD.lib(f:\vs70builds\3077\vc\crtbld\crt\src\closeall.c) segment .text

    43 0001:00023fe0    44 0001:00024003    48 0001:0002400a    49 0001:00024014
    52 0001:0002401b    54 0001:0002403c    59 0001:0002404a    60 0001:0002407a
    65 0001:00024083    68 0001:00024089    70 0001:0002409f    71 0001:000240b6
    74 0001:000240c6    79 0001:000240d9    83 0001:000240e4    84 0001:000240e7

Line numbers for C:\Program Files\Microsoft Visual Studio .NET 2003\Vc7\lib\LIBCMTD.lib(f:\vs70builds\3077\vc\crtbld\crt\src\_sftbuf.c) segment .text

    61 0001:0001b790    65 0001:0001b796    68 0001:0001b7ba    71 0001:0001b7c0
    72 0001:0001b7d3    75 0001:0001b7da    76 0001:0001b7e3    77 0001:0001b7ea
    78 0001:0001b7f5    79 0001:0001b7fc    80 0001:0001b7fe    84 0001:0001b805
    88 0001:0001b814    89 0001:0001b821    93 0001:0001b828    95 0001:0001b862
    96 0001:0001b879    98 0001:0001b88d   100 0001:0001b88f   101 0001:0001b8aa
   104 0001:0001b8be   106 0001:0001b8d0   107 0001:0001b8d5   140 0001:0001b8e0
   143 0001:0001b8e4   146 0001:0001b911   148 0001:0001b917   150 0001:0001b91d
   153 0001:0001b92a   154 0001:0001b936   155 0001:0001b947   156 0001:0001b951
   180 0001:0001b964

Line numbers for C:\Program Files\Microsoft Visual Studio .NET 2003\Vc7\lib\LIBCMTD.lib(f:\vs70builds\3077\vc\crtbld\crt\src\_open.c) segment .text

    59 0001:0001b970    61 0001:0001b976    62 0001:0001b97e    63 0001:0001b985
    68 0001:0001b98c    69 0001:0001b9b0    70 0001:0001b9d4    78 0001:0001b9f8
    80 0001:0001ba14    81 0001:0001ba1b    82 0001:0001ba24    84 0001:0001ba26
    85 0001:0001ba2d    86 0001:0001ba36    88 0001:0001ba38    89 0001:0001ba3f
    90 0001:0001ba48    92 0001:0001ba4a   102 0001:0001ba51   104 0001:0001ba58
   105 0001:0001ba79   108 0001:0001baa6   109 0001:0001baae   110 0001:0001bab5
   111 0001:0001bab7   112 0001:0001bac0   113 0001:0001bac9   114 0001:0001bad5
   116 0001:0001bade   119 0001:0001bae3   120 0001:0001baee   121 0001:0001baf5
   122 0001:0001baf7   123 0001:0001bb03   126 0001:0001bb08   127 0001:0001bb12
   128 0001:0001bb19   129 0001:0001bb1b   130 0001:0001bb27   133 0001:0001bb2c
   134 0001:0001bb32   135 0001:0001bb39   136 0001:0001bb3b   137 0001:0001bb42
   139 0001:0001bb4e   142 0001:0001bb53   143 0001:0001bb59   144 0001:0001bb60
   145 0001:0001bb62   146 0001:0001bb69   148 0001:0001bb74   151 0001:0001bb79
   152 0001:0001bb7f   153 0001:0001bb86   154 0001:0001bb88   155 0001:0001bb8f
   157 0001:0001bb98   160 0001:0001bb9a   161 0001:0001bba0   162 0001:0001bba7
   163 0001:0001bba9   164 0001:0001bbb0   166 0001:0001bbb9   169 0001:0001bbbb
   170 0001:0001bbc5   171 0001:0001bbcc   172 0001:0001bbce   173 0001:0001bbda
   176 0001:0001bbdc   177 0001:0001bbe4   178 0001:0001bbeb   179 0001:0001bbed
   180 0001:0001bbf6   183 0001:0001bbf8   185 0001:0001bbff   190 0001:0001bc04
   191 0001:0001bc26   195 0001:0001bc2a   198 0001:0001bc39   200 0001:0001bc3f
   201 0001:0001bc48   202 0001:0001bc52   204 0001:0001bc6f   206 0001:0001bc78
   207 0001:0001bc7b

Line numbers for C:\Program Files\Microsoft Visual Studio .NET 2003\Vc7\lib\LIBCMTD.lib(f:\vs70builds\3077\vc\crtbld\crt\src\_getbuf.c) segment .text

    43 0001:0001f5d0    46 0001:0001f5d4    50 0001:0001f5f8    54 0001:0001f607
    58 0001:0001f60d    61 0001:0001f632    62 0001:0001f641    65 0001:0001f64b
    69 0001:0001f64d    70 0001:0001f65c    71 0001:0001f668    75 0001:0001f672
    76 0001:0001f67d    79 0001:0001f687

Line numbers for C:\Program Files\Microsoft Visual Studio .NET 2003\Vc7\lib\LIBCMTD.lib(f:\vs70builds\3077\vc\crtbld\crt\src\_freebuf.c) segment .text

    47 0001:0001b3d0    48 0001:0001b3d3    50 0001:0001b3f7    52 0001:0001b410
    54 0001:0001b421    55 0001:0001b433    56 0001:0001b446    58 0001:0001b450

Line numbers for C:\Program Files\Microsoft Visual Studio .NET 2003\Vc7\lib\LIBCMTD.lib(f:\vs70builds\3077\vc\crtbld\crt\src\_flsbuf.c) segment .text

    95 0001:00025730   102 0001:00025736   105 0001:0002575a   106 0001:00025760
   108 0001:00025769   109 0001:00025782   110 0001:00025791   121 0001:0002579b
   122 0001:000257a6   123 0001:000257b0   124 0001:000257bb   125 0001:000257c6
   127 0001:000257d5   128 0001:000257d7   129 0001:000257e6   133 0001:000257f0
   134 0001:000257ff   135 0001:0002580e   138 0001:00025825   148 0001:00025833
   150 0001:00025855   155 0001:00025861   157 0001:00025873   159 0001:000258a1
   160 0001:000258af   161 0001:000258bd   163 0001:000258cc   164 0001:000258d2
   165 0001:000258ec   166 0001:000258ee   167 0001:00025922   172 0001:00025932
   177 0001:00025944   178 0001:00025946   185 0001:0002594d   186 0001:0002595a
   192 0001:00025971   193 0001:00025979   194 0001:00025988   200 0001:0002598f
   203 0001:00025997

Line numbers for C:\Program Files\Microsoft Visual Studio .NET 2003\Vc7\lib\LIBCMTD.lib(f:\vs70builds\3077\vc\crtbld\crt\src\_flsbuf.c) segment .text

    95 0001:00015640   102 0001:00015646   105 0001:0001566a   106 0001:00015670
   108 0001:00015679   109 0001:00015692   110 0001:000156a1   121 0001:000156a9
   122 0001:000156b4   123 0001:000156be   124 0001:000156c9   125 0001:000156d4
   127 0001:000156e3   128 0001:000156e5   129 0001:000156f4   133 0001:000156fc
   134 0001:0001570b   135 0001:0001571a   138 0001:00015731   148 0001:0001573f
   150 0001:00015761   155 0001:0001576d   157 0001:0001577f   159 0001:000157ad
   160 0001:000157bb   161 0001:000157c9   163 0001:000157d8   164 0001:000157de
   165 0001:000157f8   166 0001:000157fa   167 0001:0001582e   170 0001:0001583e
   177 0001:00015849   178 0001:0001584b   180 0001:00015852   192 0001:00015869
   193 0001:00015871   194 0001:00015880   198 0001:00015885   203 0001:0001588d

Line numbers for C:\Program Files\Microsoft Visual Studio .NET 2003\Vc7\lib\LIBCMTD.lib(f:\vs70builds\3077\vc\crtbld\crt\src\_file.c) segment .text

    53 0001:0001aff0    54 0001:0001aff3    55 0001:0001aff8   117 0001:0001b000
   126 0001:0001b004   127 0001:0001b00d   128 0001:0001b017   129 0001:0001b022
   138 0001:0001b02c   139 0001:0001b056   141 0001:0001b060   142 0001:0001b08b
   149 0001:0001b095   150 0001:0001b0ad   152 0001:0001b0c6   154 0001:0001b0de
   156 0001:0001b116   158 0001:0001b126   160 0001:0001b128   161 0001:0001b12a
   189 0001:0001b130   191 0001:0001b133   194 0001:0001b138   195 0001:0001b143
   196 0001:0001b148   219 0001:0001b150   224 0001:0001b153   228 0001:0001b165
   229 0001:0001b17c   235 0001:0001b17e   236 0001:0001b18b   258 0001:0001b190
   263 0001:0001b193   267 0001:0001b199   268 0001:0001b1a8   274 0001:0001b1aa
   275 0001:0001b1b7   296 0001:0001b1c0   301 0001:0001b1c3   305 0001:0001b1d5
   306 0001:0001b1ec   312 0001:0001b1ee   313 0001:0001b1fb   335 0001:0001b200
   340 0001:0001b203   344 0001:0001b209   345 0001:0001b218   351 0001:0001b21a
   352 0001:0001b227

Line numbers for C:\Program Files\Microsoft Visual Studio .NET 2003\Vc7\lib\LIBCMTD.lib(f:\vs70builds\3077\vc\crtbld\crt\src\fputwc.c) segment .text

    49 0001:0001fa50    53 0001:0001fa73    56 0001:0001fa97    59 0001:0001fa9d
    60 0001:0001faa9    63 0001:0001fab0    68 0001:0001fad3    72 0001:0001fae0
    73 0001:0001fae4    95 0001:0001fb00   107 0001:0001fb0e   113 0001:0001fb61
   119 0001:0001fb7b   120 0001:0001fb86   122 0001:0001fb8f   124 0001:0001fba9
   125 0001:0001fc0d   126 0001:0001fc13   127 0001:0001fc15   130 0001:0001fc20
   131 0001:0001fc38   133 0001:0001fc65   134 0001:0001fc76   142 0001:0001fc90
   143 0001:0001fc93   144 0001:0001fca4

Line numbers for C:\Program Files\Microsoft Visual Studio .NET 2003\Vc7\lib\LIBCMTD.lib(f:\vs70builds\3077\vc\crtbld\crt\src\tidtable.c) segment .text

    77 0001:00013d80    78 0001:00013d83    79 0001:00013d89   108 0001:00013d90
   117 0001:00013d96   118 0001:00013d9f   119 0001:00013da4   126 0001:00013dab
   127 0001:00013db9   129 0001:00013dc3   132 0001:00013dd7   135 0001:00013deb
   138 0001:00013dff   139 0001:00013e13   140 0001:00013e1c   142 0001:00013e26
   144 0001:00013e32   146 0001:00013e3e   153 0001:00013e48   154 0001:00013e61
   155 0001:00013e66   164 0001:00013e6a   166 0001:00013ea3   167 0001:00013ea8
   174 0001:00013eac   176 0001:00013eb8   177 0001:00013ec3   180 0001:00013ecd
   181 0001:00013ed2   210 0001:00013ee0   218 0001:00013ee3   219 0001:00013eec
   220 0001:00013ef8   227 0001:00013f02   229 0001:00013f07   255 0001:00013f10
   256 0001:00013f13   257 0001:00013f1d   266 0001:00013f27   289 0001:00013f30
   294 0001:00013f36   295 0001:00013f3f   301 0001:00013f54   307 0001:00013f8d
   309 0001:00013f99   310 0001:00013fa4   312 0001:00013fae   313 0001:00013fb0
   316 0001:00013fba   319 0001:00013fc4   320 0001:00013fc7   348 0001:00013fd0
   358 0001:00013ff3   359 0001:00013ff9   360 0001:00014003   361 0001:0001400c
   363 0001:0001401d   364 0001:00014026   366 0001:00014037   367 0001:00014040
   369 0001:00014051   370 0001:0001405a   372 0001:0001406b   373 0001:00014074
   375 0001:00014085   376 0001:0001408e   378 0001:0001409f   379 0001:000140ab
   381 0001:000140bc   382 0001:000140c6   385 0001:000140cd   386 0001:000140fc
   389 0001:00014118   392 0001:00014123   394 0001:0001412d   395 0001:00014134
   397 0001:00014147   399 0001:00014154   400 0001:0001415d   402 0001:00014170
   403 0001:00014179   405 0001:0001418c   406 0001:00014195   408 0001:000141a8
   409 0001:000141b1   411 0001:000141c4   415 0001:000141df   416 0001:000141fb
   420 0001:00014215   423 0001:00014220   426 0001:0001422e   450 0001:00014250
   457 0001:00014253   464 0001:0001425c   465 0001:00014262   467 0001:00014271
   473 0001:0001427a   477 0001:00014289   502 0001:00014290   503 0001:00014293
   504 0001:00014299   509 0001:000142a0   510 0001:000142a3   511 0001:000142a9

Line numbers for C:\Program Files\Microsoft Visual Studio .NET 2003\Vc7\lib\LIBCMTD.lib(f:\vs70builds\3077\vc\crtbld\crt\src\threadex.c) segment .text

   101 0001:0000dc90   104 0001:0000dc96   107 0001:0000dc9d   108 0001:0000dca3
   109 0001:0000dcae   116 0001:0000dcb5   117 0001:0000dcd6   123 0001:0000dcd8
   125 0001:0000dce4   126 0001:0000dced   127 0001:0000dcf6   132 0001:0000dd00
   133 0001:0000dd06   145 0001:0000dd0c   147 0001:0000dd34   148 0001:0000dd3d
   154 0001:0000dd3f   164 0001:0000dd44   172 0001:0000dd52   173 0001:0000dd58
   175 0001:0000dd64   176 0001:0000dd66   199 0001:0000dd70   205 0001:0000dd96
   210 0001:0000ddab   211 0001:0000ddc0   217 0001:0000ddca   219 0001:0000ddd5
   221 0001:0000ddd7   222 0001:0000dde3   223 0001:0000ddef   224 0001:0000ddfd
   231 0001:0000de03   232 0001:0000de0c   238 0001:0000de12   241 0001:0000de19
   243 0001:0000de38   248 0001:0000de56   255 0001:0000de5f   256 0001:0000de61
   277 0001:0000de80   283 0001:0000de84   284 0001:0000de8d   286 0001:0000de93
   287 0001:0000dea1   294 0001:0000deab   299 0001:0000deb7   301 0001:0000dec1

Line numbers for C:\Program Files\Microsoft Visual Studio .NET 2003\Vc7\lib\LIBCMTD.lib(f:\vs70builds\3077\vc\crtbld\crt\src\stdenvp.c) segment .text

    73 0001:0001c360    81 0001:0001c366    82 0001:0001c36f    85 0001:0001c374
    90 0001:0001c37b    98 0001:0001c383    99 0001:0001c389   108 0001:0001c391
   110 0001:0001c39b   111 0001:0001c3a6   112 0001:0001c3af   113 0001:0001c3c5
   117 0001:0001c3c7   118 0001:0001c3f8   124 0001:0001c400   127 0001:0001c421
   129 0001:0001c433   131 0001:0001c43e   133 0001:0001c463   134 0001:0001c474
   135 0001:0001c47e   137 0001:0001c483   138 0001:0001c495   140 0001:0001c49e
   146 0001:0001c4a3   147 0001:0001c4b3   151 0001:0001c4bd   158 0001:0001c4c6
   161 0001:0001c4d0   162 0001:0001c4d2

Line numbers for C:\Program Files\Microsoft Visual Studio .NET 2003\Vc7\lib\LIBCMTD.lib(f:\vs70builds\3077\vc\crtbld\crt\src\stdargv.c) segment .text

    87 0001:0001c4e0    96 0001:0001c4e6    97 0001:0001c4ef   102 0001:0001c4f4
   103 0001:0001c4fb   107 0001:0001c50d   119 0001:0001c517   126 0001:0001c545
   130 0001:0001c55d   131 0001:0001c57e   132 0001:0001c584   139 0001:0001c589
   143 0001:0001c5ab   147 0001:0001c5b6   162 0001:0001c5bf   163 0001:0001c5c1
   208 0001:0001c5d0   215 0001:0001c5d6   216 0001:0001c5df   219 0001:0001c5e8
   220 0001:0001c5ee   221 0001:0001c5f4   240 0001:0001c605   242 0001:0001c60c
   244 0001:0001c617   245 0001:0001c623   246 0001:0001c634   248 0001:0001c636
   249 0001:0001c643   250 0001:0001c649   252 0001:0001c65c   254 0001:0001c66d
   255 0001:0001c67d   256 0001:0001c68a   257 0001:0001c690   258 0001:0001c6a3
   262 0001:0001c6ac   264 0001:0001c6d4   265 0001:0001c6dc   266 0001:0001c6e5
   267 0001:0001c6e7   268 0001:0001c6ed   271 0001:0001c6f4   276 0001:0001c6fb
   277 0001:0001c705   278 0001:0001c71b   281 0001:0001c726   282 0001:0001c730
   285 0001:0001c735   286 0001:0001c73b   287 0001:0001c74c   301 0001:0001c759
   305 0001:0001c760   306 0001:0001c767   308 0001:0001c772   309 0001:0001c77b
   310 0001:0001c784   311 0001:0001c786   314 0001:0001c791   315 0001:0001c7a1
   316 0001:0001c7a7   317 0001:0001c7b3   318 0001:0001c7bc   319 0001:0001c7be
   320 0001:0001c7c5   321 0001:0001c7c7   323 0001:0001c7ce   325 0001:0001c7da
   329 0001:0001c7e2   330 0001:0001c7f2   331 0001:0001c7f8   332 0001:0001c807
   333 0001:0001c814   336 0001:0001c816   337 0001:0001c83c   341 0001:0001c841
   342 0001:0001c84b   343 0001:0001c851   344 0001:0001c863   345 0001:0001c87f
   347 0001:0001c88c   348 0001:0001c89f   349 0001:0001c8a1   350 0001:0001c8b3
   351 0001:0001c8bc   354 0001:0001c8c9   356 0001:0001c8d6   365 0001:0001c8df
   369 0001:0001c8e4   370 0001:0001c8ea   371 0001:0001c8f9   372 0001:0001c906
   375 0001:0001c90b   376 0001:0001c911   377 0001:0001c923   378 0001:0001c930

Line numbers for C:\Program Files\Microsoft Visual Studio .NET 2003\Vc7\lib\LIBCMTD.lib(f:\vs70builds\3077\vc\crtbld\crt\src\mlock.c) segment .text

   122 0001:00011c90   124 0001:00011c96   129 0001:00011c9d   130 0001:00011cb5
   131 0001:00011cc2   133 0001:00011ce1   135 0001:00011cfd   136 0001:00011d0b
   139 0001:00011d0f   142 0001:00011d11   143 0001:00011d16   173 0001:00011d20
   179 0001:00011d26   181 0001:00011d3e   183 0001:00011d58   185 0001:00011d65
   191 0001:00011d6f   192 0001:00011d7d   194 0001:00011d8b   200 0001:00011d8d
   202 0001:00011da5   204 0001:00011dbf   206 0001:00011dcc   208 0001:00011dd6
   209 0001:00011dd8   244 0001:00011de0   248 0001:00011e03   249 0001:00011e10
   251 0001:00011e1a   252 0001:00011e39   253 0001:00011e44   256 0001:00011e4b
   257 0001:00011e55   259 0001:00011e5c   260 0001:00011e69   261 0001:00011e7e
   262 0001:00011e8c   263 0001:00011eac   265 0001:00011eb1   267 0001:00011ebe
   268 0001:00011ec0   272 0001:00011edc   275 0001:00011ee7   276 0001:00011eec
   304 0001:00011f00   309 0001:00011f03   311 0001:00011f10   312 0001:00011f20
   319 0001:00011f2a   320 0001:00011f3b   342 0001:00011f40   346 0001:00011f43
   347 0001:00011f54   374 0001:00011f60   375 0001:00011f63   376 0001:00011f6f
   377 0001:00011f7c

Line numbers for C:\Program Files\Microsoft Visual Studio .NET 2003\Vc7\lib\LIBCMTD.lib(f:\vs70builds\3077\vc\crtbld\crt\src\dllcrt0.c) segment .text

    88 0001:000117a0    93 0001:000117a6   102 0001:000117b0   107 0001:000117c3
   108 0001:000117cc   109 0001:000117da   111 0001:000117e1   112 0001:000117ed
   113 0001:000117f8   119 0001:00011804   120 0001:00011816   121 0001:0001181f
   122 0001:00011831   125 0001:00011844   129 0001:00011852   132 0001:00011859
   134 0001:00011862   135 0001:00011867   143 0001:0001186e   145 0001:00011873
   146 0001:0001187e   148 0001:00011888   150 0001:00011891   152 0001:00011896
   153 0001:0001189b   158 0001:000118a2   160 0001:000118c2   162 0001:000118c7
   164 0001:000118cc   165 0001:000118d1   172 0001:000118d8   175 0001:000118e7
   177 0001:000118f2   179 0001:000118fb   188 0001:0001190a   189 0001:00011913
   193 0001:00011918   194 0001:00011927   198 0001:0001192c   201 0001:00011931
   205 0001:00011936   207 0001:0001193b   209 0001:0001193d   212 0001:00011944
   215 0001:0001194f   217 0001:00011973   221 0001:00011988   223 0001:00011994
   224 0001:0001199f   225 0001:000119a9   227 0001:000119ab   228 0001:000119b9
   230 0001:000119bd   232 0001:000119bf   235 0001:000119c3   237 0001:000119cb
   241 0001:000119d5   242 0001:000119da   270 0001:000119f0   271 0001:00011a16
   277 0001:00011a1d   282 0001:00011a2c   284 0001:00011a33   285 0001:00011a3a
   287 0001:00011a46   288 0001:00011a4f   290 0001:00011a64   291 0001:00011a6a
   293 0001:00011a7e   294 0001:00011a92   297 0001:00011a9a   299 0001:00011aae
   307 0001:00011aba   310 0001:00011ac9   312 0001:00011ad5   313 0001:00011aea
   315 0001:00011af1   316 0001:00011b00   318 0001:00011b1e   319 0001:00011b4a
   322 0001:00011b4f   323 0001:00011b52   348 0001:00011b70   350 0001:00011b73
   351 0001:00011b8e   353 0001:00011b93   354 0001:00011b9f   355 0001:00011bad

Line numbers for C:\Program Files\Microsoft Visual Studio .NET 2003\Vc7\lib\LIBCMTD.lib(f:\vs70builds\3077\vc\crtbld\crt\src\crt0msg.c) segment .text

   137 0001:0001cc60   140 0001:0001cc63   142 0001:0001cc7e   143 0001:0001cc8b
   144 0001:0001cc94   145 0001:0001cc9a   147 0001:0001cca7   171 0001:0001ccb0
   175 0001:0001ccc2   176 0001:0001ccda   177 0001:0001cce9   179 0001:0001cceb
   192 0001:0001cd00   194 0001:0001cd12   195 0001:0001cd32   200 0001:0001cd33
   206 0001:0001cd4e   208 0001:0001cd82   215 0001:0001cd94   216 0001:0001cd98
   217 0001:0001cdb0   219 0001:0001cdc4   221 0001:0001cdcd   223 0001:0001cde1
   224 0001:0001cdfa   231 0001:0001ce0d   233 0001:0001ce4c   234 0001:0001ce5d
   235 0001:0001ce6d   236 0001:0001ce7e   240 0001:0001ce95   245 0001:0001ceab
   268 0001:0001cec0   271 0001:0001cec4   272 0001:0001cedc   273 0001:0001ceeb
   275 0001:0001ceed   276 0001:0001cefe   278 0001:0001cf0a   279 0001:0001cf0c

Line numbers for C:\Program Files\Microsoft Visual Studio .NET 2003\Vc7\lib\LIBCMTD.lib(f:\vs70builds\3077\vc\crtbld\crt\src\crt0fp.c) segment .text

    46 0001:00025720    47 0001:00025723    48 0001:0002572d

Line numbers for C:\Program Files\Microsoft Visual Studio .NET 2003\Vc7\lib\LIBCMTD.lib(f:\vs70builds\3077\vc\crtbld\crt\src\crt0dat.c) segment .text

   181 0001:00015100   198 0001:00015104   199 0001:0001510d   205 0001:0001511a
   206 0001:0001512f   207 0001:00015135   210 0001:0001513a   215 0001:00015147
   217 0001:00015159   218 0001:0001515b   302 0001:00015160   303 0001:00015163
   304 0001:00015173   310 0001:00015180   311 0001:00015183   312 0001:00015193
   317 0001:000151a0   318 0001:000151a3   319 0001:000151b1   324 0001:000151c0
   325 0001:000151c3   326 0001:000151d1   335 0001:000151e0   341 0001:00015203
   342 0001:00015208   345 0001:0001520f   346 0001:00015218   347 0001:00015229
   350 0001:00015233   352 0001:0001523c   368 0001:00015242   369 0001:0001524b
   374 0001:00015267   375 0001:00015272   376 0001:0001527a   381 0001:0001527c
   387 0001:0001528e   392 0001:000152a0   394 0001:000152b8   395 0001:000152c2
   404 0001:000152d5   405 0001:000152db   408 0001:000152e1   409 0001:000152e7
   412 0001:000152e9   414 0001:000152f3   415 0001:000152ff   444 0001:00015310
   448 0001:00015316   449 0001:00015324   450 0001:0001532a   451 0001:0001533c
   452 0001:00015342   463 0001:00015349   464 0001:00015353   514 0001:00015360
   515 0001:00015363   516 0001:0001536d   540 0001:00015370   541 0001:00015373
   542 0001:0001537d   586 0001:00015380   593 0001:00015383   598 0001:0001538b
   599 0001:00015393   600 0001:00015398   601 0001:000153a1   602 0001:000153a3
   635 0001:000153b0   636 0001:000153b4   644 0001:000153bb   649 0001:000153c9
   650 0001:000153d1   651 0001:000153d9   652 0001:000153e2   654 0001:000153e4
   655 0001:000153e7

Line numbers for C:\Program Files\Microsoft Visual Studio .NET 2003\Vc7\lib\LIBCMTD.lib(F:\VS70Builds\3077\vc\crtbld\crt\src\intel\chkstk.asm) segment .text

    69 0001:0000e6a0    65 0001:0000e6a0    70 0001:0000e6a5    72 0001:0000e6a7
    73 0001:0000e6a9    74 0001:0000e6ab    75 0001:0000e6ae    76 0001:0000e6b0
    77 0001:0000e6b1    78 0001:0000e6b3    79 0001:0000e6b4    82 0001:0000e6b5
    83 0001:0000e6b6    88 0001:0000e6ba    89 0001:0000e6c0    91 0001:0000e6c5
    93 0001:0000e6c7    94 0001:0000e6cc    97 0001:0000e6ce    98 0001:0000e6d0
   100 0001:0000e6d2   102 0001:0000e6d4   104 0001:0000e6d6   105 0001:0000e6d8
   107 0001:0000e6db   109 0001:0000e6dc

Line numbers for C:\Program Files\Microsoft Visual Studio .NET 2003\Vc7\lib\LIBCMTD.lib(f:\vs70builds\3077\vc\crtbld\crt\src\wtombenv.c) segment .text

    43 0001:00028640    44 0001:00028646    45 0001:0002864d    52 0001:00028655
    57 0001:00028661    58 0001:00028684    61 0001:0002868c    62 0001:000286aa
    65 0001:000286af    67 0001:000286d1    68 0001:000286df    72 0001:000286e4
    74 0001:000286f6    76 0001:000286fc    77 0001:0002870a    81 0001:00028711
    82 0001:0002871a    84 0001:0002871f    85 0001:00028721

Line numbers for C:\Program Files\Microsoft Visual Studio .NET 2003\Vc7\lib\LIBCMTD.lib(f:\vs70builds\3077\vc\crtbld\crt\src\winxfltr.c) segment .text

   160 0001:000153f0   161 0001:000153f3   162 0001:000153fc   164 0001:0001540e
   166 0001:00015410   219 0001:00015420   227 0001:00015426   236 0001:0001542e
   245 0001:00015453   252 0001:00015462   257 0001:0001546b   258 0001:00015475
   264 0001:0001547f   268 0001:00015488   277 0001:00015490   283 0001:00015499
   284 0001:000154a2   293 0001:000154ab   301 0001:000154b8   305 0001:000154dc
   309 0001:000154f0   316 0001:000154f2   335 0001:000154fb   337 0001:00015506
   339 0001:00015510   341 0001:00015520   343 0001:0001552a   345 0001:00015537
   347 0001:00015541   349 0001:0001554e   351 0001:00015558   353 0001:00015565
   355 0001:0001556f   357 0001:0001557c   359 0001:00015586   361 0001:00015593
   370 0001:0001559d   375 0001:000155ac   377 0001:000155b5   382 0001:000155b7
   383 0001:000155c1   389 0001:000155ce   391 0001:000155d7   393 0001:000155da
   432 0001:000155e0   434 0001:000155e4   445 0001:000155ea   462 0001:00015610
   463 0001:0001562b   465 0001:0001562f   466 0001:00015632

Line numbers for C:\Program Files\Microsoft Visual Studio .NET 2003\Vc7\lib\LIBCMTD.lib(f:\vs70builds\3077\vc\crtbld\crt\src\winsig.c) segment .text

   216 0001:0001d5e0   227 0001:0001d603   228 0001:0001d60f   241 0001:0001d614
   244 0001:0001d630   245 0001:0001d63a   253 0001:0001d641   255 0001:0001d656
   256 0001:0001d668   257 0001:0001d672   258 0001:0001d674   259 0001:0001d691
   262 0001:0001d696   265 0001:0001d6bc   266 0001:0001d6c5   267 0001:0001d6cd
   270 0001:0001d6cf   271 0001:0001d6d8   272 0001:0001d6e1   275 0001:0001d6e3
   276 0001:0001d6eb   277 0001:0001d6f4   280 0001:0001d6f6   281 0001:0001d6ff
   283 0001:0001d707   288 0001:0001d715   291 0001:0001d720   306 0001:0001d725
   307 0001:0001d737   314 0001:0001d73c   320 0001:0001d744   324 0001:0001d750
   330 0001:0001d77a   331 0001:0001d794   336 0001:0001d796   347 0001:0001d798
   351 0001:0001d7b4   363 0001:0001d7b6   370 0001:0001d7bf   375 0001:0001d7ca
   382 0001:0001d7d3   386 0001:0001d7f0   387 0001:0001d7f2   390 0001:0001d7f4
   393 0001:0001d7f9   394 0001:0001d804   395 0001:0001d807    79 0001:0001d850
    85 0001:0001d873    86 0001:0001d87d    94 0001:0001d884    95 0001:0001d88a
    96 0001:0001d899    98 0001:0001d8a0    99 0001:0001d8a2   100 0001:0001d8b1
   104 0001:0001d8b8   108 0001:0001d8c4   112 0001:0001d8db   116 0001:0001d8e6
   120 0001:0001d8ec   122 0001:0001d8f0   129 0001:0001d8f6   136 0001:0001d900
   137 0001:0001d905   424 0001:0001d920   432 0001:0001d943   436 0001:0001d94a
   439 0001:0001d974   441 0001:0001d983   443 0001:0001d98c   446 0001:0001d991
   448 0001:0001d9a0   450 0001:0001d9a9   453 0001:0001d9ab   455 0001:0001d9ba
   457 0001:0001d9c3   460 0001:0001d9c5   462 0001:0001d9d4   464 0001:0001d9dd
   470 0001:0001d9df   472 0001:0001d9e7   477 0001:0001da08   483 0001:0001da0a
   489 0001:0001da12   490 0001:0001da18   495 0001:0001da1f   500 0001:0001da25
   508 0001:0001da2c   509 0001:0001da32   511 0001:0001da3c   525 0001:0001da43
   527 0001:0001da55   528 0001:0001da5e   538 0001:0001da68   540 0001:0001da6e
   541 0001:0001da77   553 0001:0001da81   560 0001:0001da87   564 0001:0001daab
   568 0001:0001dabf   569 0001:0001dac1   570 0001:0001dac3   575 0001:0001dada
   576 0001:0001dae0   580 0001:0001daeb   587 0001:0001daf1   591 0001:0001db00
   592 0001:0001db02   599 0001:0001db0c   601 0001:0001db1e   609 0001:0001db27
   611 0001:0001db2d   617 0001:0001db36   618 0001:0001db38   645 0001:0001db80
   646 0001:0001db84   664 0001:0001db8a   678 0001:0001dbb1   682 0001:0001dbcd
   687 0001:0001dbd2   688 0001:0001dbd4   709 0001:0001dbe0   710 0001:0001dbe3
   711 0001:0001dbeb   731 0001:0001dbf0   732 0001:0001dbf3   733 0001:0001dbfb

Line numbers for C:\Program Files\Microsoft Visual Studio .NET 2003\Vc7\lib\LIBCMTD.lib(f:\vs70builds\3077\vc\crtbld\crt\src\w_loc.c) segment .text

    57 0001:00027df0    65 0001:00027e16    67 0001:00027e1f    68 0001:00027e31
    70 0001:00027e3b    71 0001:00027e48    76 0001:00027e52    78 0001:00027e5b
    83 0001:00027e76    85 0001:00027e8c    88 0001:00027e93    94 0001:00027e9a
    95 0001:00027ea0    98 0001:00027ea9    99 0001:00027ec4   102 0001:00027ecb
   103 0001:00027ed2   105 0001:00027ef5   106 0001:00027efe   107 0001:00027f03
   110 0001:00027f11   112 0001:00027f17   113 0001:00027f35   114 0001:00027f39
   118 0001:00027f42   119 0001:00027f5c   121 0001:00027f5e   129 0001:00027f64
   131 0001:00027f7d   138 0001:00027f7f   142 0001:00027f9c   143 0001:00027fa2
   145 0001:00027fb0   149 0001:00027fb5   150 0001:00027fb7

Line numbers for C:\Program Files\Microsoft Visual Studio .NET 2003\Vc7\lib\LIBCMTD.lib(f:\vs70builds\3077\vc\crtbld\crt\src\convrtcp.c) segment .text

    39 0001:000268a0    42 0001:000268ae    44 0001:000268b2    45 0001:000268cb
    46 0001:000268d2    47 0001:000268d4    48 0001:000268e3    49 0001:000268e6
    79 0001:00026900    81 0001:0002692e    82 0001:00026935    84 0001:0002693c
    85 0001:00026944    87 0001:0002694b    91 0001:00026957    93 0001:00026969
    94 0001:00026981    95 0001:00026987    98 0001:0002698e   100 0001:00026994
   101 0001:0002699a   102 0001:000269a0   104 0001:000269a2   112 0001:000269b4
   113 0001:000269db   116 0001:000269e2   117 0001:000269e9   118 0001:00026a05
   120 0001:00026a22   121 0001:00026a2b   122 0001:00026a30   125 0001:00026a3e
   126 0001:00026a44   127 0001:00026a64   128 0001:00026a6b   137 0001:00026a74
   139 0001:00026a98   148 0001:00026a9e   149 0001:00026ac2   150 0001:00026ac8
   159 0001:00026acd   161 0001:00026af8   170 0001:00026b1b   172 0001:00026b44
   173 0001:00026b52   174 0001:00026b59   175 0001:00026b5b   176 0001:00026b61
   183 0001:00026b69   184 0001:00026b6f   185 0001:00026b7d   186 0001:00026b80

Line numbers for C:\Program Files\Microsoft Visual Studio .NET 2003\Vc7\lib\LIBCMTD.lib(f:\vs70builds\3077\vc\crtbld\crt\src\setlocal.c) segment .text

   243 0001:00019b40   244 0001:00019b43   245 0001:00019b48   255 0001:00019b50
   256 0001:00019b53   257 0001:00019b58   305 0001:00019b60   311 0001:00019b63
   315 0001:00019b91   317 0001:00019bb3   318 0001:00019bc4   323 0001:00019bd3
   325 0001:00019bf5   326 0001:00019c06   329 0001:00019c15   330 0001:00019c26
   338 0001:00019c37   340 0001:00019c59   341 0001:00019c6a   349 0001:00019c81
   351 0001:00019ca7   352 0001:00019cb6   358 0001:00019cc7   359 0001:00019cd5
   381 0001:00019ce0   384 0001:00019d03   385 0001:00019d0d   387 0001:00019d14
   391 0001:00019d2a   394 0001:00019d35   395 0001:00019d38   398 0001:00019d50
   400 0001:00019d56   402 0001:00019d5e   408 0001:00019d76   410 0001:00019d80
   412 0001:00019d8d   413 0001:00019d96   415 0001:00019da9   416 0001:00019db2
   418 0001:00019dc5   419 0001:00019dce   421 0001:00019de1   422 0001:00019dea
   424 0001:00019dfd   431 0001:00019e18   432 0001:00019e23   434 0001:00019e35
   435 0001:00019e41   437 0001:00019e5a   438 0001:00019e66   440 0001:00019e7f
   441 0001:00019e8b   443 0001:00019ea4   444 0001:00019eb0   446 0001:00019ec9
   455 0001:00019eea   456 0001:00019f01   459 0001:00019f0d   460 0001:00019f13
   530 0001:00019f20   537 0001:00019f43   538 0001:00019f4f   540 0001:00019f56
   542 0001:00019f60   544 0001:00019f67   545 0001:00019f6d   547 0001:00019f94
   548 0001:00019fb3   550 0001:00019fba   552 0001:00019fe1   553 0001:00019fea
   554 0001:00019ff5   556 0001:0001a001   557 0001:0001a019   559 0001:0001a02f
   560 0001:0001a03b   562 0001:0001a047   563 0001:0001a052   564 0001:0001a05e
   565 0001:0001a06a   566 0001:0001a075   568 0001:0001a081   569 0001:0001a08d
   570 0001:0001a098   572 0001:0001a0a4   573 0001:0001a0b0   576 0001:0001a0bb
   577 0001:0001a0d2   579 0001:0001a0e1   581 0001:0001a0e9   584 0001:0001a0ee
   585 0001:0001a0fa   589 0001:0001a116   592 0001:0001a121   593 0001:0001a124
   599 0001:0001a140   608 0001:0001a151   611 0001:0001a157   613 0001:0001a190
   616 0001:0001a195   617 0001:0001a19f   619 0001:0001a1a9   621 0001:0001a1b3
   625 0001:0001a1e2   629 0001:0001a1eb   631 0001:0001a205   632 0001:0001a230
   635 0001:0001a237   638 0001:0001a25b   640 0001:0001a2a5   642 0001:0001a2a7
   644 0001:0001a2a9   645 0001:0001a2e9   647 0001:0001a2f0   649 0001:0001a2f9
   650 0001:0001a316   653 0001:0001a324   654 0001:0001a33e   656 0001:0001a34d
   657 0001:0001a36c   659 0001:0001a37b   661 0001:0001a38c   663 0001:0001a3b5
   666 0001:0001a3ba   668 0001:0001a3e2   670 0001:0001a406   672 0001:0001a40f
   674 0001:0001a432   676 0001:0001a44c   678 0001:0001a45b   680 0001:0001a45d
   683 0001:0001a467   684 0001:0001a469   686 0001:0001a478   687 0001:0001a47d
   689 0001:0001a486   691 0001:0001a48e   692 0001:0001a49f   694 0001:0001a4a9
   695 0001:0001a4ab   698 0001:0001a4d4   699 0001:0001a4d6   704 0001:0001a4de
   706 0001:0001a4e1   713 0001:0001a4f0   729 0001:0001a501   731 0001:0001a52a
   733 0001:0001a531   735 0001:0001a551   738 0001:0001a562   740 0001:0001a598
   743 0001:0001a59f   744 0001:0001a5b1   745 0001:0001a5c1   746 0001:0001a5df
   749 0001:0001a5eb   750 0001:0001a60d   751 0001:0001a61e   760 0001:0001a63c
   762 0001:0001a646   763 0001:0001a651   768 0001:0001a669   770 0001:0001a691
   775 0001:0001a6a6   777 0001:0001a6af   778 0001:0001a6cf   780 0001:0001a6ef
   784 0001:0001a6f1   785 0001:0001a711   786 0001:0001a731   788 0001:0001a749
   789 0001:0001a74e   797 0001:0001a75b   801 0001:0001a786   804 0001:0001a7aa
   805 0001:0001a7cc   806 0001:0001a7ce   808 0001:0001a7eb   810 0001:0001a7f5
   812 0001:0001a7f7   815 0001:0001a801   817 0001:0001a803   819 0001:0001a80d
   821 0001:0001a819   824 0001:0001a825   826 0001:0001a82b   829 0001:0001a836
   832 0001:0001a846   833 0001:0001a858   834 0001:0001a869   835 0001:0001a879
   837 0001:0001a885   843 0001:0001a889   844 0001:0001a895   846 0001:0001a8a6
   848 0001:0001a8b2   855 0001:0001a8c0   857 0001:0001a8c6   862 0001:0001a8cd
   863 0001:0001a8fd   865 0001:0001a904   866 0001:0001a90c   868 0001:0001a91e
   869 0001:0001a94d   871 0001:0001a953   872 0001:0001a967   873 0001:0001a990
   875 0001:0001a997   877 0001:0001a999   878 0001:0001a99f   881 0001:0001a9a6
   882 0001:0001a9b6   883 0001:0001a9c0   886 0001:0001a9c7   887 0001:0001a9cc
   897 0001:0001a9d0   903 0001:0001a9e1   904 0001:0001a9e7   908 0001:0001a9ee
   910 0001:0001aa04   911 0001:0001aa0a   912 0001:0001aa11   914 0001:0001aa17
   915 0001:0001aa1f   916 0001:0001aa28   918 0001:0001aa31   920 0001:0001aa37
   922 0001:0001aa40   927 0001:0001aa48   931 0001:0001aa8d   933 0001:0001aa97
   934 0001:0001aaae   937 0001:0001aab5   938 0001:0001aad4   942 0001:0001aadb
   944 0001:0001aae8   946 0001:0001aafc   948 0001:0001ab19   950 0001:0001ab22
   953 0001:0001ab24   957 0001:0001ab2e   959 0001:0001ab35   963 0001:0001ab4e
   964 0001:0001ab54   965 0001:0001ab67   966 0001:0001ab6d   968 0001:0001ab80
   969 0001:0001ab91   970 0001:0001ab96   975 0001:0001abb0   976 0001:0001abb3
   977 0001:0001abb5   985 0001:0001abc0   989 0001:0001abc6   991 0001:0001abcc
   993 0001:0001abe6   994 0001:0001ac02   995 0001:0001ac04   996 0001:0001ac0b
  1003 0001:0001ac10  1008 0001:0001ac16  1010 0001:0001ac29  1011 0001:0001ac33
  1014 0001:0001ac3a  1016 0001:0001ac50  1018 0001:0001ac6b  1019 0001:0001ac75
  1022 0001:0001ac7c  1024 0001:0001ac8e  1025 0001:0001aca8  1027 0001:0001acb0
  1029 0001:0001acbb  1030 0001:0001acd0  1032 0001:0001ace4  1033 0001:0001acfb
  1035 0001:0001ad12  1036 0001:0001ad31  1038 0001:0001ad4b  1039 0001:0001ad4d
  1041 0001:0001ad52  1046 0001:0001ad5b  1049 0001:0001ad5d  1050 0001:0001ad65
  1051 0001:0001ad67  1052 0001:0001ad74  1053 0001:0001ad79  1054 0001:0001ad7b
  1061 0001:0001ad80  1062 0001:0001ad83  1063 0001:0001ad93  1064 0001:0001ad9e
  1065 0001:0001adb8  1066 0001:0001adc6  1069 0001:0001ade3

Line numbers for C:\Program Files\Microsoft Visual Studio .NET 2003\Vc7\lib\LIBCMTD.lib(f:\vs70builds\3077\vc\crtbld\crt\src\setenv.c) segment .text

    74 0001:00028cf0    79 0001:00028cf7    81 0001:00028cfe    87 0001:00028d05
    90 0001:00028d0b    91 0001:00028d2d    93 0001:00028d35   100 0001:00028d3d
   101 0001:00028d62   107 0001:00028d6a   118 0001:00028d79   119 0001:00028d87
   123 0001:00028d9a   141 0001:00028da7   143 0001:00028db6   144 0001:00028dbf
   147 0001:00028dc7   149 0001:00028dcc   150 0001:00028dd2   154 0001:00028dd9
   156 0001:00028de2   157 0001:00028e06   158 0001:00028e0e   161 0001:00028e1a
   163 0001:00028e23   164 0001:00028e47   165 0001:00028e4f   181 0001:00028e5b
   187 0001:00028e63   190 0001:00028e79   196 0001:00028e8f   198 0001:00028ea3
   201 0001:00028ea9   202 0001:00028ec0   203 0001:00028ed3   209 0001:00028ed5
   210 0001:00028f00   212 0001:00028f08   214 0001:00028f0a   217 0001:00028f16
   220 0001:00028f1f   224 0001:00028f24   229 0001:00028f2a   230 0001:00028f30
   233 0001:00028f38   234 0001:00028f67   236 0001:00028f6f   237 0001:00028f7b
   240 0001:00028f89   242 0001:00028f92   244 0001:00028f9a   249 0001:00028f9c
   252 0001:00028faa   254 0001:00028fb3   265 0001:00028fba   267 0001:00028ff1
   268 0001:00029001   269 0001:0002900d   316 0001:0002901c   317 0001:00029038
   319 0001:0002903f   322 0001:0002904d   324 0001:00029053   327 0001:00029061
   328 0001:00029064   359 0001:00029070   362 0001:00029074   366 0001:0002908f
   371 0001:000290a9   372 0001:000290ca   377 0001:000290d8   379 0001:000290da
   380 0001:000290e8   400 0001:000290f0   401 0001:000290f6   402 0001:000290fd
   406 0001:00029103   407 0001:00029109   410 0001:00029110   411 0001:00029122
   415 0001:0002912d   416 0001:0002915b   419 0001:00029165   420 0001:0002916b
   424 0001:00029173   425 0001:000291a6   426 0001:000291ba   427 0001:000291c3
   428 0001:000291cc   433 0001:000291ce   435 0001:000291d7   436 0001:000291da

Line numbers for C:\Program Files\Microsoft Visual Studio .NET 2003\Vc7\lib\LIBCMTD.lib(f:\vs70builds\3077\vc\crtbld\crt\src\purevirt.c) segment .text

    43 0001:0000e6e0    44 0001:0000e6e3    46 0001:0000e6ec    53 0001:0000e6f2
    54 0001:0000e6fc    78 0001:0000e700    79 0001:0000e704    81 0001:0000e70b
    82 0001:0000e713    84 0001:0000e71c    85 0001:0000e71f

Line numbers for C:\Program Files\Microsoft Visual Studio .NET 2003\Vc7\lib\LIBCMTD.lib(f:\vs70builds\3077\vc\crtbld\crt\src\onexit.c) segment .text

    89 0001:0001ee30    93 0001:0001ee53    95 0001:0001ee58    96 0001:0001ee5f
    99 0001:0001ee7c   102 0001:0001ee82   103 0001:0001ee85   109 0001:0001eea0
   119 0001:0001eea6   125 0001:0001eed1   131 0001:0001ef11   135 0001:0001ef3b
   141 0001:0001ef3f   142 0001:0001ef59   149 0001:0001ef62   151 0001:0001ef7c
   152 0001:0001ef7f   157 0001:0001ef90   158 0001:0001ef93   159 0001:0001efa6
   197 0001:0001efb0   198 0001:0001efb3   203 0001:0001efda   205 0001:0001efe1
   206 0001:0001efec   208 0001:0001eff8   209 0001:0001effa

Line numbers for C:\Program Files\Microsoft Visual Studio .NET 2003\Vc7\lib\LIBCMTD.lib(f:\vs70builds\3077\vc\crtbld\crt\src\lconv.c) segment .text

    68 0001:00021530    71 0001:00021533    72 0001:00021538

Line numbers for C:\Program Files\Microsoft Visual Studio .NET 2003\Vc7\lib\LIBCMTD.lib(f:\vs70builds\3077\vc\crtbld\crt\src\inittime.c) segment .text

    61 0001:00021540    65 0001:00021544    69 0001:0002154d    70 0001:0002156e
    72 0001:00021575    74 0001:00021585    75 0001:00021591    76 0001:0002159f
    79 0001:000215a6    84 0001:000215ae    85 0001:000215b7    88 0001:000215bb
    93 0001:000215c5    94 0001:000215cf    96 0001:000215d1   105 0001:000215e0
   106 0001:000215e6   111 0001:000215ed   112 0001:000215f7   114 0001:00021601
   115 0001:00021607   119 0001:0002160f   120 0001:0002162c   121 0001:00021649
   122 0001:00021666   123 0001:00021683   124 0001:000216a0   125 0001:000216bd
   127 0001:000216d7   128 0001:000216f4   129 0001:00021711   130 0001:0002172e
   131 0001:0002174b   132 0001:00021768   133 0001:00021785   135 0001:000217a2
   136 0001:000217bf   137 0001:000217dc   138 0001:000217f9   139 0001:00021816
   140 0001:00021833   141 0001:00021850   142 0001:0002186d   143 0001:0002188a
   144 0001:000218a7   145 0001:000218c4   146 0001:000218e1   148 0001:000218fe
   149 0001:0002191b   150 0001:00021938   151 0001:00021955   152 0001:00021972
   153 0001:0002198f   154 0001:000219ac   155 0001:000219cb   156 0001:000219eb
   157 0001:00021a0b   158 0001:00021a2a   159 0001:00021a4a   161 0001:00021a6a
   162 0001:00021a89   167 0001:00021aa9   168 0001:00021ac9   170 0001:00021ae8
   172 0001:00021b0b   174 0001:00021b2e   176 0001:00021b3a   177 0001:00021b3d
   186 0001:00021b50   187 0001:00021b53   188 0001:00021b59   190 0001:00021b5e
   191 0001:00021b6f   192 0001:00021b80   193 0001:00021b91   194 0001:00021ba2
   195 0001:00021bb3   196 0001:00021bc4   198 0001:00021bd4   199 0001:00021be5
   200 0001:00021bf6   201 0001:00021c07   202 0001:00021c18   203 0001:00021c29
   204 0001:00021c3a   206 0001:00021c4b   207 0001:00021c5c   208 0001:00021c6d
   209 0001:00021c7e   210 0001:00021c8f   211 0001:00021ca0   212 0001:00021cb1
   213 0001:00021cc2   214 0001:00021cd3   215 0001:00021ce4   216 0001:00021cf5
   217 0001:00021d06   219 0001:00021d17   220 0001:00021d28   221 0001:00021d39
   222 0001:00021d4a   223 0001:00021d5b   224 0001:00021d6c   225 0001:00021d7d
   226 0001:00021d91   227 0001:00021da5   228 0001:00021db9   229 0001:00021dcd
   230 0001:00021de1   232 0001:00021df5   233 0001:00021e09   235 0001:00021e1d
   236 0001:00021e31   237 0001:00021e45   239 0001:00021e59

Line numbers for C:\Program Files\Microsoft Visual Studio .NET 2003\Vc7\lib\LIBCMTD.lib(f:\vs70builds\3077\vc\crtbld\crt\src\initnum.c) segment .text

    95 0001:00021e60    97 0001:00021e68   104 0001:00021e6f   110 0001:00021e85
   111 0001:00021ea3   116 0001:00021ead   122 0001:00021ebd   124 0001:00021ed9
   125 0001:00021ee7   127 0001:00021ef1   130 0001:00021efa   136 0001:00021f07
   138 0001:00021f2b   139 0001:00021f39   140 0001:00021f47   142 0001:00021f51
   149 0001:00021f5d   152 0001:00021f67   154 0001:00021f81   156 0001:00021f9e
   158 0001:00021fbb   160 0001:00021fbd   161 0001:00021fc9   163 0001:00021fd7
   165 0001:00021fe5   168 0001:00021fed   170 0001:00021ffc   178 0001:00021ffe
   180 0001:00022008   181 0001:00022012   182 0001:0002201e   195 0001:0002202a
   197 0001:0002204e   198 0001:0002205f   200 0001:0002206f   212 0001:00022078
   215 0001:0002208b   226 0001:0002208d   228 0001:000220b1   229 0001:000220c2
   234 0001:000220d3   235 0001:000220dd   246 0001:000220e7   247 0001:000220f1
   254 0001:000220fb   255 0001:0002210a   257 0001:00022114   259 0001:00022116
    43 0001:00022120    51 0001:00022124    54 0001:0002212e    56 0001:00022144
    57 0001:00022152    61 0001:0002215b    63 0001:00022168    66 0001:0002216e
    67 0001:00022179    71 0001:0002218c    72 0001:0002218e    73 0001:00022197
    74 0001:00022199   268 0001:000221a0   269 0001:000221a3   270 0001:000221a9
   274 0001:000221ae   278 0001:000221ca   282 0001:000221da   286 0001:000221f9
   290 0001:0002220a   294 0001:00022228   295 0001:00022239

Line numbers for C:\Program Files\Microsoft Visual Studio .NET 2003\Vc7\lib\LIBCMTD.lib(f:\vs70builds\3077\vc\crtbld\crt\src\initmon.c) segment .text

    81 0001:00022240    90 0001:00022248    96 0001:0002225e    97 0001:0002227c
   103 0001:00022286   105 0001:000222a2   106 0001:000222b0   108 0001:000222ba
   111 0001:000222c3   117 0001:000222d0   119 0001:000222f1   120 0001:000222ff
   121 0001:0002230d   123 0001:00022317   130 0001:00022323   132 0001:0002232d
   135 0001:00022334   137 0001:00022351   139 0001:0002236e   141 0001:0002238b
   143 0001:000223a8   146 0001:000223c5   148 0001:000223e2   151 0001:000223ff
   153 0001:0002241c   155 0001:00022439   157 0001:00022456   159 0001:00022473
   161 0001:00022490   163 0001:000224ad   165 0001:000224ca   167 0001:000224e7
   168 0001:000224e9   169 0001:000224f5   171 0001:00022503   173 0001:00022511
   176 0001:0002251b   178 0001:0002252a   188 0001:0002252c   193 0001:0002253b
   200 0001:00022545   201 0001:00022551   202 0001:0002255f   204 0001:0002256d
   206 0001:00022576   211 0001:0002257e   214 0001:00022587   222 0001:00022589
   223 0001:00022593   228 0001:0002259d   229 0001:000225a7   233 0001:000225b1
   234 0001:000225b3   239 0001:000225c0   247 0001:000225c4   250 0001:000225ce
   252 0001:000225e4   253 0001:000225f2   257 0001:000225fb   259 0001:00022608
   262 0001:0002260e   263 0001:00022619   267 0001:0002262c   268 0001:0002262e
   269 0001:00022637   270 0001:00022639   280 0001:00022640   281 0001:00022643
   282 0001:00022649   286 0001:0002264e   290 0001:0002266d   294 0001:0002267e
   298 0001:0002269d   302 0001:000226ae   306 0001:000226cc   310 0001:000226dd
   314 0001:000226fc   318 0001:0002270d   322 0001:0002272c   326 0001:0002273d
   330 0001:0002275b   334 0001:0002276c   338 0001:0002278b   339 0001:0002279c

Line numbers for C:\Program Files\Microsoft Visual Studio .NET 2003\Vc7\lib\LIBCMTD.lib(f:\vs70builds\3077\vc\crtbld\crt\src\inithelp.c) segment .text

    66 0001:00026640    67 0001:00026651    69 0001:0002665b    71 0001:00026661
    72 0001:0002666a    73 0001:00026674    77 0001:0002667e    79 0001:000266ae
    80 0001:000266b9    85 0001:000266be    86 0001:000266e3    89 0001:000266e8
    90 0001:00026709    92 0001:0002670e    95 0001:00026718    96 0001:00026744
    99 0001:00026746   100 0001:0002676b   102 0001:0002676d   104 0001:00026786
   105 0001:0002678f   107 0001:0002679d   110 0001:000267a4   111 0001:000267ad
   112 0001:000267bb   114 0001:000267c3   119 0001:000267cd   120 0001:000267d7
   122 0001:000267e0   123 0001:00026802   125 0001:0002680a   128 0001:00026813
   130 0001:00026837   131 0001:0002685e   132 0001:0002687d   133 0001:0002687f
   134 0001:00026881   135 0001:00026883   137 0001:00026887   138 0001:0002688a

Line numbers for C:\Program Files\Microsoft Visual Studio .NET 2003\Vc7\lib\LIBCMTD.lib(f:\vs70builds\3077\vc\crtbld\crt\src\initctyp.c) segment .text

    71 0001:000227a0    80 0001:000227ae    89 0001:000227b5    91 0001:000227c2
    96 0001:000227cb    97 0001:000227eb   102 0001:000227f0   107 0001:00022806
   109 0001:0002281f   112 0001:00022838   116 0001:0002284a   119 0001:0002284f
   123 0001:00022858   124 0001:00022879   126 0001:0002288c   127 0001:000228a1
   129 0001:000228a6   130 0001:000228ac   132 0001:000228b1   135 0001:000228ba
   137 0001:000228c3   139 0001:000228e9   140 0001:00022909   141 0001:00022914
   151 0001:00022916   152 0001:0002293d   153 0001:00022942   158 0001:0002294e
   160 0001:00022957   162 0001:0002297d   163 0001:0002299d   164 0001:000229af
   169 0001:000229b1   172 0001:000229cc   175 0001:000229db   183 0001:000229e4
   186 0001:000229f1   187 0001:000229ff   191 0001:00022a03   193 0001:00022a11
   194 0001:00022a1f   195 0001:00022a2d   200 0001:00022a34   208 0001:00022a3e
   211 0001:00022a48   213 0001:00022a52   215 0001:00022a54   223 0001:00022a60
   224 0001:00022a63   225 0001:00022a68   229 0001:00022a70   231 0001:00022a74
   233 0001:00022a7f   234 0001:00022a8a   236 0001:00022a92   240 0001:00022a98
   244 0001:00022aa0   246 0001:00022aa4   248 0001:00022aaf   249 0001:00022aba
   251 0001:00022ac2   255 0001:00022ac8   259 0001:00022ad0   261 0001:00022ad4
   263 0001:00022adf   264 0001:00022aea   266 0001:00022af2   270 0001:00022af8

Line numbers for C:\Program Files\Microsoft Visual Studio .NET 2003\Vc7\lib\LIBCMTD.lib(f:\vs70builds\3077\vc\crtbld\crt\src\initcrit.c) segment .text

    88 0001:0001cf10    92 0001:0001cf36    98 0001:0001cf3f   105 0001:0001cf48
   107 0001:0001cf52   108 0001:0001cf54   109 0001:0001cf62   112 0001:0001cf68
   114 0001:0001cf7c   119 0001:0001cf85   122 0001:0001cf8f   127 0001:0001cf91
   132 0001:0001cf9b   138 0001:0001cfa2   140 0001:0001cfbc   147 0001:0001cfcf
   148 0001:0001cfd8   150 0001:0001cfe0   153 0001:0001cfee   154 0001:0001cff1
    55 0001:0001d010    56 0001:0001d013    57 0001:0001d01d    58 0001:0001d022

Line numbers for C:\Program Files\Microsoft Visual Studio .NET 2003\Vc7\lib\LIBCMTD.lib(f:\vs70builds\3077\vc\crtbld\crt\src\initcoll.c) segment .text

    41 0001:00022b00    42 0001:00022b03    43 0001:00022b05

Line numbers for C:\Program Files\Microsoft Visual Studio .NET 2003\Vc7\lib\LIBCMTD.lib(f:\vs70builds\3077\vc\crtbld\crt\src\getqloc.c) segment .text

   258 0001:00022e80   263 0001:00022e86   266 0001:00022e8f   269 0001:00022eb2
   272 0001:00022eb8   274 0001:00022ebd   276 0001:00022ec2   279 0001:00022ecb
   280 0001:00022ed6   283 0001:00022ee5   285 0001:00022ef9   287 0001:00022f03
   289 0001:00022f18   292 0001:00022f2e   294 0001:00022f33   297 0001:00022f35
   300 0001:00022f3a   305 0001:00022f43   307 0001:00022f5b   309 0001:00022f71
   311 0001:00022f76   313 0001:00022f78   318 0001:00022f7d   320 0001:00022f7f
   323 0001:00022f94   325 0001:00022f99   328 0001:00022f9b   334 0001:00022fa0
   335 0001:00022fa9   338 0001:00022fb0   341 0001:00022fc5   342 0001:00022fda
   345 0001:00022fe1   346 0001:00022ff4   349 0001:00022ffb   351 0001:00023001
   352 0001:0002300d   353 0001:0002301b   357 0001:00023026   361 0001:0002302c
   362 0001:00023039   363 0001:0002304a   364 0001:0002304c   365 0001:00023067
   367 0001:0002306b   368 0001:0002308a   369 0001:0002308e   371 0001:000230a5
   372 0001:000230aa   396 0001:000230b0   398 0001:000230b6   399 0001:000230bd
   402 0001:000230c4   404 0001:000230d2   405 0001:000230e0   407 0001:000230fb
   408 0001:00023101   409 0001:00023110   410 0001:00023118   411 0001:00023121
   412 0001:00023123   413 0001:0002312c   415 0001:0002312e   416 0001:00023137
   442 0001:00023140   444 0001:00023144   445 0001:0002315f   446 0001:0002317b
   447 0001:00023185   449 0001:000231b1   454 0001:000231be   455 0001:000231e4
   456 0001:000231ee   487 0001:00023200   488 0001:00023211   494 0001:00023223
   497 0001:00023251   498 0001:0002325b   500 0001:00023265   505 0001:00023280
   508 0001:000232ae   509 0001:000232b8   511 0001:000232c2   514 0001:000232d9
   515 0001:000232eb   519 0001:00023302   522 0001:00023316   525 0001:0002333c
   526 0001:00023349   529 0001:00023355   530 0001:0002336c   534 0001:00023377
   537 0001:00023384   540 0001:00023397   541 0001:000233a4   548 0001:000233b0
   553 0001:000233c8   556 0001:000233f6   557 0001:00023400   560 0001:0002340a
   563 0001:00023425   565 0001:00023437   569 0001:00023440   570 0001:0002344f
   571 0001:00023458   575 0001:00023464   578 0001:00023489   582 0001:0002349e
   583 0001:000234b0   584 0001:000234b9   587 0001:000234c5   591 0001:000234c7
   592 0001:000234d6   593 0001:000234df   596 0001:000234eb   597 0001:000234ed
   600 0001:0002351d   604 0001:00023532   605 0001:00023541   606 0001:0002354a
   613 0001:00023556   614 0001:00023563   638 0001:00023580   640 0001:00023584
   641 0001:0002359f   643 0001:000235c5   647 0001:000235d2   648 0001:000235dc
   649 0001:000235e6   671 0001:000235f0   672 0001:00023601   678 0001:00023613
   681 0001:00023641   682 0001:0002364b   685 0001:00023655   689 0001:0002366c
   692 0001:0002368a   693 0001:000236a2   696 0001:000236af   697 0001:000236b1
   700 0001:000236e0   703 0001:000236f5   704 0001:0002370b   708 0001:0002371a
   709 0001:00023727   732 0001:00023740   733 0001:00023743   735 0001:0002375e
   739 0001:0002376b   740 0001:00023776   741 0001:00023780   763 0001:00023790
   764 0001:000237a1   770 0001:000237b3   773 0001:000237e1   774 0001:000237eb
   776 0001:000237f2   779 0001:00023809   782 0001:0002381c   783 0001:00023834
   786 0001:00023841   787 0001:0002384e   806 0001:00023860   807 0001:00023863
   808 0001:00023872   809 0001:00023889   829 0001:00023890   832 0001:0002389e
   836 0001:000238c3   837 0001:000238df   838 0001:000238e3   840 0001:000238e9
   844 0001:00023900   845 0001:00023919   846 0001:0002391d   850 0001:00023923
   851 0001:0002392f   871 0001:00023940   872 0001:00023946   875 0001:0002394e
   877 0001:00023966   878 0001:00023979   879 0001:0002397d   880 0001:0002397f
   881 0001:00023984   903 0001:00023990   906 0001:000239a2   909 0001:000239bd
   910 0001:000239d6   912 0001:000239da   916 0001:000239eb   917 0001:00023a14
   919 0001:00023a18   920 0001:00023a1d   945 0001:00023a30   947 0001:00023a36
   948 0001:00023a3d   949 0001:00023a44   952 0001:00023a4b   954 0001:00023a57
   955 0001:00023a65   958 0001:00023a7a   961 0001:00023ac4   962 0001:00023ad3
   964 0001:00023ad5   965 0001:00023ae4   967 0001:00023ae6   968 0001:00023af5
   970 0001:00023af7   971 0001:00023b06   973 0001:00023b08   974 0001:00023b17
   976 0001:00023b19   977 0001:00023b28   979 0001:00023b2a   983 0001:00023b38
   985 0001:00023b44   989 0001:00023b46   990 0001:00023b5d   991 0001:00023b67
   994 0001:00023b6e   995 0001:00023b7f   996 0001:00023b88   997 0001:00023b8a
   998 0001:00023b93  1000 0001:00023b98  1001 0001:00023bae  1020 0001:00023bc0
  1022 0001:00023bc6  1024 0001:00023bcd  1026 0001:00023be6  1027 0001:00023bf8
  1028 0001:00023c02  1029 0001:00023c16  1030 0001:00023c20  1031 0001:00023c31
  1033 0001:00023c33  1034 0001:00023c36  1053 0001:00023c40  1054 0001:00023c46
  1057 0001:00023c4d  1058 0001:00023c5e  1060 0001:00023c82  1061 0001:00023c8b
  1062 0001:00023c9c  1064 0001:00023c9e  1065 0001:00023ca1

Line numbers for C:\Program Files\Microsoft Visual Studio .NET 2003\Vc7\lib\LIBCMTD.lib(f:\vs70builds\3077\vc\crtbld\crt\src\getenv.c) segment .text

    58 0001:000277a0    61 0001:000277c3    63 0001:000277cd    67 0001:000277d4
    71 0001:000277f1    74 0001:000277fc    76 0001:000277ff    99 0001:00027810
   100 0001:00027816   107 0001:0002781e   108 0001:00027827   130 0001:0002782e
   133 0001:0002783d   134 0001:00027846   137 0001:0002784d   142 0001:00027856
   144 0001:00027862   152 0001:00027871   155 0001:00027879   156 0001:000278b7
   159 0001:000278c5   160 0001:000278ce   163 0001:000278d0   164 0001:000278d2

Line numbers for C:\Program Files\Microsoft Visual Studio .NET 2003\Vc7\lib\LIBCMTD.lib(f:\vs70builds\3077\vc\crtbld\crt\src\dbgrpt.c) segment .text

    91 0001:00011f80    92 0001:00011f83    93 0001:00011f89   115 0001:00011f90
   118 0001:00011f94   119 0001:00011fa0   121 0001:00011fa5   122 0001:00011fab
   125 0001:00011fb7   126 0001:00011fbf   128 0001:00011fc4   130 0001:00011fd1
   132 0001:00011fde   133 0001:00011fe1   155 0001:00011ff0   158 0001:00011ff4
   159 0001:00012000   161 0001:00012007   162 0001:0001200d   164 0001:00012019
   166 0001:00012026   167 0001:0001202c   168 0001:0001203e   169 0001:00012046
   170 0001:00012058   171 0001:0001205a   173 0001:00012067   174 0001:0001206a
   195 0001:00012070   196 0001:00012074   197 0001:0001207c   198 0001:00012085
   199 0001:00012088   225 0001:00012090   231 0001:000120b3   233 0001:000120c5
   234 0001:000120d0   238 0001:000120d8   239 0001:000120e6   240 0001:000120ee
   241 0001:000120f8   246 0001:000120ff   247 0001:00012118   248 0001:00012123
   250 0001:00012125   253 0001:00012131   255 0001:00012137   257 0001:00012155
   258 0001:0001215e   259 0001:0001216b   260 0001:00012173   261 0001:00012181
   262 0001:00012183   263 0001:0001218e   266 0001:0001219c   268 0001:0001219e
   269 0001:000121a5   272 0001:000121b0   275 0001:000121b5   278 0001:000121bb
   279 0001:000121d3   281 0001:000121de   282 0001:000121e7   283 0001:000121f4
   284 0001:00012202   285 0001:0001220b   286 0001:00012217   287 0001:00012222
   290 0001:0001222b   293 0001:0001222d   294 0001:00012246   296 0001:0001224c
   297 0001:00012253   299 0001:0001225e   301 0001:00012260   302 0001:00012269
   303 0001:00012275   304 0001:0001227e   305 0001:00012289   306 0001:0001229a
   307 0001:000122a3   315 0001:000122ba   319 0001:000122c5   320 0001:000122c8
   381 0001:000122e0   384 0001:00012315   385 0001:0001232e   386 0001:00012347
   390 0001:00012360   392 0001:00012366   393 0001:00012372   402 0001:0001237a
   408 0001:00012397   410 0001:000123a0   414 0001:000123b1   415 0001:000123da
   420 0001:000123e2   422 0001:000123ff   424 0001:0001240c   426 0001:00012417
   427 0001:0001241c   434 0001:00012424   435 0001:0001244a   437 0001:0001245e
   438 0001:00012464   440 0001:00012496   442 0001:000124ac   444 0001:000124b2
   445 0001:000124c1   446 0001:000124d5   449 0001:000124e9   452 0001:000124ef
   453 0001:0001251b   455 0001:0001252f   456 0001:00012531   459 0001:00012547
   464 0001:00012554   465 0001:0001255e   469 0001:00012565   471 0001:0001258b
   473 0001:000125aa   474 0001:000125b0   475 0001:000125d2   477 0001:000125dd
   482 0001:000125ed   488 0001:000125f8   490 0001:00012601   492 0001:0001261d
   493 0001:00012623   494 0001:0001262e   498 0001:00012636   500 0001:00012645
   503 0001:00012652   507 0001:00012683   509 0001:00012692   512 0001:0001269f
   516 0001:000126ae   517 0001:00012700   518 0001:00012706   519 0001:00012711
   522 0001:00012716   523 0001:0001271c   525 0001:00012727   526 0001:00012729
   563 0001:00012750   570 0001:00012765   573 0001:00012790   574 0001:00012797
   575 0001:000127af   577 0001:000127c3   579 0001:000127cc   581 0001:000127dd
   582 0001:000127f3   586 0001:00012806   588 0001:0001280c   590 0001:00012823
   591 0001:00012839   611 0001:0001284c   612 0001:000129e4   617 0001:000129f8
   620 0001:00012a17   623 0001:00012a20   628 0001:00012a2a   632 0001:00012a31
   633 0001:00012a3a   636 0001:00012a41   637 0001:00012a43

Line numbers for C:\Program Files\Microsoft Visual Studio .NET 2003\Vc7\lib\LIBCMTD.lib(f:\vs70builds\3077\vc\crtbld\crt\src\dbgdel.cpp) segment .text

    37 0001:0000cd50    42 0001:0000cd73    43 0001:0000cd79    45 0001:0000cd7e
    46 0001:0000cd88    49 0001:0000cd8f    52 0001:0000cd98    54 0001:0000cdea
    57 0001:0000ce0b    61 0001:0000ce16

Line numbers for C:\Program Files\Microsoft Visual Studio .NET 2003\Vc7\lib\LIBCMTD.lib(f:\vs70builds\3077\vc\crtbld\crt\src\dbghook.c) segment .text

    46 0001:000178b0    47 0001:000178b3    48 0001:000178b8

Line numbers for C:\Program Files\Microsoft Visual Studio .NET 2003\Vc7\lib\LIBCMTD.lib(f:\vs70builds\3077\vc\crtbld\crt\src\dbgheap.c) segment .text

   138 0001:0000e730   139 0001:0000e734   143 0001:0000e74f   144 0001:0000e752
   175 0001:0000e760   176 0001:0000e764   178 0001:0000e785   179 0001:0000e788
   208 0001:0000e790   209 0001:0000e793   210 0001:0000e7a9   246 0001:0000e7b0
   254 0001:0000e7d3   255 0001:0000e7dd   260 0001:0000e7e4   267 0001:0000e80d
   271 0001:0000e818   272 0001:0000e824   275 0001:0000e829   276 0001:0000e839
   279 0001:0000e83d   280 0001:0000e83f   304 0001:0000e850   305 0001:0000e853
   306 0001:0000e865   336 0001:0000e870   339 0001:0000e876   343 0001:0000e87d
   344 0001:0000e886   346 0001:0000e896   347 0001:0000e8c0   349 0001:0000e8ca
   350 0001:0000e8cc   352 0001:0000e8db   355 0001:0000e8e3   356 0001:0000e8f7
   359 0001:0000e8f8   361 0001:0000e91d   363 0001:0000e923   364 0001:0000e946
   365 0001:0000e948   367 0001:0000e968   372 0001:0000e96f   373 0001:0000e987
   378 0001:0000e98e   380 0001:0000e99f   381 0001:0000e9be   384 0001:0000e9c5
   386 0001:0000e9ed   389 0001:0000ea0d   397 0001:0000ea16   399 0001:0000ea25
   402 0001:0000ea2b   406 0001:0000ea32   408 0001:0000ea3f   410 0001:0000ea45
   411 0001:0000ea4e   412 0001:0000ea58   413 0001:0000ea62   414 0001:0000ea6c
   415 0001:0000ea75   416 0001:0000ea7f   418 0001:0000ea89   420 0001:0000ea8e
   421 0001:0000ea9b   423 0001:0000eaaa   424 0001:0000eab8   426 0001:0000eac2
   427 0001:0000eacb   428 0001:0000ead7   429 0001:0000ead9   431 0001:0000eae1
   432 0001:0000eaec   433 0001:0000eaf6   434 0001:0000eaff   435 0001:0000eb08
   436 0001:0000eb11   437 0001:0000eb1a   440 0001:0000eb23   444 0001:0000eb2c
   445 0001:0000eb45   448 0001:0000eb62   452 0001:0000eb7d   453 0001:0000eb83
   480 0001:0000eb90   481 0001:0000eb94   485 0001:0000ebad   486 0001:0000ebb0
   521 0001:0000ebc0   526 0001:0000ebc6   532 0001:0000ebd0   539 0001:0000ebeb
   541 0001:0000ebf1   542 0001:0000ebf7   543 0001:0000ec00   544 0001:0000ec08
   549 0001:0000ec19   550 0001:0000ec1c   823 0001:0000ec20   824 0001:0000ec24
   829 0001:0000ec3d   830 0001:0000ec40   868 0001:0000ec50   872 0001:0000ec73
   873 0001:0000ec7d   883 0001:0000ec84   888 0001:0000ecb3   895 0001:0000ecbe
   896 0001:0000ecc1   583 0001:0000ece0   585 0001:0000ece6   593 0001:0000eced
   595 0001:0000ecf3   602 0001:0000ed10   604 0001:0000ed1c   605 0001:0000ed2c
   609 0001:0000ed33   610 0001:0000ed3c   612 0001:0000ed4c   613 0001:0000ed76
   615 0001:0000ed80   616 0001:0000ed82   618 0001:0000ed91   620 0001:0000ed99
   621 0001:0000edad   624 0001:0000edae   626 0001:0000edd5   628 0001:0000eddb
   629 0001:0000edfe   630 0001:0000ee00   632 0001:0000ee20   637 0001:0000ee27
   640 0001:0000ee2d   641 0001:0000ee4c   646 0001:0000ee53   648 0001:0000ee74
   649 0001:0000ee94   651 0001:0000ee96   653 0001:0000eeb5   654 0001:0000eed4
   663 0001:0000eedb   666 0001:0000ef0c   668 0001:0000ef15   669 0001:0000ef1e
   671 0001:0000ef25   673 0001:0000ef2b   675 0001:0000ef61   678 0001:0000ef63
   679 0001:0000ef81   691 0001:0000ef88   694 0001:0000ef8e   697 0001:0000efaa
   700 0001:0000efb1   702 0001:0000efb3   705 0001:0000efcf   710 0001:0000efd6
   712 0001:0000efe5   715 0001:0000efeb   716 0001:0000effd   718 0001:0000f00c
   719 0001:0000f01e   721 0001:0000f02d   722 0001:0000f03a   728 0001:0000f046
   731 0001:0000f04f   733 0001:0000f05a   736 0001:0000f07e   738 0001:0000f097
   740 0001:0000f09d   741 0001:0000f0a6   742 0001:0000f0af   745 0001:0000f0b8
   747 0001:0000f0c1   752 0001:0000f0f6   753 0001:0000f104   757 0001:0000f10c
   760 0001:0000f114   762 0001:0000f122   764 0001:0000f124   765 0001:0000f150
   768 0001:0000f15c   771 0001:0000f165   773 0001:0000f172   775 0001:0000f174
   776 0001:0000f1a0   780 0001:0000f1ab   781 0001:0000f1b4   782 0001:0000f1c0
   783 0001:0000f1c2   785 0001:0000f1cb   786 0001:0000f1d5   789 0001:0000f1df
   791 0001:0000f1e8   792 0001:0000f1eb   932 0001:0000f1f0   933 0001:0000f1f4
   936 0001:0000f20d   937 0001:0000f210   977 0001:0000f220   981 0001:0000f243
   982 0001:0000f24d   992 0001:0000f254   997 0001:0000f283  1004 0001:0000f28e
  1005 0001:0000f291  1024 0001:0000f2b0  1025 0001:0000f2b3  1026 0001:0000f2c1
  1033 0001:0000f2d0  1034 0001:0000f2d3  1035 0001:0000f2e1  1062 0001:0000f2f0
  1065 0001:0000f313  1067 0001:0000f31d  1070 0001:0000f324  1075 0001:0000f342
  1077 0001:0000f34d  1090 0001:0000f360  1097 0001:0000f364  1098 0001:0000f36d
  1100 0001:0000f37d  1101 0001:0000f3a7  1103 0001:0000f3b1  1104 0001:0000f3b3
  1106 0001:0000f3c2  1107 0001:0000f3c8  1110 0001:0000f3cd  1112 0001:0000f3d3
  1114 0001:0000f3f1  1115 0001:0000f410  1120 0001:0000f415  1122 0001:0000f434
  1124 0001:0000f454  1132 0001:0000f459  1135 0001:0000f48a  1138 0001:0000f493
  1141 0001:0000f4e8  1144 0001:0000f4f7  1148 0001:0000f512  1150 0001:0000f54e
  1154 0001:0000f570  1159 0001:0000f5ac  1161 0001:0000f5b5  1164 0001:0000f5eb
  1165 0001:0000f609  1167 0001:0000f615  1171 0001:0000f61a  1172 0001:0000f629
  1175 0001:0000f630  1178 0001:0000f65c  1181 0001:0000f66e  1184 0001:0000f67c
  1186 0001:0000f684  1188 0001:0000f692  1190 0001:0000f694  1191 0001:0000f6bf
  1194 0001:0000f6ca  1196 0001:0000f6d3  1198 0001:0000f6e0  1200 0001:0000f6e2
  1201 0001:0000f70d  1206 0001:0000f717  1207 0001:0000f735  1209 0001:0000f741
  1211 0001:0000f743  1214 0001:0000f74d  1217 0001:0000f76b  1239 0001:0000f770
  1240 0001:0000f773  1241 0001:0000f781  1267 0001:0000f790  1272 0001:0000f7b3
  1273 0001:0000f7bc  1275 0001:0000f7cc  1276 0001:0000f7f6  1278 0001:0000f800
  1279 0001:0000f802  1282 0001:0000f811  1283 0001:0000f81b  1291 0001:0000f822
  1294 0001:0000f853  1297 0001:0000f85c  1300 0001:0000f8b1  1301 0001:0000f8c0
  1307 0001:0000f8c7  1312 0001:0000f8de  1316 0001:0000f8e9  1317 0001:0000f8ec
  1337 0001:0000f900  1338 0001:0000f904  1339 0001:0000f90c  1340 0001:0000f915
  1341 0001:0000f918  1363 0001:0000f920  1367 0001:0000f943  1368 0001:0000f94d
  1372 0001:0000f954  1375 0001:0000f964  1378 0001:0000f96d  1380 0001:0000f9c0
  1386 0001:0000f9d7  1391 0001:0000f9e2  1417 0001:0000fa00  1418 0001:0000fa04
  1419 0001:0000fa0c  1420 0001:0000fa15  1421 0001:0000fa18  1451 0001:0000fa20
  1452 0001:0000fa24  1453 0001:0000fa2b  1455 0001:0000fa3b  1460 0001:0000fa52
  1462 0001:0000fa59  1463 0001:0000fa5b  1464 0001:0000fa5e  1485 0001:0000fa70
  1490 0001:0000fa93  1491 0001:0000fa9d  1494 0001:0000faa7  1495 0001:0000fab1
  1500 0001:0000fab8  1501 0001:0000fac0  1503 0001:0000fad4  1506 0001:0000faf7
  1507 0001:0000fb17  1509 0001:0000fb1c  1510 0001:0000fb3c  1512 0001:0000fb3e
  1513 0001:0000fb5e  1515 0001:0000fb60  1516 0001:0000fb80  1518 0001:0000fb82
  1521 0001:0000fba2  1523 0001:0000fba9  1525 0001:0000fbae  1529 0001:0000fbb5
  1531 0001:0000fbd1  1534 0001:0000fbd8  1535 0001:0000fc0c  1536 0001:0000fc22
  1537 0001:0000fc24  1541 0001:0000fc2b  1544 0001:0000fc46  1545 0001:0000fc73
  1549 0001:0000fc7a  1552 0001:0000fc9d  1553 0001:0000fcca  1558 0001:0000fcd1
  1561 0001:0000fcfb  1562 0001:0000fd1d  1565 0001:0000fd24  1569 0001:0000fd2a
  1571 0001:0000fd33  1574 0001:0000fd60  1576 0001:0000fd8d  1578 0001:0000fd94
  1584 0001:0000fda7  1588 0001:0000fdb2  1589 0001:0000fdb5  1608 0001:0000fde0
  1612 0001:0000fe03  1613 0001:0000fe0d  1616 0001:0000fe14  1618 0001:0000fe1c
  1620 0001:0000fe22  1621 0001:0000fe2a  1622 0001:0000fe34  1623 0001:0000fe36
  1625 0001:0000fe48  1626 0001:0000fe52  1632 0001:0000fe68  1635 0001:0000fe73
  1636 0001:0000fe76  1658 0001:0000fe90  1661 0001:0000feb3  1662 0001:0000febd
  1665 0001:0000febf  1666 0001:0000fec9  1669 0001:0000fed0  1671 0001:0000fee9
  1672 0001:0000fefa  1673 0001:0000ff0b  1678 0001:0000ff1b  1681 0001:0000ff26
  1705 0001:0000ff40  1710 0001:0000ff44  1711 0001:0000ff87  1732 0001:0000ff90
  1738 0001:0000ff94  1739 0001:0000ff9a  1741 0001:0000ffa1  1742 0001:0000ffb8
  1747 0001:0000ffbc  1750 0001:0000ffc5  1752 0001:0000ffdd  1754 0001:0000fff2
  1755 0001:00010000  1757 0001:00010007  1782 0001:0001001e  1807 0001:00010034
  1835 0001:00010040  1839 0001:00010063  1840 0001:00010073  1843 0001:0001007a
  1844 0001:00010084  1847 0001:0001008b  1853 0001:00010094  1855 0001:000100f5
  1856 0001:000100fb  1857 0001:00010106  1858 0001:0001010c  1859 0001:00010117
  1860 0001:0001011d  1862 0001:00010128  1864 0001:0001012f  1865 0001:00010131
  1870 0001:00010146  1874 0001:00010151  1875 0001:00010154  1893 0001:00010170
  1896 0001:00010174  1897 0001:00010184  1899 0001:00010189  1900 0001:00010192
  1901 0001:00010198  1929 0001:000101a0  1930 0001:000101a4  1931 0001:000101ac
  1932 0001:000101b5  1933 0001:000101b8  1953 0001:000101c0  1957 0001:000101e3
  1959 0001:000101e9  1960 0001:00010209  1964 0001:0001020e  1965 0001:00010218
  1968 0001:0001021f  1969 0001:0001022a  1970 0001:00010242  1972 0001:00010260
  1974 0001:0001027d  1976 0001:0001029b  1977 0001:000102c4  1979 0001:000102ee
  1981 0001:000102f0  1983 0001:0001030f  1985 0001:00010314  1986 0001:00010320
  1991 0001:0001033a  1994 0001:00010345  2018 0001:00010360  2020 0001:00010367
  2022 0001:0001036e  2024 0001:00010380  2025 0001:000103a0  2028 0001:000103a8
  2030 0001:000103c0  2031 0001:000103de  2037 0001:000103fc  2038 0001:00010432
  2039 0001:00010439  2040 0001:0001043e  2041 0001:00010450  2042 0001:00010462
  2044 0001:0001046b  2045 0001:0001046e  2093 0001:00010480  2095 0001:000104a3
  2101 0001:000104aa  2103 0001:000104b5  2104 0001:000104c0  2106 0001:000104c8
  2107 0001:000104d2  2110 0001:000104d9  2112 0001:000104f9  2113 0001:000104ff
  2116 0001:00010507  2122 0001:00010530  2126 0001:00010569  2127 0001:0001056e
  2129 0001:00010577  2130 0001:0001058e  2131 0001:000105b0  2132 0001:000105b2
  2135 0001:000105db  2137 0001:000105fd  2140 0001:0001060e  2142 0001:00010647
  2143 0001:00010650  2144 0001:00010667  2146 0001:00010669  2151 0001:00010679
  2154 0001:00010687  2157 0001:000106b0  2162 0001:000106c0  2165 0001:000106d2
  2168 0001:0001070b  2174 0001:0001071b  2178 0001:0001072e  2182 0001:00010739
  2183 0001:00010759  2055 0001:00010770  2061 0001:0001077e  2063 0001:000107b7
  2065 0001:000107c3  2069 0001:00010820  2070 0001:0001083d  2071 0001:00010842
  2073 0001:0001084a  2074 0001:0001086d  2204 0001:00010880  2208 0001:00010886
  2214 0001:00010892  2217 0001:000108af  2219 0001:000108cf  2220 0001:000108d9
  2223 0001:000108e0  2224 0001:000108e2  2243 0001:000108f0  2246 0001:000108f4
  2247 0001:000108fa  2249 0001:000108ff  2252 0001:00010917  2253 0001:00010953
  2255 0001:00010955  2256 0001:00010977  2257 0001:00010999  2281 0001:000109a0
  2282 0001:000109a3  2283 0001:000109b9  2314 0001:000109c0  2315 0001:000109c3
  2316 0001:000109dd  2348 0001:000109e0  2349 0001:000109e3  2350 0001:000109fd
  2389 0001:00010a00  2390 0001:00010a03  2391 0001:00010a21  2419 0001:00010a30
  2420 0001:00010a33  2421 0001:00010a4b  2457 0001:00010a50  2461 0001:00010a56
  2463 0001:00010a61  2464 0001:00010a86  2465 0001:00010a91  2468 0001:00010a98
  2470 0001:00010aa6  2471 0001:00010acb  2472 0001:00010ad6  2475 0001:00010add
  2477 0001:00010afb  2479 0001:00010b06  2480 0001:00010b2f  2482 0001:00010b33
  2483 0001:00010b50  2484 0001:00010b5c  2485 0001:00010b75  2486 0001:00010b7d
  2487 0001:00010b80  2520 0001:00010b90  2521 0001:00010b93  2522 0001:00010baf
  2565 0001:00010bc0  2569 0001:00010bc6  2571 0001:00010bcc  2573 0001:00010bed
  2575 0001:00010bf3  2576 0001:00010bff  2579 0001:00010c06  2581 0001:00010c12
  2583 0001:00010c2e  2584 0001:00010c4d  2587 0001:00010c54  2589 0001:00010c70
  2592 0001:00010c8f  2594 0001:00010c9a  2595 0001:00010cbf  2596 0001:00010cca
  2598 0001:00010cd1  2600 0001:00010cdf  2601 0001:00010d04  2602 0001:00010d0f
  2605 0001:00010d16  2607 0001:00010d31  2609 0001:00010d4f  2611 0001:00010d5a
  2612 0001:00010d83  2614 0001:00010d8a  2615 0001:00010da7  2616 0001:00010db3
  2617 0001:00010dcc  2619 0001:00010dd4  2620 0001:00010dfe  2622 0001:00010e0e
  2623 0001:00010e11  2644 0001:00010e20  2645 0001:00010e23  2646 0001:00010e2f
  2667 0001:00010e40  2670 0001:00010e44  2671 0001:00010e4a  2673 0001:00010e4f
  2675 0001:00010e5b  2677 0001:00010e77  2678 0001:00010e96  2681 0001:00010e98
  2683 0001:00010eb4  2685 0001:00010ed3  2686 0001:00010ee3

Line numbers for C:\Program Files\Microsoft Visual Studio .NET 2003\Vc7\lib\LIBCMTD.lib(f:\vs70builds\3077\vc\crtbld\crt\src\ctype.c) segment .text

    22 0001:0001f7b0    23 0001:0001f7b3    24 0001:0001f7b8    27 0001:0001f7c0
    28 0001:0001f7c3    29 0001:0001f7c8

Line numbers for C:\Program Files\Microsoft Visual Studio .NET 2003\Vc7\lib\LIBCMTD.lib(f:\vs70builds\3077\vc\crtbld\crt\src\crtmbox.c) segment .text

    36 0001:0001dc00    49 0001:0001dc06    50 0001:0001dc0d    55 0001:0001dc14
    57 0001:0001dc21    61 0001:0001dc2f    62 0001:0001dc52    65 0001:0001dc59
    68 0001:0001dc6d    70 0001:0001dc81    73 0001:0001dc8a    75 0001:0001dc9e
    77 0001:0001dca7    91 0001:0001dcbb    96 0001:0001dcc4    98 0001:0001dcf5
   102 0001:0001dcfc   104 0001:0001dd02   105 0001:0001dd0b   106 0001:0001dd16
   107 0001:0001dd18   109 0001:0001dd24   111 0001:0001dd26   112 0001:0001dd2f
   114 0001:0001dd38   115 0001:0001dd47   118 0001:0001dd54   119 0001:0001dd6a

Line numbers for C:\Program Files\Microsoft Visual Studio .NET 2003\Vc7\lib\LIBCMTD.lib(f:\vs70builds\3077\vc\crtbld\crt\src\abort.c) segment .text

    43 0001:0001ee10    44 0001:0001ee13    48 0001:0001ee1d    54 0001:0001ee27
    55 0001:0001ee2e

Line numbers for C:\Program Files\Microsoft Visual Studio .NET 2003\Vc7\lib\LIBCMTD.lib(f:\vs70builds\3077\vc\crtbld\crt\src\a_str.c) segment .text

    64 0001:00022be0    73 0001:00022c06    77 0001:00022c0f    78 0001:00022c26
    80 0001:00022c30    81 0001:00022c3d    86 0001:00022c47    88 0001:00022c5d
    92 0001:00022c64    93 0001:00022c6a    94 0001:00022c73    95 0001:00022c79
    97 0001:00022c82    98 0001:00022c97   102 0001:00022c9e   104 0001:00022ca6
   105 0001:00022cc5   106 0001:00022ccb   107 0001:00022cd2   110 0001:00022cd8
   111 0001:00022cf5   112 0001:00022cfb   113 0001:00022d09   118 0001:00022d11
   123 0001:00022d1e   124 0001:00022d25   140 0001:00022d2c   141 0001:00022d32
   152 0001:00022d3b   153 0001:00022d6b   156 0001:00022d72   157 0001:00022d79
   158 0001:00022d95   160 0001:00022db2   161 0001:00022dbb   162 0001:00022dc0
   165 0001:00022dce   167 0001:00022dd4   168 0001:00022df7   169 0001:00022dfb
   178 0001:00022e04   183 0001:00022e29   185 0001:00022e42   186 0001:00022e48
   188 0001:00022e56   191 0001:00022e5b   192 0001:00022e5d

Line numbers for C:\Program Files\Microsoft Visual Studio .NET 2003\Vc7\lib\LIBCMTD.lib(f:\vs70builds\3077\vc\crtbld\crt\src\a_map.c) segment .text

    96 0001:00024f70   105 0001:00024f96   106 0001:00024f9f   107 0001:00024fbb
   108 0001:00024fc5   109 0001:00024fd2   116 0001:00024fdc   117 0001:00024fe2
   121 0001:00024ff5   122 0001:0002500b   123 0001:00025012   125 0001:00025019
   129 0001:00025020   130 0001:00025026   131 0001:0002502f   132 0001:00025035
   134 0001:0002503d   135 0001:00025052   141 0001:00025059   143 0001:00025065
   144 0001:00025084   145 0001:0002508a   146 0001:00025091   152 0001:00025097
   154 0001:000250ba   157 0001:000250bf   158 0001:000250c6   159 0001:000250e0
   160 0001:000250fb   161 0001:00025104   162 0001:00025109   165 0001:00025117
   166 0001:0002511d   168 0001:0002513e   169 0001:00025145   171 0001:00025147
   172 0001:00025159   179 0001:00025162   181 0001:00025189   182 0001:00025190
   188 0001:00025192   189 0001:000251b6   190 0001:000251bd   191 0001:000251bf
   194 0001:000251c6   195 0001:000251cc   196 0001:000251da   199 0001:000251dc
   201 0001:000251fd   202 0001:00025203   203 0001:00025211   208 0001:00025219
   210 0001:00025226   215 0001:0002522d   216 0001:00025234   232 0001:0002523b
   233 0001:00025241   244 0001:00025249   245 0001:00025279   248 0001:00025280
   249 0001:00025287   251 0001:000252ac   252 0001:000252b5   253 0001:000252ba
   256 0001:000252c8   258 0001:000252ce   259 0001:000252f1   260 0001:000252f8
   269 0001:00025301   270 0001:00025321   278 0001:00025326   279 0001:00025349
   281 0001:0002534e   284 0001:00025359   286 0001:0002535f   287 0001:00025367
   295 0001:0002536c   296 0001:0002538e   299 0001:00025393   302 0001:00025398
   305 0001:0002539e   306 0001:000253a5   308 0001:000253ca   309 0001:000253d3
   310 0001:000253d8   313 0001:000253e6   315 0001:000253ec   316 0001:0002540f
   317 0001:00025411   326 0001:0002541a   327 0001:0002543c   329 0001:0002543e
   339 0001:00025444   340 0001:00025469   342 0001:0002546b   352 0001:0002546d
   358 0001:00025490   359 0001:00025496   361 0001:000254a4   362 0001:000254aa
   364 0001:000254b8   367 0001:000254bd   368 0001:000254bf    46 0001:000254e0
    47 0001:000254e6    48 0001:000254ec    50 0001:000254f2    51 0001:0002550c
    53 0001:00025517    54 0001:00025520

Line numbers for C:\Program Files\Microsoft Visual Studio .NET 2003\Vc7\lib\LIBCMTD.lib(f:\vs70builds\3077\vc\crtbld\crt\src\a_loc.c) segment .text

    57 0001:00027fd0    65 0001:00027ff6    67 0001:00027fff    68 0001:00028011
    70 0001:0002801b    71 0001:00028028    76 0001:00028032    78 0001:00028044
    83 0001:0002805f    85 0001:0002806c    88 0001:00028073    94 0001:0002807a
    95 0001:00028080    98 0001:00028089    99 0001:000280a4   102 0001:000280ab
   103 0001:000280b2   105 0001:000280d7   106 0001:000280e0   107 0001:000280e5
   110 0001:000280f3   112 0001:000280f9   113 0001:00028119   114 0001:00028120
   118 0001:00028129   119 0001:00028143   122 0001:00028145   132 0001:0002814b
   134 0001:00028168   143 0001:0002816a   147 0001:0002818b   148 0001:00028191
   150 0001:0002819f   153 0001:000281a4   154 0001:000281a6

Line numbers for C:\Program Files\Microsoft Visual Studio .NET 2003\Vc7\lib\LIBCMTD.lib(f:\vs70builds\3077\vc\crtbld\crt\src\a_env.c) segment .text

    43 0001:0001c940    45 0001:0001c946    47 0001:0001c94d    57 0001:0001c954
    59 0001:0001c95d    60 0001:0001c96c    62 0001:0001c976    63 0001:0001c983
    68 0001:0001c98d    71 0001:0001c99a    72 0001:0001c9a0    73 0001:0001c9af
    76 0001:0001c9b6    77 0001:0001c9bc    78 0001:0001c9c6    79 0001:0001c9d9
    80 0001:0001c9e2    83 0001:0001c9e4    93 0001:0001c9f2    97 0001:0001ca0f
    99 0001:0001ca33   100 0001:0001ca3d   111 0001:0001ca44   113 0001:0001ca66
   114 0001:0001ca74   117 0001:0001ca7b   118 0001:0001ca85   123 0001:0001ca8d
   125 0001:0001caa3   126 0001:0001caa9   127 0001:0001cab8   131 0001:0001cabf
   133 0001:0001cac5   134 0001:0001cacf   135 0001:0001cae2   136 0001:0001caeb
   138 0001:0001caed   140 0001:0001caf9   141 0001:0001cb1a   142 0001:0001cb24
   145 0001:0001cb28   147 0001:0001cb3c   149 0001:0001cb46   152 0001:0001cb4b
   153 0001:0001cb4d

Line numbers for C:\Program Files\Microsoft Visual Studio .NET 2003\Vc7\lib\LIBCMTD.lib(f:\vs70builds\3077\vc\crtbld\crt\src\a_cmp.c) segment .text

    94 0001:00028730   103 0001:0002875e   105 0001:00028767   106 0001:00028783
   108 0001:0002878d   109 0001:0002879a   117 0001:000287a4   118 0001:000287aa
   119 0001:000287bd   120 0001:000287c3   124 0001:000287d6   126 0001:000287ec
   127 0001:000287f3   131 0001:000287fa   132 0001:00028800   133 0001:00028809
   134 0001:0002880f   136 0001:00028818   137 0001:0002882d   142 0001:00028834
   149 0001:0002883c   150 0001:0002885b   151 0001:00028861   157 0001:00028868
   158 0001:00028887   160 0001:0002888d   161 0001:0002889b   163 0001:000288a2
   164 0001:000288a8   172 0001:000288ae   173 0001:000288cf   175 0001:000288d5
   176 0001:000288e3   178 0001:000288f1   183 0001:000288f9   189 0001:00028906
   190 0001:0002890d   191 0001:00028914   197 0001:0002891b   198 0001:00028921
   204 0001:00028929   210 0001:00028939   211 0001:00028941   214 0001:0002894b
   215 0001:00028951   218 0001:0002895b   219 0001:00028961   227 0001:0002896b
   228 0001:0002897d   230 0001:00028984   233 0001:000289bd   235 0001:000289c3
   236 0001:000289c9   240 0001:000289d3   242 0001:000289f9   243 0001:00028a1a
   245 0001:00028a24   249 0001:00028a30   251 0001:00028a36   252 0001:00028a3c
   256 0001:00028a46   258 0001:00028a6c   259 0001:00028a8d   261 0001:00028a97
   276 0001:00028aa3   277 0001:00028ac4   280 0001:00028acb   281 0001:00028ad2
   283 0001:00028af7   284 0001:00028b00   285 0001:00028b05   288 0001:00028b13
   290 0001:00028b19   291 0001:00028b3c   292 0001:00028b43   301 0001:00028b4c
   302 0001:00028b6c   311 0001:00028b71   312 0001:00028b92   315 0001:00028b97
   316 0001:00028b9e   318 0001:00028bc3   319 0001:00028bcc   320 0001:00028bd1
   323 0001:00028bdf   325 0001:00028be5   326 0001:00028c08   327 0001:00028c0a
   336 0001:00028c13   342 0001:00028c33   344 0001:00028c54   345 0001:00028c5a
   348 0001:00028c68   349 0001:00028c6e   351 0001:00028c7c   354 0001:00028c81
   355 0001:00028c83    49 0001:00028ca0    50 0001:00028ca6    51 0001:00028cac
    53 0001:00028cb2    54 0001:00028ccc    56 0001:00028cd7    57 0001:00028ce0

Line numbers for C:\Program Files\Microsoft Visual Studio .NET 2003\Vc7\lib\LIBCMTD.lib(f:\vs70builds\3077\vc\crtbld\crt\src\secfail.c) segment .text

    75 0001:00023d50    77 0001:00023d81    78 0001:00023d8a    79 0001:00023d91
    81 0001:00023dab    89 0001:00023dbb    97 0001:00023dc0   103 0001:00023dd2
   104 0001:00023ddc   105 0001:00023de3   106 0001:00023dea   112 0001:00023dec
   113 0001:00023df6   114 0001:00023dfd   121 0001:00023e04   123 0001:00023e23
   124 0001:00023e27   125 0001:00023e3f   127 0001:00023e53   130 0001:00023e5c
   132 0001:00023e73   133 0001:00023e8c   138 0001:00023e9f   140 0001:00023ecf
   141 0001:00023ee2   142 0001:00023ef3   143 0001:00023f04   144 0001:00023f14
   145 0001:00023f25   150 0001:00023f35   153 0001:00023f4b   154 0001:00023f52
   174 0001:00023f80   177 0001:00023f84   178 0001:00023f8c   180 0001:00023f95
   181 0001:00023f98   185 0001:00023fa0   186 0001:00023fa3   187 0001:00023faf
   192 0001:00023fc0   193 0001:00023fc3   194 0001:00023fcf

Line numbers for C:\Program Files\Microsoft Visual Studio .NET 2003\Vc7\lib\LIBCMTD.lib(f:\vs70builds\3077\vc\crtbld\crt\src\seccinit.c) segment .text

    49 0001:00023cb0    58 0001:00023cb6    59 0001:00023ccb    67 0001:00023ccd
    69 0001:00023cd7    70 0001:00023cdd    75 0001:00023ce6    76 0001:00023cf2
    77 0001:00023cfe    79 0001:00023d0a    81 0001:00023d14    82 0001:00023d1d
    93 0001:00023d26    94 0001:00023d40

Line numbers for C:\Program Files\Microsoft Visual Studio .NET 2003\Vc7\lib\LIBCMTD.lib(f:\vs70builds\3077\vc\crtbld\crt\src\secchk.c) segment .text

   103 0001:0001af70   100 0001:0001af70   104 0001:0001af76   105 0001:0001af78
   107 0001:0001af79   114 0001:0001af80   116 0001:0001afa6   117 0001:0001afad
   119 0001:0001afc2   123 0001:0001afd2   124 0001:0001afda

Line numbers for C:\Program Files\Microsoft Visual Studio .NET 2003\Vc7\lib\LIBCMTD.lib(f:\vs70builds\3077\vc\crtbld\crt\src\mbsnbico.c) segment .text

    48 0001:000285d0    51 0001:000285d6    53 0001:000285e1    54 0001:000285ec
    57 0001:000285f4    58 0001:000285fa    71 0001:000285fe    75 0001:0002862f
    77 0001:00028636    79 0001:0002863c

Line numbers for C:\Program Files\Microsoft Visual Studio .NET 2003\Vc7\lib\LIBCMTD.lib(f:\vs70builds\3077\vc\crtbld\crt\src\mbschr.c) segment .text

    48 0001:000291e0    51 0001:000291e6    53 0001:000291f1    54 0001:000291fc
    56 0001:00029204    60 0001:0002920d    62 0001:00029222    65 0001:00029240
    70 0001:00029251    71 0001:00029264    72 0001:00029268    73 0001:0002927c
    75 0001:00029284    76 0001:0002928f    77 0001:00029291    79 0001:00029293
    80 0001:0002929c    82 0001:000292a1    83 0001:000292a3

Line numbers for C:\Program Files\Microsoft Visual Studio .NET 2003\Vc7\lib\LIBCMTD.lib(f:\vs70builds\3077\vc\crtbld\crt\src\mbctype.c) segment .text

   432 0001:0001e3b0   435 0001:0001e3d3   437 0001:0001e3dd   439 0001:0001e3e4
   441 0001:0001e3ec   447 0001:0001e400   452 0001:0001e41b   459 0001:0001e429
   460 0001:0001e43d   465 0001:0001e458   468 0001:0001e463   469 0001:0001e466
   502 0001:0001e480   504 0001:0001e4a3   508 0001:0001e4aa   510 0001:0001e4b4
   512 0001:0001e4bb   514 0001:0001e4ca   521 0001:0001e4d9   523 0001:0001e4f0
   530 0001:0001e50c   535 0001:0001e52f   536 0001:0001e538   537 0001:0001e544
   538 0001:0001e54f   539 0001:0001e55b   540 0001:0001e573   541 0001:0001e58b
   542 0001:0001e5a6   543 0001:0001e5ba   544 0001:0001e5d5   549 0001:0001e5ec
   555 0001:0001e5f4   560 0001:0001e605   562 0001:0001e613   567 0001:0001e615
   571 0001:0001e62a   580 0001:0001e635   581 0001:0001e638   223 0001:0001e650
   224 0001:0001e653   228 0001:0001e65d   230 0001:0001e663   231 0001:0001e66d
   234 0001:0001e675   236 0001:0001e67b   237 0001:0001e685   241 0001:0001e68d
   243 0001:0001e693   244 0001:0001e69d   247 0001:0001e6a4   248 0001:0001e6a7
   584 0001:0001e6b0   604 0001:0001e6be   606 0001:0001e6c4   607 0001:0001e6c9
   608 0001:0001e6ce   614 0001:0001e6d5   617 0001:0001e6f1   620 0001:0001e706
   621 0001:0001e721   624 0001:0001e72d   629 0001:0001e745   632 0001:0001e778
   633 0001:0001e798   634 0001:0001e7b9   635 0001:0001e7bb   637 0001:0001e7c0
   639 0001:0001e7c8   640 0001:0001e7d2   641 0001:0001e7e6   642 0001:0001e7fe
   645 0001:0001e81c   646 0001:0001e821   648 0001:0001e828   652 0001:0001e82d
   656 0001:0001e844   657 0001:0001e85f   659 0001:0001e86b   660 0001:0001e874
   662 0001:0001e87e   665 0001:0001e888   667 0001:0001e8ae   668 0001:0001e8ce
   669 0001:0001e8e6   672 0001:0001e8e8   673 0001:0001e903   676 0001:0001e91b
   679 0001:0001e92e   681 0001:0001e938   683 0001:0001e93a   685 0001:0001e944
   686 0001:0001e95c   688 0001:0001e96b   690 0001:0001e970   695 0001:0001e974
   697 0001:0001e97d   698 0001:0001e982   699 0001:0001e987   703 0001:0001e98b
   704 0001:0001e98e   268 0001:0001e9a0   269 0001:0001e9a4   273 0001:0001e9cd
   276 0001:0001e9d4   279 0001:0001e9db   282 0001:0001e9e2   286 0001:0001e9e9
   287 0001:0001e9eb   304 0001:0001ea20   308 0001:0001ea24   309 0001:0001ea3f
   312 0001:0001ea4b   315 0001:0001ea55   317 0001:0001ea5f   319 0001:0001ea69
   320 0001:0001ea81   321 0001:0001ea90   337 0001:0001eaa0   347 0001:0001eab1
   350 0001:0001eace   351 0001:0001eaf5   354 0001:0001eb0a   355 0001:0001eb11
   356 0001:0001eb3b   357 0001:0001eb6d   362 0001:0001eb7f   367 0001:0001ebab
   372 0001:0001ebe0   377 0001:0001ec15   378 0001:0001ec40   380 0001:0001ec53
   381 0001:0001ec6f   383 0001:0001ec88   385 0001:0001ec9d   386 0001:0001ecb9
   388 0001:0001ecd2   389 0001:0001ecd4   391 0001:0001ece6   395 0001:0001eceb
   396 0001:0001ed16   398 0001:0001ed28   399 0001:0001ed44   401 0001:0001ed59
   403 0001:0001ed6d   404 0001:0001ed89   406 0001:0001ed9e   407 0001:0001eda0
   409 0001:0001edb2   721 0001:0001edc0   722 0001:0001edc3   723 0001:0001edcc
   725 0001:0001edd3   726 0001:0001edd5   743 0001:0001ede0   753 0001:0001ede3
   754 0001:0001edec   755 0001:0001edf6   760 0001:0001ee00   761 0001:0001ee02

Line numbers for C:\Program Files\Microsoft Visual Studio .NET 2003\Vc7\lib\LIBCMTD.lib(f:\vs70builds\3077\vc\crtbld\crt\src\write.c) segment .text

    62 0001:0001f1d0    67 0001:0001f1f3    70 0001:0001f21e    71 0001:0001f229
    72 0001:0001f234    75 0001:0001f23c    77 0001:0001f248    78 0001:0001f24f
    79 0001:0001f26f    80 0001:0001f286    81 0001:0001f288    82 0001:0001f293
    83 0001:0001f29e    87 0001:0001f2b3    90 0001:0001f2c0    91 0001:0001f2c3
    99 0001:0001f2e0   137 0001:0001f2f1   139 0001:0001f307   140 0001:0001f30d
   143 0001:0001f314   147 0001:0001f334   155 0001:0001f346   158 0001:0001f36c
   159 0001:0001f375   161 0001:0001f37f   162 0001:0001f391   166 0001:0001f39d
   167 0001:0001f3c5   168 0001:0001f3e2   169 0001:0001f3ee   170 0001:0001f3fd
   172 0001:0001f415   173 0001:0001f432   180 0001:0001f437   182 0001:0001f47a
   183 0001:0001f48c   184 0001:0001f4a2   186 0001:0001f4a4   187 0001:0001f4a6
   188 0001:0001f4b2   190 0001:0001f4b4   192 0001:0001f4b9   198 0001:0001f4bb
   200 0001:0001f4f0   201 0001:0001f4fa   203 0001:0001f506   204 0001:0001f508
   207 0001:0001f514   211 0001:0001f521   213 0001:0001f52a   216 0001:0001f533
   217 0001:0001f53e   219 0001:0001f54b   220 0001:0001f54d   221 0001:0001f55c
   223 0001:0001f561   224 0001:0001f58c   226 0001:0001f590   227 0001:0001f59b
   228 0001:0001f5a6   233 0001:0001f5ab   234 0001:0001f5b7

Line numbers for C:\Program Files\Microsoft Visual Studio .NET 2003\Vc7\lib\LIBCMTD.lib(f:\vs70builds\3077\vc\crtbld\crt\src\setmode.c) segment .text

    47 0001:00028400    50 0001:00028423    52 0001:0002844e    53 0001:00028459
    57 0001:0002845e    59 0001:0002846a    60 0001:00028471    62 0001:00028491
    63 0001:000284a4    64 0001:000284a6    65 0001:000284b1    70 0001:000284c6
    74 0001:000284d3    75 0001:000284d6    99 0001:000284f0   120 0001:000284f4
   122 0001:00028517   123 0001:00028520   124 0001:0002855b   125 0001:00028566
   126 0001:000285a0   127 0001:000285a2   128 0001:000285ad   131 0001:000285b2
   133 0001:000285c3

Line numbers for C:\Program Files\Microsoft Visual Studio .NET 2003\Vc7\lib\LIBCMTD.lib(f:\vs70builds\3077\vc\crtbld\crt\src\read.c) segment .text

    58 0001:00027250    63 0001:00027273    66 0001:0002729e    67 0001:000272a9
    68 0001:000272b4    71 0001:000272bc    73 0001:000272c8    74 0001:000272cf
    75 0001:000272ef    76 0001:00027306    77 0001:00027308    78 0001:00027313
    79 0001:0002731e    83 0001:00027333    86 0001:00027340    87 0001:00027343
    95 0001:00027360   134 0001:00027366   135 0001:0002736d   137 0001:00027373
   139 0001:00027399   142 0001:000273a0   145 0001:000273e0   146 0001:00027408
   147 0001:00027411   148 0001:0002741a   154 0001:00027435   165 0001:00027467
   167 0001:00027476   168 0001:00027481   169 0001:0002748b   171 0001:00027493
   172 0001:00027499   175 0001:000274a0   176 0001:000274ac   180 0001:000274b4
   182 0001:000274bd   186 0001:000274e4   187 0001:000274f5   188 0001:0002752d
   189 0001:0002752f   192 0001:00027567   193 0001:00027573   194 0001:00027582
   196 0001:0002758d   197 0001:000275ad   198 0001:000275e5   200 0001:000275ea
   201 0001:000275f5   202 0001:00027611   204 0001:00027616   205 0001:00027625
   206 0001:00027631   207 0001:0002763a   209 0001:00027649   210 0001:0002764b
   212 0001:00027667   216 0001:0002766c   218 0001:00027675   220 0001:0002767c
   221 0001:000276ac   223 0001:000276b5   225 0001:000276c1   227 0001:000276d0
   239 0001:000276d5   241 0001:000276f5   242 0001:000276fe   243 0001:0002770d
   244 0001:0002770f   245 0001:0002771e   248 0001:0002773b   250 0001:0002773d
   253 0001:0002774e   255 0001:0002775d   257 0001:0002775f   258 0001:00027772
   259 0001:0002777b   265 0001:0002778a   269 0001:0002778f   272 0001:00027798
   273 0001:0002779b

Line numbers for C:\Program Files\Microsoft Visual Studio .NET 2003\Vc7\lib\LIBCMTD.lib(f:\vs70builds\3077\vc\crtbld\crt\src\osfinfo.c) segment .text

    49 0001:00024100    50 0001:00024123    55 0001:0002412a    56 0001:00024138
    59 0001:00024140    60 0001:0002414a    69 0001:00024151    75 0001:0002416d
    81 0001:0002417e    83 0001:000241ae    88 0001:000241be    89 0001:000241c7
    90 0001:000241d1    91 0001:000241d8    92 0001:000241e1    97 0001:0002420e
    99 0001:00024216   102 0001:00024233   106 0001:0002423e   112 0001:0002424b
   113 0001:00024257   114 0001:00024264   117 0001:00024269   118 0001:00024272
   119 0001:00024292   121 0001:00024294   126 0001:00024299   127 0001:0002429f
   129 0001:000242a4   134 0001:000242a9   140 0001:000242cb   141 0001:000242d8
   143 0001:000242e7   144 0001:00024307   145 0001:0002430e   146 0001:00024317
   148 0001:0002431e   150 0001:00024328   156 0001:0002432a   158 0001:00024333
   162 0001:00024343   167 0001:0002434a   169 0001:0002434c   172 0001:0002435f
   180 0001:0002436a   181 0001:0002436d   207 0001:00024380   210 0001:00024384
   211 0001:000243af   212 0001:000243b8   214 0001:000243d2   215 0001:000243de
   217 0001:000243e0   218 0001:000243ec   220 0001:000243ee   225 0001:000243fa
   226 0001:00024416   228 0001:0002441a   229 0001:00024425   230 0001:00024430
   232 0001:00024433   257 0001:00024440   260 0001:00024444   262 0001:00024493
   263 0001:0002449c   265 0001:000244b6   266 0001:000244c0   268 0001:000244c2
   269 0001:000244cc   271 0001:000244ce   276 0001:000244d8   277 0001:000244f5
   279 0001:000244f9   280 0001:00024504   281 0001:0002450f   283 0001:00024512
   306 0001:00024520   307 0001:00024523   308 0001:0002454e   310 0001:00024569
   311 0001:00024574   312 0001:0002457f   314 0001:00024582   339 0001:00024590
   346 0001:000245b3   348 0001:000245b7   349 0001:000245bf   351 0001:000245c9
   352 0001:000245d4   354 0001:000245e0   355 0001:000245eb   359 0001:000245f5
   360 0001:00024602   362 0001:00024608   363 0001:00024617   367 0001:0002461f
   368 0001:00024625   369 0001:0002462f   370 0001:00024637   375 0001:00024641
   376 0001:0002464f   377 0001:0002465a   378 0001:00024665   380 0001:0002466a
   386 0001:00024671   388 0001:00024681   390 0001:0002468b   393 0001:000246b6
   396 0001:000246c3   397 0001:000246c6   425 0001:000246e0   426 0001:00024703
   431 0001:0002471c   433 0001:00024725   434 0001:0002472f   436 0001:00024736
   437 0001:0002473f   441 0001:0002476c   443 0001:00024771   447 0001:0002478e
   451 0001:00024799   453 0001:000247ba   454 0001:000247bf   475 0001:000247d0
   476 0001:000247d3   477 0001:000247f4

Line numbers for C:\Program Files\Microsoft Visual Studio .NET 2003\Vc7\lib\LIBCMTD.lib(f:\vs70builds\3077\vc\crtbld\crt\src\open.c) segment .text

    89 0001:00024910    95 0001:00024933    98 0001:0002493a    99 0001:00024940
   100 0001:00024952   104 0001:00024959   110 0001:00024960   113 0001:0002498f
   114 0001:00024995   117 0001:000249a2   125 0001:000249a5   163 0001:000249c0
   169 0001:000249e3   171 0001:000249ea   172 0001:000249f0   173 0001:00024a02
   175 0001:00024a09   181 0001:00024a10   184 0001:00024a41   185 0001:00024a47
   188 0001:00024a54   189 0001:00024a57   199 0001:00024a70   218 0001:00024a76
   219 0001:00024a7d   221 0001:00024a84   222 0001:00024a8e   223 0001:00024a95
   225 0001:00024a99   226 0001:00024a9b   227 0001:00024aa2   231 0001:00024aa6
   232 0001:00024ab1   233 0001:00024abc   234 0001:00024ac8   235 0001:00024ad6
   240 0001:00024ae3   243 0001:00024afc   244 0001:00024b03   246 0001:00024b05
   247 0001:00024b0c   249 0001:00024b0e   250 0001:00024b15   252 0001:00024b17
   253 0001:00024b22   254 0001:00024b2d   260 0001:00024b35   263 0001:00024b5b
   264 0001:00024b62   267 0001:00024b64   268 0001:00024b6b   271 0001:00024b6d
   272 0001:00024b74   275 0001:00024b76   276 0001:00024b7d   279 0001:00024b7f
   280 0001:00024b8a   281 0001:00024b95   287 0001:00024b9d   290 0001:00024c06
   291 0001:00024c0d   294 0001:00024c0f   295 0001:00024c16   299 0001:00024c18
   300 0001:00024c1f   304 0001:00024c21   305 0001:00024c28   308 0001:00024c2a
   309 0001:00024c31   313 0001:00024c33   314 0001:00024c3e   315 0001:00024c49
   321 0001:00024c51   323 0001:00024c58   333 0001:00024c63   334 0001:00024c74
   340 0001:00024c7b   341 0001:00024c83   342 0001:00024c8f   343 0001:00024c9a
   344 0001:00024ca3   350 0001:00024cac   351 0001:00024cb7   356 0001:00024cc2
   357 0001:00024cca   358 0001:00024cd6   359 0001:00024ce0   366 0001:00024cec
   367 0001:00024cfa   368 0001:00024d05   369 0001:00024d10   373 0001:00024d18
   374 0001:00024d21   387 0001:00024d29   394 0001:00024d52   395 0001:00024d61
   399 0001:00024d69   400 0001:00024d7c   401 0001:00024d86   402 0001:00024d95
   406 0001:00024d9d   407 0001:00024da3   408 0001:00024dad   409 0001:00024db5
   414 0001:00024dbf   420 0001:00024dcf   421 0001:00024dd9   424 0001:00024df6
   431 0001:00024e1f   434 0001:00024e38   435 0001:00024e45   436 0001:00024e51
   439 0001:00024e59   443 0001:00024e5b   444 0001:00024e5f   447 0001:00024e7e
   449 0001:00024e93   450 0001:00024e9f   455 0001:00024ea4   456 0001:00024ebd
   457 0001:00024ec9   465 0001:00024ece   466 0001:00024edf   468 0001:00024f17
   469 0001:00024f1a

Line numbers for C:\Program Files\Microsoft Visual Studio .NET 2003\Vc7\lib\LIBCMTD.lib(f:\vs70builds\3077\vc\crtbld\crt\src\lseeki64.c) segment .text

    74 0001:00025530    80 0001:00025553    83 0001:0002557e    84 0001:00025589
    85 0001:00025594    88 0001:0002559f    89 0001:000255ab    90 0001:000255b2
    91 0001:000255d2    92 0001:000255f0    93 0001:000255f2    94 0001:000255fd
    95 0001:00025608    99 0001:00025624   102 0001:00025631   103 0001:00025637
   125 0001:00025650   155 0001:00025656   163 0001:00025662   165 0001:00025677
   166 0001:00025682   174 0001:0002568d   176 0001:000256bb   177 0001:000256c7
   180 0001:000256cf   181 0001:00025707   182 0001:0002570d

Line numbers for C:\Program Files\Microsoft Visual Studio .NET 2003\Vc7\lib\LIBCMTD.lib(f:\vs70builds\3077\vc\crtbld\crt\src\lseek.c) segment .text

    62 0001:0001f000    67 0001:0001f023    70 0001:0001f04e    71 0001:0001f059
    72 0001:0001f064    75 0001:0001f06c    77 0001:0001f078    78 0001:0001f07f
    79 0001:0001f09f    80 0001:0001f0b6    81 0001:0001f0b8    82 0001:0001f0c3
    83 0001:0001f0ce    87 0001:0001f0e3    90 0001:0001f0f0    91 0001:0001f0f3
    99 0001:0001f110   134 0001:0001f116   136 0001:0001f12b   137 0001:0001f136
   140 0001:0001f13e   141 0001:0001f15b   142 0001:0001f164   143 0001:0001f166
   145 0001:0001f16d   147 0001:0001f173   148 0001:0001f17f   151 0001:0001f184
   152 0001:0001f1bc   153 0001:0001f1bf

Line numbers for C:\Program Files\Microsoft Visual Studio .NET 2003\Vc7\lib\LIBCMTD.lib(f:\vs70builds\3077\vc\crtbld\crt\src\isatty.c) segment .text

    37 0001:0001f690    39 0001:0001f693    40 0001:0001f69e    43 0001:0001f6a2
    44 0001:0001f6c0

Line numbers for C:\Program Files\Microsoft Visual Studio .NET 2003\Vc7\lib\LIBCMTD.lib(f:\vs70builds\3077\vc\crtbld\crt\src\ioinit.c) segment .text

   115 0001:0001bf30   131 0001:0001bf36   133 0001:0001bf58   136 0001:0001bf60
   137 0001:0001bf68   139 0001:0001bf72   140 0001:0001bf8e   141 0001:0001bf95
   142 0001:0001bf9e   144 0001:0001bfa5   146 0001:0001bfaf   151 0001:0001bfb1
   154 0001:0001bfbb   159 0001:0001bfd1   165 0001:0001bfd9   166 0001:0001bfe2
   172 0001:0001bfeb   178 0001:0001c009   184 0001:0001c02a   190 0001:0001c04c
   191 0001:0001c055   197 0001:0001c057   198 0001:0001c064   200 0001:0001c073
   201 0001:0001c093   202 0001:0001c09a   203 0001:0001c0a3   205 0001:0001c0aa
   207 0001:0001c0b4   208 0001:0001c0b6   213 0001:0001c0bb   225 0001:0001c0eb
   227 0001:0001c11d   228 0001:0001c136   229 0001:0001c140   233 0001:0001c14b
   234 0001:0001c163   235 0001:0001c16b   238 0001:0001c17a   246 0001:0001c17f
   248 0001:0001c19b   250 0001:0001c1aa   254 0001:0001c1b6   258 0001:0001c1bd
   263 0001:0001c206   269 0001:0001c20e   270 0001:0001c21b   271 0001:0001c22b
   272 0001:0001c23b   277 0001:0001c24b   278 0001:0001c263   279 0001:0001c268
   282 0001:0001c277   288 0001:0001c279   291 0001:0001c289   296 0001:0001c28b
   298 0001:0001c29e   303 0001:0001c2a3   305 0001:0001c2af   306 0001:0001c2b1
   331 0001:0001c2c0   337 0001:0001c2c6   339 0001:0001c2de   346 0001:0001c2eb
   348 0001:0001c317   349 0001:0001c320   350 0001:0001c32d   355 0001:0001c32f
   356 0001:0001c344   358 0001:0001c352   359 0001:0001c357

Line numbers for C:\Program Files\Microsoft Visual Studio .NET 2003\Vc7\lib\LIBCMTD.lib(f:\vs70builds\3077\vc\crtbld\crt\src\commit.c) segment .text

    39 0001:00024800    44 0001:00024823    46 0001:0002484e    47 0001:00024859
    51 0001:00024861    52 0001:0002486d    53 0001:00024874    56 0001:00024894
    57 0001:000248ab    59 0001:000248b4    60 0001:000248b6    64 0001:000248bd
    65 0001:000248c3    67 0001:000248c5    73 0001:000248cf    74 0001:000248da
    80 0001:000248ef    83 0001:000248fc    84 0001:000248ff

Line numbers for C:\Program Files\Microsoft Visual Studio .NET 2003\Vc7\lib\LIBCMTD.lib(f:\vs70builds\3077\vc\crtbld\crt\src\close.c) segment .text

    43 0001:0001b230    48 0001:0001b253    51 0001:0001b27e    52 0001:0001b289
    53 0001:0001b294    56 0001:0001b299    58 0001:0001b2a5    59 0001:0001b2ac
    60 0001:0001b2cc    61 0001:0001b2db    62 0001:0001b2dd    63 0001:0001b2e8
    67 0001:0001b2fd    70 0001:0001b30a    71 0001:0001b30d    77 0001:0001b320
   115 0001:0001b325   118 0001:0001b373   120 0001:0001b37a   121 0001:0001b37c
   123 0001:0001b385   125 0001:0001b391   127 0001:0001b3ac   129 0001:0001b3b2
   130 0001:0001b3be   133 0001:0001b3c3   134 0001:0001b3c5

Line numbers for C:\Program Files\Microsoft Visual Studio .NET 2003\Vc7\lib\LIBCMTD.lib(f:\vs70builds\3077\vc\crtbld\crt\src\chsize.c) segment .text

    53 0001:00026f80    57 0001:00026fa3    59 0001:00026fce    60 0001:00026fd9
    63 0001:00026fde    65 0001:00026fea    66 0001:00026ff1    67 0001:00027011
    68 0001:00027024    69 0001:00027026    70 0001:00027031    74 0001:00027046
    77 0001:00027053    78 0001:00027056    85 0001:00027070    91 0001:00027086
    93 0001:0002708f   121 0001:00027096   125 0001:000270ba   126 0001:000270ec
   128 0001:000270f4   132 0001:000270fd   136 0001:00027107   137 0001:0002711a
   142 0001:0002712e   147 0001:00027155   150 0001:00027193   151 0001:0002719d
   153 0001:000271a8   154 0001:000271ae   157 0001:000271b0   159 0001:000271c3
   163 0001:000271d3   169 0001:000271db   172 0001:000271ed   174 0001:00027210
   175 0001:0002721b   186 0001:0002722a   187 0001:0002723c   188 0001:0002723f

Line numbers for C:\Program Files\Microsoft Visual Studio .NET 2003\Vc7\lib\LIBCMTD.lib(F:\VS70Builds\3077\vc\crtbld\crt\src\intel\ullrem.asm) segment .text

    46 0001:0001f840    44 0001:0001f840    77 0001:0001f841    78 0001:0001f845
    79 0001:0001f847    80 0001:0001f849    81 0001:0001f84d    82 0001:0001f851
    83 0001:0001f853    84 0001:0001f855    85 0001:0001f859    86 0001:0001f85b
    87 0001:0001f85d    88 0001:0001f85f    95 0001:0001f861    96 0001:0001f863
    97 0001:0001f867    98 0001:0001f86b   100 0001:0001f86f   101 0001:0001f871
   102 0001:0001f873   103 0001:0001f875   104 0001:0001f877   105 0001:0001f879
   106 0001:0001f87b   115 0001:0001f87d   116 0001:0001f87f   117 0001:0001f883
   118 0001:0001f884   119 0001:0001f888   120 0001:0001f88a   128 0001:0001f88c
   129 0001:0001f890   130 0001:0001f892   131 0001:0001f894   132 0001:0001f898
   134 0001:0001f89a   135 0001:0001f89e   144 0001:0001f8a2   145 0001:0001f8a6
   146 0001:0001f8aa   147 0001:0001f8ac   148 0001:0001f8ae   157 0001:0001f8b1
   159 0001:0001f8b2

Line numbers for C:\Program Files\Microsoft Visual Studio .NET 2003\Vc7\lib\LIBCMTD.lib(F:\VS70Builds\3077\vc\crtbld\crt\src\intel\ulldiv.asm) segment .text

    46 0001:0001f7d0    44 0001:0001f7d0    47 0001:0001f7d1    81 0001:0001f7d2
    82 0001:0001f7d6    83 0001:0001f7d8    84 0001:0001f7da    85 0001:0001f7de
    86 0001:0001f7e2    87 0001:0001f7e4    88 0001:0001f7e6    89 0001:0001f7e8
    90 0001:0001f7ec    91 0001:0001f7ee    92 0001:0001f7f0    99 0001:0001f7f2
   100 0001:0001f7f4   101 0001:0001f7f8   102 0001:0001f7fc   104 0001:0001f800
   105 0001:0001f802   106 0001:0001f804   107 0001:0001f806   108 0001:0001f808
   109 0001:0001f80a   110 0001:0001f80c   111 0001:0001f80e   120 0001:0001f810
   121 0001:0001f814   122 0001:0001f816   123 0001:0001f81a   124 0001:0001f81c
   125 0001:0001f81e   133 0001:0001f820   134 0001:0001f824   135 0001:0001f826
   136 0001:0001f828   137 0001:0001f82c   139 0001:0001f82e   141 0001:0001f82f
   142 0001:0001f831   151 0001:0001f833   152 0001:0001f834   154 0001:0001f835

Line numbers for C:\Program Files\Microsoft Visual Studio .NET 2003\Vc7\lib\LIBCMTD.lib(F:\VS70Builds\3077\vc\crtbld\crt\src\intel\llmul.asm) segment .text

    62 0001:000283c0    47 0001:000283c0    63 0001:000283c4    64 0001:000283c8
    65 0001:000283ca    66 0001:000283ce    68 0001:000283d0    69 0001:000283d4
    71 0001:000283d6    74 0001:000283d9    81 0001:000283da    82 0001:000283dc
    84 0001:000283de    85 0001:000283e2    86 0001:000283e6    88 0001:000283e8
    89 0001:000283ec    90 0001:000283ee    92 0001:000283f0    94 0001:000283f1

Line numbers for C:\Program Files\Microsoft Visual Studio .NET 2003\Vc7\lib\LIBCMTD.lib(f:\vs70builds\3077\vc\crtbld\crt\src\new2.cpp) segment .text

    24 0001:0000e290    25 0001:0000e294    29 0001:0000e2a3    30 0001:0000e2a6

Line numbers for C:\Program Files\Microsoft Visual Studio .NET 2003\Vc7\lib\LIBCMTD.lib(f:\vs70builds\3077\vc\crtbld\crt\src\new.cpp) segment .text

    24 0001:0000ce30    25 0001:0000ce34    29 0001:0000ce45    30 0001:0000ce48

Line numbers for C:\Program Files\Microsoft Visual Studio .NET 2003\Vc7\lib\LIBCMTD.lib(f:\vs70builds\3077\vc\crtbld\crt\src\delete2.cpp) segment .text

    18 0001:0000ded0    21 0001:0000ded3    22 0001:0000dedf

Line numbers for C:\Program Files\Microsoft Visual Studio .NET 2003\Vc7\lib\LIBCMTD.lib(f:\vs70builds\3077\vc\crtbld\crt\src\handler.cpp) segment .text

    39 0001:000176f0    43 0001:000176f4    45 0001:000176fe    46 0001:00017706
    49 0001:0001770f    51 0001:00017719    52 0001:0001771c    73 0001:00017720
    74 0001:00017723    75 0001:00017728    94 0001:00017730    96 0001:00017734
    98 0001:0001773c    99 0001:00017750   101 0001:00017754   102 0001:00017759

Line numbers for C:\Program Files\Microsoft Visual Studio .NET 2003\Vc7\lib\LIBCMTD.lib(f:\vs70builds\3077\vc\crtbld\crt\src\sbheap.c) segment .text

    58 0001:00017f90    60 0001:00017f93    61 0001:00017f9c    68 0001:00017fa3
    69 0001:00017fa5    89 0001:00017fb0    91 0001:00017fb3    94 0001:00017fbc
    96 0001:00017fc5    97 0001:00017fcd   100 0001:00017fd4   152 0001:00017fd8
   156 0001:00017fe7   158 0001:00018000   159 0001:00018009   160 0001:00018013
   166 0001:0001801a   167 0001:0001801c   188 0001:00018020   189 0001:00018023
   190 0001:00018044   192 0001:00018048   193 0001:00018051   194 0001:0001805d
   195 0001:00018067   196 0001:00018071   198 0001:0001807b   199 0001:00018080
   220 0001:00018090   221 0001:00018096   227 0001:000180a7   228 0001:000180b0
   230 0001:000180b8   231 0001:000180c4   232 0001:000180cd   233 0001:000180d2
   234 0001:000180db   235 0001:000180dd   236 0001:000180df   258 0001:000180f0
   263 0001:000180f6   264 0001:00018102   272 0001:0001810b   273 0001:00018142
   295 0001:00018150   313 0001:00018156   316 0001:0001815f   317 0001:0001816b
   318 0001:00018174   321 0001:0001818a   322 0001:00018193   326 0001:0001819e
   327 0001:000181a6   330 0001:000181ab   331 0001:000181b4   334 0001:000181bc
   338 0001:000181c5   343 0001:000181d1   344 0001:000181dd   345 0001:000181e3
   348 0001:000181ea   353 0001:000181fc   355 0001:00018202   356 0001:00018222
   357 0001:00018244   359 0001:0001825a   362 0001:0001825c   363 0001:00018285
   364 0001:000182a7   369 0001:000182c2   370 0001:000182d1   373 0001:000182e0
   377 0001:000182e9   378 0001:000182f5   379 0001:000182fb   382 0001:00018302
   388 0001:0001830e   391 0001:00018317   392 0001:00018323   393 0001:00018329
   397 0001:00018330   398 0001:00018339   399 0001:00018345   400 0001:0001834b
   403 0001:00018352   407 0001:0001835e   412 0001:00018370   415 0001:00018376
   416 0001:00018396   417 0001:000183b9   419 0001:000183cf   422 0001:000183d1
   423 0001:000183fa   425 0001:0001841c   430 0001:00018437   431 0001:00018446
   434 0001:00018455   438 0001:0001845b   442 0001:0001846f   443 0001:0001847b
   444 0001:00018487   445 0001:00018490   446 0001:00018499   449 0001:000184a5
   453 0001:000184b7   455 0001:000184bd   456 0001:000184e0   457 0001:000184f4
   459 0001:00018512   461 0001:00018514   462 0001:00018537   464 0001:00018550
   470 0001:00018577   472 0001:0001857f   475 0001:0001858b   478 0001:000185a4
   482 0001:000185b1   483 0001:000185c6   487 0001:000185da   491 0001:000185f8
   492 0001:00018612   493 0001:0001863e   497 0001:00018652   500 0001:00018662
   503 0001:00018679   509 0001:00018691   510 0001:000186c4   513 0001:000186d3
   514 0001:000186de   517 0001:000186e7   522 0001:000186f3   523 0001:000186fb
   525 0001:00018704   546 0001:00018710   547 0001:00018717   564 0001:00018728
   582 0001:00018734   583 0001:00018740   585 0001:00018746   586 0001:00018751
   588 0001:00018758   590 0001:0001875a   591 0001:00018761   596 0001:0001876f
   597 0001:00018777   600 0001:0001877f   601 0001:00018794   602 0001:00018796
   603 0001:0001879f   606 0001:000187a1   608 0001:000187ad   609 0001:000187b6
   612 0001:000187c1   613 0001:000187d6   614 0001:000187d8   615 0001:000187e1
   619 0001:000187e3   621 0001:000187f2   623 0001:000187fa   624 0001:00018803
   625 0001:00018805   626 0001:0001880e   629 0001:00018810   631 0001:00018818
   632 0001:00018821   634 0001:0001882c   635 0001:00018835   636 0001:00018837
   637 0001:00018840   640 0001:00018842   641 0001:0001884d   642 0001:0001885b
   647 0001:00018862   648 0001:00018881   651 0001:00018888   653 0001:00018891
   654 0001:0001889a   659 0001:000188a2   663 0001:000188c9   665 0001:000188d0
   666 0001:000188f1   668 0001:000188fc   671 0001:00018912   674 0001:00018919
   676 0001:0001892b   677 0001:00018932   679 0001:00018945   681 0001:0001894b
   682 0001:00018953   683 0001:0001895c   684 0001:0001895e   689 0001:0001896b
   690 0001:00018976   691 0001:00018982   692 0001:00018988   695 0001:0001898f
   698 0001:0001899b   702 0001:000189ad   705 0001:000189b3   706 0001:000189d3
   707 0001:000189f5   709 0001:00018a0b   712 0001:00018a0d   713 0001:00018a36
   714 0001:00018a58   719 0001:00018a73   720 0001:00018a82   723 0001:00018a91
   727 0001:00018a9b   728 0001:00018aa7   729 0001:00018ab3   730 0001:00018abc
   731 0001:00018ac5   734 0001:00018ad1   738 0001:00018ae3   740 0001:00018ae9
   741 0001:00018b0c   743 0001:00018b20   745 0001:00018b3e   747 0001:00018b40
   749 0001:00018b63   751 0001:00018b7c   758 0001:00018ba3   760 0001:00018ba9
   762 0001:00018bb1   766 0001:00018bbd   767 0001:00018bc6   769 0001:00018bd1
   772 0001:00018be0   776 0001:00018bf6   777 0001:00018c0c   780 0001:00018c16
   782 0001:00018c1e   783 0001:00018c24   805 0001:00018c30   811 0001:00018c34
   814 0001:00018c41   815 0001:00018c6c   818 0001:00018c73   819 0001:00018c7c
   823 0001:00018c8b   827 0001:00018c9c   828 0001:00018cbf   832 0001:00018cc3
   834 0001:00018ce6   835 0001:00018cfc   839 0001:00018d00   840 0001:00018d09
   841 0001:00018d13   844 0001:00018d1d   847 0001:00018d2a   849 0001:00018d36
   850 0001:00018d39   872 0001:00018d40   873 0001:00018d46   886 0001:00018d4f
   887 0001:00018d58   888 0001:00018d5f   890 0001:00018d65   891 0001:00018d6d
   892 0001:00018d76   895 0001:00018d78   897 0001:00018d8e   899 0001:00018da6
   900 0001:00018db2   901 0001:00018dc4   905 0001:00018dc6   907 0001:00018dd5
   908 0001:00018def   912 0001:00018df7   915 0001:00018e03   918 0001:00018e1f
   919 0001:00018e29   922 0001:00018e36   923 0001:00018e3f   925 0001:00018e48
   927 0001:00018e57   929 0001:00018e65   930 0001:00018e71   931 0001:00018e7a
   935 0001:00018e7c   937 0001:00018e88   938 0001:00018e9d   941 0001:00018ea6
   942 0001:00018ebb   944 0001:00018ec4   945 0001:00018ed2   946 0001:00018ee3
   947 0001:00018efc   950 0001:00018f0b   952 0001:00018f23   953 0001:00018f26
   975 0001:00018f30   991 0001:00018f36   994 0001:00018f42   997 0001:00018f4b
   998 0001:00018f57   999 0001:00018f60  1002 0001:00018f76  1003 0001:00018f7f
  1006 0001:00018f8a  1007 0001:00018f93  1010 0001:00018f9b  1013 0001:00018fa7
  1014 0001:00018fba  1019 0001:00018fc1  1020 0001:00018fcd  1021 0001:00018fd3
  1024 0001:00018fda  1029 0001:00018fec  1031 0001:00018ff2  1032 0001:00019012
  1033 0001:00019034  1035 0001:0001904a  1038 0001:0001904c  1039 0001:00019075
  1040 0001:00019097  1045 0001:000190b2  1046 0001:000190c1  1049 0001:000190d0
  1052 0001:000190e6  1055 0001:000190ef  1056 0001:000190fb  1057 0001:00019101
  1061 0001:00019108  1062 0001:00019114  1063 0001:00019120  1064 0001:00019129
  1065 0001:00019132  1068 0001:0001913e  1072 0001:00019150  1074 0001:00019156
  1075 0001:00019179  1076 0001:0001918d  1078 0001:000191ab  1080 0001:000191ad
  1081 0001:000191d0  1083 0001:000191e9  1088 0001:00019210  1090 0001:00019218
  1094 0001:00019224  1096 0001:0001922f  1100 0001:0001923e  1103 0001:0001924f
  1105 0001:0001925a  1108 0001:00019269  1109 0001:00019272  1112 0001:0001927b
  1113 0001:00019287  1114 0001:0001928d  1117 0001:00019294  1122 0001:000192a0
  1123 0001:000192ac  1124 0001:000192b2  1127 0001:000192b9  1132 0001:000192cb
  1135 0001:000192d1  1136 0001:000192f1  1137 0001:00019313  1139 0001:00019329
  1142 0001:0001932b  1143 0001:00019354  1145 0001:00019376  1150 0001:00019391
  1151 0001:000193a0  1154 0001:000193af  1155 0001:000193b8  1156 0001:000193c4
  1157 0001:000193ca  1163 0001:000193d1  1164 0001:000193dd  1165 0001:000193e9
  1166 0001:000193f2  1167 0001:000193fb  1170 0001:00019407  1174 0001:00019419
  1176 0001:0001941f  1177 0001:00019442  1178 0001:00019456  1180 0001:00019474
  1182 0001:00019476  1183 0001:00019499  1185 0001:000194b2  1190 0001:000194d9
  1192 0001:000194e1  1195 0001:000194ed  1196 0001:000194f2  1216 0001:00019500
  1220 0001:00019504  1224 0001:00019511  1225 0001:00019525  1228 0001:00019539
  1232 0001:00019558  1233 0001:00019571  1234 0001:0001959b  1239 0001:000195b0
  1242 0001:000195c5  1247 0001:000195dd  1248 0001:0001960f  1252 0001:0001961e
  1254 0001:00019628  1275 0001:00019630  1306 0001:00019639  1307 0001:00019653
  1310 0001:0001965b  1311 0001:00019664  1314 0001:00019691  1315 0001:0001969a
  1316 0001:000196ad  1319 0001:000196b7  1320 0001:000196c0  1321 0001:000196cc
  1322 0001:000196d8  1323 0001:000196df  1324 0001:000196e6  1327 0001:00019702
  1328 0001:00019709  1329 0001:00019710  1330 0001:00019717  1331 0001:0001973b
  1334 0001:0001974e  1337 0001:0001975b  1338 0001:0001976e  1341 0001:00019778
  1342 0001:0001977e  1345 0001:0001979a  1347 0001:000197a3  1351 0001:000197af
  1352 0001:000197c0  1358 0001:000197ca  1359 0001:000197db  1362 0001:000197e6
  1365 0001:000197ef  1366 0001:000197f8  1369 0001:00019802  1371 0001:0001980b
  1375 0001:0001980d  1376 0001:0001981c  1377 0001:00019825  1378 0001:0001982f
  1383 0001:0001984c  1384 0001:00019863  1388 0001:0001986d  1389 0001:0001987e
  1392 0001:00019888  1394 0001:00019891  1397 0001:0001989d  1398 0001:000198a5
  1401 0001:000198af  1402 0001:000198ba  1405 0001:000198bf  1406 0001:000198c9
  1410 0001:000198d3  1411 0001:000198d9  1415 0001:00019901  1416 0001:00019908
  1418 0001:0001990e  1422 0001:00019939  1423 0001:0001994e  1427 0001:00019958
  1431 0001:00019964  1433 0001:0001996d  1437 0001:00019978  1440 0001:00019980
  1441 0001:00019988  1445 0001:0001998a  1446 0001:00019998  1449 0001:0001999a
  1450 0001:000199a2  1454 0001:000199ac  1455 0001:000199bd  1456 0001:000199c6
  1457 0001:000199d0  1458 0001:000199de  1462 0001:000199e8  1463 0001:000199f3
  1466 0001:000199fd  1467 0001:00019a03  1468 0001:00019a0c  1472 0001:00019a11
  1474 0001:00019a17  1476 0001:00019a20  1477 0001:00019a33  1479 0001:00019a46
  1481 0001:00019a48  1482 0001:00019a5e  1488 0001:00019a74  1489 0001:00019a91
  1493 0001:00019a9b  1494 0001:00019aa6  1498 0001:00019ab0  1499 0001:00019ab9
  1504 0001:00019abe  1505 0001:00019adf  1508 0001:00019ae6  1509 0001:00019af2
  1510 0001:00019afd  1511 0001:00019b0b  1515 0001:00019b10  1516 0001:00019b25
  1519 0001:00019b2c  1520 0001:00019b35  1521 0001:00019b3a  1522 0001:00019b3c

Line numbers for C:\Program Files\Microsoft Visual Studio .NET 2003\Vc7\lib\LIBCMTD.lib(f:\vs70builds\3077\vc\crtbld\crt\src\realloc.c) segment .text

    64 0001:000179e0    66 0001:00017a03    69 0001:00017a09    70 0001:00017a0f
    73 0001:00017a20    75 0001:00017a26    76 0001:00017a32    81 0001:00017a39
    88 0001:00017a46    89 0001:00017a4d    92 0001:00017a57    93 0001:00017a61
    98 0001:00017a68   102 0001:00017a81   104 0001:00017a90   105 0001:00017aa8
   106 0001:00017aae   109 0001:00017ac5   110 0001:00017ad1   112 0001:00017afb
   113 0001:00017b0a   120 0001:00017b1a   122 0001:00017b20   123 0001:00017b26
   125 0001:00017b2d   126 0001:00017b39   129 0001:00017b55   130 0001:00017b61
   131 0001:00017b8b   140 0001:00017ba9   146 0001:00017bb4   148 0001:00017bba
   149 0001:00017bc0   151 0001:00017bc7   152 0001:00017bd3   156 0001:00017bed
   163 0001:00017bfc   167 0001:00017c01   168 0001:00017c11   171 0001:00017c15
   267 0001:00017c1a   268 0001:00017c21   270 0001:00017c27   271 0001:00017c2d
   272 0001:00017c34   275 0001:00017c4e   282 0001:00017c5d   286 0001:00017c62
   287 0001:00017c72   290 0001:00017c76   292 0001:00017c78

Line numbers for C:\Program Files\Microsoft Visual Studio .NET 2003\Vc7\lib\LIBCMTD.lib(f:\vs70builds\3077\vc\crtbld\crt\src\malloc.c) segment .text

    53 0001:00017760    54 0001:00017764    58 0001:00017779    59 0001:0001777c
    90 0001:00017780    94 0001:00017784    95 0001:0001778a   105 0001:0001778e
   106 0001:00017794   107 0001:000177a3   108 0001:000177a5   113 0001:000177ac
   114 0001:000177b8   117 0001:000177bd   118 0001:000177cd   121 0001:000177d1
   122 0001:000177d3   142 0001:000177e0   152 0001:00017803   156 0001:0001780c
   159 0001:00017817   160 0001:00017821   162 0001:00017828   166 0001:00017845
   169 0001:00017850   170 0001:00017856   205 0001:0001785b   206 0001:00017861
   208 0001:00017868   209 0001:00017871   211 0001:0001787d   212 0001:00017890

Line numbers for C:\Program Files\Microsoft Visual Studio .NET 2003\Vc7\lib\LIBCMTD.lib(f:\vs70builds\3077\vc\crtbld\crt\src\heapinit.c) segment .text

    69 0001:00017e30    70 0001:00017e34   123 0001:00017e3b   124 0001:00017e4d
   139 0001:00017e54   142 0001:00017e59   170 0001:00017e60   173 0001:00017e63
   174 0001:00017e88   178 0001:00017e8c   180 0001:00017e96   183 0001:00017e9f
   185 0001:00017eb0   186 0001:00017ebd   201 0001:00017ec1   202 0001:00017ec6
   223 0001:00017ed0   226 0001:00017ed6   228 0001:00017ee3   232 0001:00017eeb
   235 0001:00017f08   236 0001:00017f1f   239 0001:00017f33   241 0001:00017f48
   242 0001:00017f51   244 0001:00017f53   263 0001:00017f68   264 0001:00017f75
   282 0001:00017f80   283 0001:00017f83   284 0001:00017f88

Line numbers for C:\Program Files\Microsoft Visual Studio .NET 2003\Vc7\lib\LIBCMTD.lib(f:\vs70builds\3077\vc\crtbld\crt\src\heapchk.c) segment .text

    62 0001:00017d60    63 0001:00017d83    66 0001:00017d8a    69 0001:00017d93
    70 0001:00017d9d    73 0001:00017da4    74 0001:00017dad    79 0001:00017dc2
   104 0001:00017dcd   106 0001:00017de1   108 0001:00017dec   109 0001:00017df7
   111 0001:00017e02   112 0001:00017e04   114 0001:00017e0b   115 0001:00017e0e
   122 0001:00017e20   123 0001:00017e23   124 0001:00017e28

Line numbers for C:\Program Files\Microsoft Visual Studio .NET 2003\Vc7\lib\LIBCMTD.lib(f:\vs70builds\3077\vc\crtbld\crt\src\free.c) segment .text

    42 0001:00017c90    45 0001:00017cb3    46 0001:00017cb9    51 0001:00017cbe
    56 0001:00017cc7    57 0001:00017cd1    60 0001:00017cd8    61 0001:00017ced
    66 0001:00017d0b    70 0001:00017d16    71 0001:00017d1c    98 0001:00017d2f
   101 0001:00017d31   103 0001:00017d43

Line numbers for C:\Program Files\Microsoft Visual Studio .NET 2003\Vc7\lib\LIBCMTD.lib(f:\vs70builds\3077\vc\crtbld\crt\src\expand.c) segment .text

    57 0001:000178c0    62 0001:000178e3    63 0001:000178e9    66 0001:000178f0
    71 0001:000178fd    72 0001:00017907    77 0001:0001790e    79 0001:00017923
    81 0001:0001792a    82 0001:0001794d    88 0001:00017961    92 0001:0001796c
    95 0001:00017972    96 0001:00017978    97 0001:0001797f   100 0001:0001798b
   149 0001:000179a4   153 0001:000179a6   154 0001:000179ac   157 0001:000179b3
   167 0001:000179cc   168 0001:000179cf

Line numbers for C:\Program Files\Microsoft Visual Studio .NET 2003\Vc7\lib\LIBCMTD.lib(f:\vs70builds\3077\vc\crtbld\crt\src\resetstk.c) segment .text

    30 0001:000264f0    40 0001:000264f6    44 0001:00026509    45 0001:0002651d
    46 0001:00026524    51 0001:0002652a    52 0001:00026534    55 0001:0002653a
    63 0001:0002654b    65 0001:00026568    66 0001:00026570    73 0001:00026577
    77 0001:00026580    79 0001:00026586    80 0001:0002659a    81 0001:000265a1
    82 0001:000265aa    83 0001:000265b5    88 0001:000265bb    89 0001:000265c5
    94 0001:000265cc    95 0001:000265d4   100 0001:000265d8   101 0001:000265e0
   103 0001:000265e6   105 0001:000265fb   106 0001:000265fd   113 0001:00026603
   115 0001:0002661c   116 0001:00026632

Line numbers for C:\Program Files\Microsoft Visual Studio .NET 2003\Vc7\lib\LIBCMTD.lib(f:\vs70builds\3077\vc\crtbld\crt\src\dosmap.c) segment .text

   110 0001:00015040   113 0001:00015044   116 0001:0001504e   117 0001:00015066
   118 0001:00015075   119 0001:00015086   121 0001:00015088   127 0001:0001508a
   128 0001:00015096   129 0001:000150a1   130 0001:000150b5   131 0001:000150c0
   132 0001:000150c2   133 0001:000150cd   160 0001:000150e0   161 0001:000150e3
   162 0001:000150eb   167 0001:000150f0   168 0001:000150f3   169 0001:000150fb

Line numbers for C:\Program Files\Microsoft Visual Studio .NET 2003\Vc7\lib\LIBCMTD.lib(f:\vs70builds\3077\vc\crtbld\crt\src\xtoa.c) segment .text

    92 0001:0001d030    93 0001:0001d033    94 0001:0001d03f    95 0001:0001d055
    96 0001:0001d057    97 0001:0001d06d    98 0001:0001d070    43 0001:0001d080
    49 0001:0001d086    51 0001:0001d08c    53 0001:0001d092    54 0001:0001d0a1
    57 0001:0001d0a9    60 0001:0001d0af    61 0001:0001d0ba    64 0001:0001d0c5
    65 0001:0001d0cb    66 0001:0001d0df    67 0001:0001d0e1    68 0001:0001d0f5
    73 0001:0001d0fb    76 0001:0001d10a    77 0001:0001d112    78 0001:0001d11c
    79 0001:0001d124    80 0001:0001d12d    81 0001:0001d136    82 0001:0001d13e
   105 0001:0001d150   106 0001:0001d154   107 0001:0001d188   108 0001:0001d18b
   115 0001:0001d190   116 0001:0001d193   117 0001:0001d1a9   118 0001:0001d1ac
   177 0001:0001d1b0   178 0001:0001d1b4   179 0001:0001d1f1   180 0001:0001d1f4
   128 0001:0001d200   134 0001:0001d206   136 0001:0001d20c   138 0001:0001d212
   139 0001:0001d221   142 0001:0001d234   145 0001:0001d23a   146 0001:0001d251
   149 0001:0001d26b   150 0001:0001d271   151 0001:0001d285   152 0001:0001d287
   153 0001:0001d29b   158 0001:0001d2a9   161 0001:0001d2b8   162 0001:0001d2c0
   163 0001:0001d2ca   164 0001:0001d2d2   165 0001:0001d2db   166 0001:0001d2e4
   167 0001:0001d2ec   187 0001:0001d300   188 0001:0001d303   189 0001:0001d31a
   190 0001:0001d31d

Line numbers for C:\Program Files\Microsoft Visual Studio .NET 2003\Vc7\lib\LIBCMTD.lib(f:\vs70builds\3077\vc\crtbld\crt\src\wctomb.c) segment .text

    48 0001:0001f6d0    50 0001:0001f6d4    52 0001:0001f6df    53 0001:0001f6ea
    55 0001:0001f6f2    56 0001:0001f707    63 0001:0001f710    65 0001:0001f716
    67 0001:0001f71c    71 0001:0001f723    76 0001:0001f72c    78 0001:0001f738
    79 0001:0001f743    82 0001:0001f748    83 0001:0001f750    88 0001:0001f757
   106 0001:0001f75e   108 0001:0001f793   109 0001:0001f79e   112 0001:0001f7a3
   115 0001:0001f7a6

Line numbers for C:\Program Files\Microsoft Visual Studio .NET 2003\Vc7\lib\LIBCMTD.lib(f:\vs70builds\3077\vc\crtbld\crt\src\wcstombs.c) segment .text

    87 0001:00010ef0    89 0001:00010ef4    91 0001:00010eff    92 0001:00010f0a
    94 0001:00010f12    95 0001:00010f2a   103 0001:00010f30   105 0001:00010f3e
   108 0001:00010f45   110 0001:00010f4c   112 0001:00010f58   114 0001:00010f5f
   124 0001:00010f83   127 0001:00010f8d   133 0001:00010f96   135 0001:00010f9e
   137 0001:00010fac   138 0001:00010fb7   140 0001:00010fbf   141 0001:00010fcc
   142 0001:00010fdf   143 0001:00010fe7   144 0001:00010ff0   145 0001:00010ff2
   148 0001:00010ffa   153 0001:00011003   154 0001:00011009   168 0001:0001101c
   170 0001:00011050   171 0001:0001105e   173 0001:00011067   176 0001:0001106f
   177 0001:0001107a   196 0001:00011082   198 0001:000110b4   201 0001:000110bf
   203 0001:000110d0   204 0001:000110db   208 0001:000110e3   222 0001:000110ef
   224 0001:00011124   225 0001:0001112f   228 0001:00011137   229 0001:00011142
   231 0001:0001114a   232 0001:0001116d   233 0001:00011189   235 0001:0001118e
   236 0001:00011199   238 0001:0001119e   244 0001:000111a3   248 0001:000111ac
   262 0001:000111ba   264 0001:000111e8   265 0001:000111f3   268 0001:000111f8
   272 0001:000111fe    45 0001:00011210    46 0001:00011216    47 0001:0001121f
    49 0001:00011225    50 0001:0001123a    52 0001:00011245    53 0001:00011255
    54 0001:00011262    55 0001:00011265

Line numbers for C:\Program Files\Microsoft Visual Studio .NET 2003\Vc7\lib\LIBCMTD.lib(f:\vs70builds\3077\vc\crtbld\crt\src\tolower.c) segment .text

    47 0001:000281c0    48 0001:000281c3    49 0001:000281c9    72 0001:000281d0
    75 0001:000281d4    77 0001:000281df    78 0001:000281ea    80 0001:000281f2
    81 0001:00028202   101 0001:00028210   115 0001:00028216   116 0001:0002822e
   120 0001:00028253   123 0001:0002825c   128 0001:00028297   134 0001:0002829f
   139 0001:000282bf   140 0001:000282ce   141 0001:000282d4   142 0001:000282d8
   143 0001:000282df   144 0001:000282e1   145 0001:000282e7   146 0001:000282eb
   165 0001:000282f2   167 0001:00028326   171 0001:0002832b   172 0001:00028331
   174 0001:00028337   176 0001:00028344

Line numbers for C:\Program Files\Microsoft Visual Studio .NET 2003\Vc7\lib\LIBCMTD.lib(f:\vs70builds\3077\vc\crtbld\crt\src\mbtowc.c) segment .text

    53 0001:0001f8c0    55 0001:0001f8c4    57 0001:0001f8cf    58 0001:0001f8da
    60 0001:0001f8e2    61 0001:0001f8fa    69 0001:0001f900    70 0001:0001f903
    74 0001:0001f933    77 0001:0001f93f    79 0001:0001f946    82 0001:0001f950
    83 0001:0001f956    84 0001:0001f95e    89 0001:0001f965    94 0001:0001f96e
    95 0001:0001f974    96 0001:0001f981   100 0001:0001f98b   110 0001:0001f9a3
   113 0001:0001f9e3   115 0001:0001f9f9   116 0001:0001fa04   119 0001:0001fa09
   156 0001:0001fa11   158 0001:0001fa38   159 0001:0001fa43   161 0001:0001fa48
   164 0001:0001fa4d

Line numbers for C:\Program Files\Microsoft Visual Studio .NET 2003\Vc7\lib\LIBCMTD.lib(f:\vs70builds\3077\vc\crtbld\crt\src\isctype.c) segment .text

    55 0001:0001adf0    56 0001:0001adf3    57 0001:0001ae1e    58 0001:0001ae2d
    67 0001:0001ae30    68 0001:0001ae33    69 0001:0001ae5e    70 0001:0001ae6e
   106 0001:0001ae70   108 0001:0001ae74   110 0001:0001ae7f   111 0001:0001ae8a
   113 0001:0001ae92   114 0001:0001aea6   121 0001:0001aeb0   128 0001:0001aeb6
   130 0001:0001aec3   136 0001:0001aed8   141 0001:0001aef9   142 0001:0001af07
   143 0001:0001af0d   144 0001:0001af11   145 0001:0001af18   146 0001:0001af1a
   147 0001:0001af20   148 0001:0001af24   162 0001:0001af2b   164 0001:0001af55
   167 0001:0001af59   168 0001:0001af60

Line numbers for C:\Program Files\Microsoft Visual Studio .NET 2003\Vc7\lib\LIBCMTD.lib(f:\vs70builds\3077\vc\crtbld\crt\src\atox.c) segment .text

    48 0001:00026d10    53 0001:00026d16    55 0001:00026d21    56 0001:00026d2c
    59 0001:00026d34    63 0001:00026d75    65 0001:00026d80    66 0001:00026d92
    67 0001:00026d98    68 0001:00026da4    70 0001:00026db6    72 0001:00026dbd
    73 0001:00026de7    74 0001:00026df3    75 0001:00026e05    77 0001:00026e07
    78 0001:00026e0d    80 0001:00026e14    81 0001:00026e17   106 0001:00026e20
   107 0001:00026e23   108 0001:00026e2f   115 0001:00026e40   120 0001:00026e47
   122 0001:00026e52   123 0001:00026e5d   126 0001:00026e65   130 0001:00026ea6
   132 0001:00026eb1   133 0001:00026ec3   134 0001:00026ec9   135 0001:00026ed5
   137 0001:00026ee7   139 0001:00026ef5   140 0001:00026f1f   141 0001:00026f42
   142 0001:00026f54   144 0001:00026f56   145 0001:00026f5c   147 0001:00026f6b
   148 0001:00026f71

Line numbers for C:\Program Files\Microsoft Visual Studio .NET 2003\Vc7\lib\LIBCMTD.lib(f:\vs70builds\3077\vc\crtbld\crt\src\_ctype.c) segment .text

    46 0001:000278e0    48 0001:000278e6    50 0001:000278f1    51 0001:000278fc
    53 0001:00027904    57 0001:00027942    62 0001:00027950    64 0001:00027956
    66 0001:00027961    67 0001:0002796c    69 0001:00027974    73 0001:000279ac
    78 0001:000279b0    80 0001:000279b6    82 0001:000279c1    83 0001:000279cc
    85 0001:000279d4    89 0001:00027a0c    94 0001:00027a10    96 0001:00027a16
    98 0001:00027a21    99 0001:00027a2c   101 0001:00027a34   105 0001:00027a6c
   110 0001:00027a70   112 0001:00027a76   114 0001:00027a81   115 0001:00027a8c
   117 0001:00027a94   121 0001:00027ad2   126 0001:00027ae0   128 0001:00027ae6
   130 0001:00027af1   131 0001:00027afc   133 0001:00027b04   137 0001:00027b3c
   142 0001:00027b40   144 0001:00027b46   146 0001:00027b51   147 0001:00027b5c
   149 0001:00027b64   153 0001:00027b9c   158 0001:00027ba0   160 0001:00027ba6
   162 0001:00027bb1   163 0001:00027bbc   165 0001:00027bc4   169 0001:00027c02
   174 0001:00027c10   176 0001:00027c16   178 0001:00027c21   179 0001:00027c2c
   181 0001:00027c34   185 0001:00027c72   190 0001:00027c80   192 0001:00027c86
   194 0001:00027c91   195 0001:00027c9c   197 0001:00027ca4   201 0001:00027ce2
   206 0001:00027cf0   208 0001:00027cf6   210 0001:00027d01   211 0001:00027d0c
   213 0001:00027d14   217 0001:00027d4c   222 0001:00027d50   223 0001:00027d53
   224 0001:00027d5e   229 0001:00027d60   230 0001:00027d63   231 0001:00027d69
   236 0001:00027d70   237 0001:00027d74   238 0001:00027d9d   243 0001:00027db0
   244 0001:00027db4   245 0001:00027ddd

 Exports

  ordinal    name

        1    _DllCanUnloadNow@0
               exported name: DllCanUnloadNow
        2    _DllGetClassObject@12
               exported name: DllGetClassObject
        3    _DllRegisterServer@0
               exported name: DllRegisterServer
        4    _DllUnregisterServer@0
               exported name: DllUnregisterServer
