 WorldServer

 Timestamp is 424df641 (Sat Apr 02 10:32:49 2005)

 Preferred load address is 00400000

 Start         Length     Name                   Class
 0001:00000000 000d1d61H .textbss                DATA
 0002:00000000 0010d3baH .text                   CODE
 0002:0010d3c0 0000622cH .text$AFX_AUX           CODE
 0002:001135f0 000150a1H .text$AFX_CMNCTL        CODE
 0002:001286a0 00008c48H .text$AFX_COL1          CODE
 0002:001312f0 00006e57H .text$AFX_COL2          CODE
 0002:00138150 0001da04H .text$AFX_CORE1         CODE
 0002:00155b60 0000f869H .text$AFX_CORE2         CODE
 0002:001653d0 00012224H .text$AFX_CORE3         CODE
 0002:00177600 00016cbbH .text$AFX_CORE4         CODE
 0002:0018e2c0 00007d84H .text$AFX_DBG1          CODE
 0002:00196050 0000ffd4H .text$AFX_DBG2          CODE
 0002:001a6030 00001264H .text$AFX_INET          CODE
 0002:001a72a0 0000ebacH .text$AFX_INIT          CODE
 0002:001b5e50 00005139H .text$AFX_OLE1          CODE
 0002:001baf90 00005be9H .text$AFX_OLE5          CODE
 0002:001c0b80 00002eecH .text$AFX_PRNT          CODE
 0002:001c3a70 00001217H .text$AFX_TERM          CODE
 0002:001c4c90 0000683cH .text$x                 CODE
 0002:001cb4d0 00001f8aH .text$yc                CODE
 0002:001cd460 00001544H .text$yd                CODE
 0003:00000000 00043b37H .rdata                  DATA
 0003:00043b38 00000161H .rdata$debug            DATA
 0003:00043c9c 00003852H .rdata$r                DATA
 0003:000474f0 00000104H .rtc$IAA                DATA
 0003:000475f4 000001b6H .rtc$IMZ                DATA
 0003:000477ac 00000104H .rtc$IZZ                DATA
 0003:000478b0 00000104H .rtc$TAA                DATA
 0003:000479b4 000001b6H .rtc$TMZ                DATA
 0003:00047b6c 00000104H .rtc$TZZ                DATA
 0003:00047c70 00008d0cH .xdata$x                DATA
 0003:0005097c 00000104H ATL$__a                 DATA
 0003:00050a80 00000104H ATL$__z                 DATA
 0003:00050b84 00000000H .edata                  DATA
 0004:00000000 00000104H .CRT$XCA                DATA
 0004:00000104 00000104H .CRT$XCAA               DATA
 0004:00000208 0000015cH .CRT$XCC                DATA
 0004:00000364 000001e6H .CRT$XCL                DATA
 0004:0000054c 00000270H .CRT$XCU                DATA
 0004:000007bc 00000104H .CRT$XCZ                DATA
 0004:000008c0 00000104H .CRT$XIA                DATA
 0004:000009c4 00000113H .CRT$XIC                DATA
 0004:00000ad8 00000104H .CRT$XIY                DATA
 0004:00000bdc 00000104H .CRT$XIZ                DATA
 0004:00000ce0 00000104H .CRT$XPA                DATA
 0004:00000de4 00000104H .CRT$XPX                DATA
 0004:00000ee8 00000104H .CRT$XPZ                DATA
 0004:00000fec 00000104H .CRT$XTA                DATA
 0004:000010f0 00000104H .CRT$XTB                DATA
 0004:000011f4 00000104H .CRT$XTZ                DATA
 0004:00001300 00003428H .data                   DATA
 0004:00004740 00007c08H .bss                    DATA
 0005:00000000 00000140H .idata$2                DATA
 0005:00000140 00000014H .idata$3                DATA
 0005:00000154 00001210H .idata$4                DATA
 0005:00001364 00001210H .idata$5                DATA
 0005:00002574 00003ed0H .idata$6                DATA

  Address         Publics by Value              Rva+Base     Lib:Object

 0000:00000000       ___safe_se_handler_count   00000000     <absolute>
 0000:00000000       ___safe_se_handler_table   00000000     <absolute>
 0000:00000000       __except_list              00000000     <absolute>
 0000:00000000       ___ImageBase               00400000     <linker-defined>
 0001:00000000       __enc$textbss$begin        00401000     <linker-defined>
 0001:000d1d61       __enc$textbss$end          004d2d61     <linker-defined>
 0002:00017550       ??0CAcceptTable@@QAE@KK@Z  004ea550 f   AcceptTable.obj
 0002:00017730       ??1CAcceptTable@@QAE@XZ    004ea730 f   AcceptTable.obj
 0002:00017860       ??_GCOnlyList@@QAEPAXI@Z   004ea860 f i AcceptTable.obj
 0002:000178d0       ?AllocNewAccept@CAcceptTable@@QAEPAUACCEPT_USER@@XZ 004ea8d0 f   AcceptTable.obj
 0002:00017980       ?Add@CAcceptTable@@QAEHPAUACCEPT_USER@@@Z 004ea980 f   AcceptTable.obj
 0002:00017b10       ?GetAcceptInfo@CAcceptTable@@QAEPAUACCEPT_USER@@K@Z 004eab10 f   AcceptTable.obj
 0002:00017ba0       ?Remove@CAcceptTable@@QAEXPAUACCEPT_USER@@@Z 004eaba0 f   AcceptTable.obj
 0002:00017d10       ?RemoveAcceptTable@CAcceptTable@@AAEXXZ 004ead10 f   AcceptTable.obj
 0002:00017e00       ?SetChatLogInWorld@@YAHW4CHAT_TYPE@@PAVCWorldUser@@1PADH@Z 004eae00 f   ChatLog.obj
 0002:000184a0       ?GetServerSetCode@COwnServer@@QAEPADXZ 004eb4a0 f i ChatLog.obj
 0002:000184e0       ??0CConnectionDistributionTable@@QAE@KKK@Z 004eb4e0 f   ConnectionDistributionTable.obj
 0002:000185c0       ??1CConnectionDistributionTable@@QAE@XZ 004eb5c0 f   ConnectionDistributionTable.obj
 0002:00018700       ?AllocAddedList@CConnectionDistributionTable@@QAEKXZ 004eb700 f   ConnectionDistributionTable.obj
 0002:00018860       ?SetCurBucketList@CConnectionDistributionTable@@QAEKK@Z 004eb860 f   ConnectionDistributionTable.obj
 0002:00018920       ?GetCount@CVoidList@@QBEHXZ 004eb920 f i ConnectionDistributionTable.obj
 0002:00018960       ?Add@CConnectionDistributionTable@@QAEHPAVCWorldUser@@@Z 004eb960 f   ConnectionDistributionTable.obj
 0002:00018a70       ?SendKeepAlivePacket@CConnectionDistributionTable@@QAEKXZ 004eba70 f   ConnectionDistributionTable.obj
 0002:00018c20       ?GetHeadPosition@CVoidList@@QBEPAXXZ 004ebc20 f i ConnectionDistributionTable.obj
 0002:00018c60       ?GetNext@CVoidList@@QBEPAXAAPAX@Z 004ebc60 f i ConnectionDistributionTable.obj
 0002:00018cd0       ?CheckKeepAlive@CConnectionDistributionTable@@QAEXXZ 004ebcd0 f   ConnectionDistributionTable.obj
 0002:00018f50       ?SetNextList@CConnectionDistributionTable@@QAEXXZ 004ebf50 f   ConnectionDistributionTable.obj
 0002:00018fc0       ?Remove@CConnectionDistributionTable@@QAEHPAVCWorldUser@@@Z 004ebfc0 f   ConnectionDistributionTable.obj
 0002:000190c0       ??0ECHO_KEEP_ALIVE@@QAE@XZ 004ec0c0 f i ConnectionDistributionTable.obj
 0002:00019110       ?GetPacketSize@ECHO_KEEP_ALIVE@@QAEKXZ 004ec110 f i ConnectionDistributionTable.obj
 0002:00019150       ?QueryTypeCharacterInfo@@YAXPAUDBRECEIVEDATA@@@Z 004ec150 f   DBProc.obj
 0002:000193b0       ?QueryTypeUserInfo@@YAXPAUDBRECEIVEDATA@@@Z 004ec3b0 f   DBProc.obj
 0002:0001b200       ??0CMessengerUserHash@@QAE@XZ 004ee200 f i DBProc.obj
 0002:0001b260       ??_ECMessengerUserHash@@UAEPAXI@Z 004ee260 f i DBProc.obj
 0002:0001b260       ??_GCMessengerUserHash@@UAEPAXI@Z 004ee260 f i DBProc.obj
 0002:0001b2d0       ??1CMessengerUserHash@@UAE@XZ 004ee2d0 f i DBProc.obj
 0002:0001b320       ?QueryMessenger@@YAXPAUDBRECEIVEDATA@@@Z 004ee320 f   DBProc.obj
 0002:0001b8f0       ?QueryTypeMessage@@YAXPAUDBRECEIVEDATA@@E@Z 004ee8f0 f   DBProc.obj
 0002:0001bb20       ?QueryTypeMessageRQ@@YAXPAUDBRECEIVEDATA@@@Z 004eeb20 f   DBProc.obj
 0002:0001bff0       ?QueryGuildId@@YAXPAUDBRECEIVEDATA@@@Z 004eeff0 f   DBProc.obj
 0002:0001ced0       ??0CGuildOfflineHash@@QAE@XZ 004efed0 f i DBProc.obj
 0002:0001cf30       ??0CGuildUserTableHash@@QAE@XZ 004eff30 f i DBProc.obj
 0002:0001cf90       ??_GCGuildOfflineHash@@UAEPAXI@Z 004eff90 f i DBProc.obj
 0002:0001cf90       ??_ECGuildOfflineHash@@UAEPAXI@Z 004eff90 f i DBProc.obj
 0002:0001d000       ??_ECGuildUserTableHash@@UAEPAXI@Z 004f0000 f i DBProc.obj
 0002:0001d000       ??_GCGuildUserTableHash@@UAEPAXI@Z 004f0000 f i DBProc.obj
 0002:0001d070       ??1CGuildOfflineHash@@UAE@XZ 004f0070 f i DBProc.obj
 0002:0001d0c0       ??1CGuildUserTableHash@@UAE@XZ 004f00c0 f i DBProc.obj
 0002:0001d110       ?QueryGuilChk@@YAXPAUDBRECEIVEDATA@@@Z 004f0110 f   DBProc.obj
 0002:0001d350       ?QueryTypeWorldChk@@YAXPAUDBRECEIVEDATA@@@Z 004f0350 f   DBProc.obj
 0002:0001d7f0       ?GetAgentConnectionIndex@COwnServer@@QAEKXZ 004f07f0 f i DBProc.obj
 0002:0001d830       ?QueryTypeGMCheck@@YAXPAUDBRECEIVEDATA@@@Z 004f0830 f   DBProc.obj
 0002:0001dbb0       ?IsGMUser@CWorldUser@@QBEHXZ 004f0bb0 f i DBProc.obj
 0002:0001dc00       ?QueryTypePartyFriend@@YAXPAUDBRECEIVEDATA@@@Z 004f0c00 f   DBProc.obj
 0002:0001de90       ?GetHead@?$CAbyssHash@UGUILD_OFFLINE_USER@@@@QAEPAU?$ListNode@UGUILD_OFFLINE_USER@@@@XZ 004f0e90 f i DBProc.obj
 0002:0001ded0       ?GetHead@?$CAbyssHash@VCWorldUser@@@@QAEPAU?$ListNode@VCWorldUser@@@@XZ 004f0ed0 f i DBProc.obj
 0002:0001df10       ??0?$CAbyssHash@UGUILD_OFFLINE_USER@@@@QAE@XZ 004f0f10 f i DBProc.obj
 0002:0001dfb0       ??1?$CAbyssHash@UGUILD_OFFLINE_USER@@@@UAE@XZ 004f0fb0 f i DBProc.obj
 0002:0001e0a0       ?InitializeHashTable@?$CAbyssHash@UGUILD_OFFLINE_USER@@@@QAEXKKH@Z 004f10a0 f i DBProc.obj
 0002:0001e1e0       ?Delete@?$CAbyssHash@UGUILD_OFFLINE_USER@@@@QAEXPAUGUILD_OFFLINE_USER@@KH@Z 004f11e0 f i DBProc.obj
 0002:0001e350       ?GetData@?$CAbyssHash@UGUILD_OFFLINE_USER@@@@UAEPAUGUILD_OFFLINE_USER@@K@Z 004f1350 f i DBProc.obj
 0002:0001e3e0       ?DeleteData@?$CAbyssHash@UGUILD_OFFLINE_USER@@@@UAEXPAX@Z 004f13e0 f i DBProc.obj
 0002:0001e450       ??0?$CAbyssHash@VCWorldUser@@@@QAE@XZ 004f1450 f i DBProc.obj
 0002:0001e4f0       ??1?$CAbyssHash@VCWorldUser@@@@UAE@XZ 004f14f0 f i DBProc.obj
 0002:0001e5e0       ?InitializeHashTable@?$CAbyssHash@VCWorldUser@@@@QAEXKKH@Z 004f15e0 f i DBProc.obj
 0002:0001e720       ?GetData@?$CAbyssHash@VCWorldUser@@@@UAEPAVCWorldUser@@K@Z 004f1720 f i DBProc.obj
 0002:0001e7b0       ?Insert@?$CAbyssHash@VCWorldUser@@@@QAEKPAVCWorldUser@@K@Z 004f17b0 f i DBProc.obj
 0002:0001e970       ?DeleteData@?$CAbyssHash@VCWorldUser@@@@UAEXPAX@Z 004f1970 f i DBProc.obj
 0002:0001ea10       ?Insert@?$CAbyssHash@U__tag_guild_table__@@@@QAEKPAU__tag_guild_table__@@K@Z 004f1a10 f i DBProc.obj
 0002:0001ebd0       ??0?$CAbyssHash@U__tag_messenger__@@@@QAE@XZ 004f1bd0 f i DBProc.obj
 0002:0001ec70       ??1?$CAbyssHash@U__tag_messenger__@@@@UAE@XZ 004f1c70 f i DBProc.obj
 0002:0001ed60       ?InitializeHashTable@?$CAbyssHash@U__tag_messenger__@@@@QAEXKKH@Z 004f1d60 f i DBProc.obj
 0002:0001eea0       ?GetData@?$CAbyssHash@U__tag_messenger__@@@@UAEPAU__tag_messenger__@@K@Z 004f1ea0 f i DBProc.obj
 0002:0001ef30       ?Insert@?$CAbyssHash@U__tag_messenger__@@@@QAEKPAU__tag_messenger__@@K@Z 004f1f30 f i DBProc.obj
 0002:0001f0f0       ?DeleteData@?$CAbyssHash@U__tag_messenger__@@@@UAEXPAX@Z 004f20f0 f i DBProc.obj
 0002:0001f160       ?Insert@?$CAbyssHash@U__tag_messenger_table__@@@@QAEKPAU__tag_messenger_table__@@K@Z 004f2160 f i DBProc.obj
 0002:0001f320       ??_G?$CAbyssHash@UGUILD_OFFLINE_USER@@@@UAEPAXI@Z 004f2320 f i DBProc.obj
 0002:0001f320       ??_E?$CAbyssHash@UGUILD_OFFLINE_USER@@@@UAEPAXI@Z 004f2320 f i DBProc.obj
 0002:0001f390       ??_E?$CAbyssHash@VCWorldUser@@@@UAEPAXI@Z 004f2390 f i DBProc.obj
 0002:0001f390       ??_G?$CAbyssHash@VCWorldUser@@@@UAEPAXI@Z 004f2390 f i DBProc.obj
 0002:0001f400       ??_GCWorldUser@@QAEPAXI@Z  004f2400 f i DBProc.obj
 0002:0001f470       ??1CWorldUser@@QAE@XZ      004f2470 f i DBProc.obj
 0002:0001f4d0       ??1?$CCondition@VCMatchCondition@@VCTeamInfo@@@@QAE@XZ 004f24d0 f i DBProc.obj
 0002:0001f570       ??_E?$CAbyssHash@U__tag_messenger__@@@@UAEPAXI@Z 004f2570 f i DBProc.obj
 0002:0001f570       ??_G?$CAbyssHash@U__tag_messenger__@@@@UAEPAXI@Z 004f2570 f i DBProc.obj
 0002:0001f5e0       ?RemoveAtList@?$CAbyssHash@UGUILD_OFFLINE_USER@@@@QAEXPAU?$ListNode@UGUILD_OFFLINE_USER@@@@@Z 004f25e0 f i DBProc.obj
 0002:0001f6b0       ?AddList@?$CAbyssHash@VCWorldUser@@@@QAEPAU?$ListNode@VCWorldUser@@@@PAVCWorldUser@@@Z 004f26b0 f i DBProc.obj
 0002:0001f7b0       ?AddList@?$CAbyssHash@U__tag_guild_table__@@@@QAEPAU?$ListNode@U__tag_guild_table__@@@@PAU__tag_guild_table__@@@Z 004f27b0 f i DBProc.obj
 0002:0001f8b0       ?AddList@?$CAbyssHash@U__tag_messenger__@@@@QAEPAU?$ListNode@U__tag_messenger__@@@@PAU__tag_messenger__@@@Z 004f28b0 f i DBProc.obj
 0002:0001f9b0       ?AddList@?$CAbyssHash@U__tag_messenger_table__@@@@QAEPAU?$ListNode@U__tag_messenger_table__@@@@PAU__tag_messenger_table__@@@Z 004f29b0 f i DBProc.obj
 0002:0001fab0       ??0WSTAS_USER_WORLD_LOGIN_SUCCESS@@QAE@XZ 004f2ab0 f i DBProc.obj
 0002:0001fb00       ?GetPacketSize@WSTAS_USER_WORLD_LOGIN_SUCCESS@@QAEKXZ 004f2b00 f i DBProc.obj
 0002:0001fb40       ??0WSTC_WORLD_USER_INFO@@QAE@XZ 004f2b40 f i DBProc.obj
 0002:0001fb90       ?GetPacketSize@WSTC_WORLD_USER_INFO@@QAEKXZ 004f2b90 f i DBProc.obj
 0002:0001fbd0       ??0WSTC_WORLD_LOGIN_FAIL@@QAE@XZ 004f2bd0 f i DBProc.obj
 0002:0001fc20       ?GetPacketSize@WSTC_WORLD_LOGIN_FAIL@@QAEKXZ 004f2c20 f i DBProc.obj
 0002:0001fc60       ??1CMatchCondition@@UAE@XZ 004f2c60 f i DBProc.obj
 0002:0001fcc0       ?Clear@CMatchCondition@@QAEXXZ 004f2cc0 f i DBProc.obj
 0002:0001fd20       ?MatchType@CMatchCondition@@QAEXK@Z 004f2d20 f i DBProc.obj
 0002:0001fd70       ?MatchLevel@CMatchCondition@@QAEXK@Z 004f2d70 f i DBProc.obj
 0002:0001fdc0       ??_GCMatchCondition@@UAEPAXI@Z 004f2dc0 f i DBProc.obj
 0002:0001fdc0       ??_ECMatchCondition@@UAEPAXI@Z 004f2dc0 f i DBProc.obj
 0002:0001fe30       ??1CTeamInfo@@UAE@XZ       004f2e30 f i DBProc.obj
 0002:0001fed0       ?Clear@CTeamInfo@@QAEXXZ   004f2ed0 f i DBProc.obj
 0002:0001ffa0       ?TeamIndex@CTeamInfo@@QAEXH@Z 004f2fa0 f i DBProc.obj
 0002:0001fff0       ?TeamName@CTeamInfo@@QAEXABV?$basic_string@DU?$char_traits@D@std@@V?$allocator@D@2@@std@@@Z 004f2ff0 f i DBProc.obj
 0002:00020050       ?TeamType@CTeamInfo@@QAEXK@Z 004f3050 f i DBProc.obj
 0002:000200a0       ??_ECTeamInfo@@UAEPAXI@Z   004f30a0 f i DBProc.obj
 0002:000200a0       ??_GCTeamInfo@@UAEPAXI@Z   004f30a0 f i DBProc.obj
 0002:00020110       ??0WSTDS_GUILD_INFO@@QAE@XZ 004f3110 f i DBProc.obj
 0002:00020160       ?GetPacketSize@WSTDS_GUILD_INFO@@QAEKXZ 004f3160 f i DBProc.obj
 0002:000201a0       ??0WSTDS_KICK_USER@@QAE@XZ 004f31a0 f i DBProc.obj
 0002:000201f0       ?GetPacketSize@WSTDS_KICK_USER@@QAEKXZ 004f31f0 f i DBProc.obj
 0002:00020230       ??0WSTDS_CHARACTER_SEARCH@@QAE@XZ 004f3230 f i DBProc.obj
 0002:00020280       ?GetPacketSize@WSTDS_CHARACTER_SEARCH@@QAEKXZ 004f3280 f i DBProc.obj
 0002:000202c0       ??0WSTDS_GUILD_RANK@@QAE@XZ 004f32c0 f i DBProc.obj
 0002:00020310       ?GetPacketSize@WSTDS_GUILD_RANK@@QAEKXZ 004f3310 f i DBProc.obj
 0002:00020350       ??0WSTDS_GUILDUSER_RANK@@QAE@XZ 004f3350 f i DBProc.obj
 0002:000203a0       ?GetPacketSize@WSTDS_GUILDUSER_RANK@@QAEKXZ 004f33a0 f i DBProc.obj
 0002:000203e0       ??0WSTC_BILLING_INFO@@QAE@XZ 004f33e0 f i DBProc.obj
 0002:00020430       ?GetPacketSize@WSTC_BILLING_INFO@@QAEKXZ 004f3430 f i DBProc.obj
 0002:00020470       ??0WSTC_PARTY_FRIEND@@QAE@XZ 004f3470 f i DBProc.obj
 0002:000204c0       ?GetPacketSize@WSTC_PARTY_FRIEND@@QAEKXZ 004f34c0 f i DBProc.obj
 0002:00020500       ??0WSTC_GUILD_LIST@@QAE@XZ 004f3500 f i DBProc.obj
 0002:00020550       ?GetPacketSize@WSTC_GUILD_LIST@@QAEKXZ 004f3550 f i DBProc.obj
 0002:00020590       ??0WSTC_WSF_CHAT@@QAE@XZ   004f3590 f i DBProc.obj
 0002:000205e0       ?GetPacketSize@WSTC_WSF_CHAT@@QAEKXZ 004f35e0 f i DBProc.obj
 0002:00020620       ??0WSTC_CHAT_RQ@@QAE@XZ    004f3620 f i DBProc.obj
 0002:00020690       ?GetPacketSize@WSTC_CHAT_RQ@@QAEKXZ 004f3690 f i DBProc.obj
 0002:00020710       ??0WSTC_DSF_CHAT@@QAE@XZ   004f3710 f i DBProc.obj
 0002:00020760       ?GetPacketSize@WSTC_DSF_CHAT@@QAEKXZ 004f3760 f i DBProc.obj
 0002:000207a0       ??0WSTC_GUILD_USER@@QAE@XZ 004f37a0 f i DBProc.obj
 0002:000207f0       ?GetPacketSize@WSTC_GUILD_USER@@QAEKXZ 004f37f0 f i DBProc.obj
 0002:00020830       ??0WSTC_GUILD_USERINFO@@QAE@XZ 004f3830 f i DBProc.obj
 0002:00020880       ?GetPacketSize@WSTC_GUILD_USERINFO@@QAEKXZ 004f3880 f i DBProc.obj
 0002:000208c0       ??0WSTC_GUILD_CREATE@@QAE@XZ 004f38c0 f i DBProc.obj
 0002:00020910       ?GetPacketSize@WSTC_GUILD_CREATE@@QAEKXZ 004f3910 f i DBProc.obj
 0002:00020950       ??0WSTC_DGGUILD_USERINFO@@QAE@XZ 004f3950 f i DBProc.obj
 0002:000209a0       ?GetPacketSize@WSTC_DGGUILD_USERINFO@@QAEKXZ 004f39a0 f i DBProc.obj
 0002:000209e0       ??0WSTC_DGGUILD_USER@@QAE@XZ 004f39e0 f i DBProc.obj
 0002:00020a30       ?GetPacketSize@WSTC_DGGUILD_USER@@QAEKXZ 004f3a30 f i DBProc.obj
 0002:00020a70       ??0WSTC_SKILL_KEY@@QAE@XZ  004f3a70 f i DBProc.obj
 0002:00020ac0       ?GetPacketSize@WSTC_SKILL_KEY@@QAEKXZ 004f3ac0 f i DBProc.obj
 0002:00020b00       ??0WSTC_GUILD_OFFLINEUSER@@QAE@XZ 004f3b00 f i DBProc.obj
 0002:00020b50       ?GetPacketSize@WSTC_GUILD_OFFLINEUSER@@QAEKXZ 004f3b50 f i DBProc.obj
 0002:00020b90       ??0WSTC_GUILD_OFFLINEUSER_DELETE@@QAE@XZ 004f3b90 f i DBProc.obj
 0002:00020be0       ?GetPacketSize@WSTC_GUILD_OFFLINEUSER_DELETE@@QAEKXZ 004f3be0 f i DBProc.obj
 0002:00020c20       ??0WSTC_MESSENGER_USER@@QAE@XZ 004f3c20 f i DBProc.obj
 0002:00020c70       ?GetPacketSize@WSTC_MESSENGER_USER@@QAEKXZ 004f3c70 f i DBProc.obj
 0002:00020cb0       ??0WSTC_MESSENGER_USERINFO@@QAE@XZ 004f3cb0 f i DBProc.obj
 0002:00020d00       ?GetPacketSize@WSTC_MESSENGER_USERINFO@@QAEKXZ 004f3d00 f i DBProc.obj
 0002:00020d40       ??0WSTC_SEARCH@@QAE@XZ     004f3d40 f i DBProc.obj
 0002:00020d90       ?GetPacketSize@WSTC_SEARCH@@QAEKXZ 004f3d90 f i DBProc.obj
 0002:00020dd0       ??0WSTC_INVALID_GM@@QAE@XZ 004f3dd0 f i DBProc.obj
 0002:00020e20       ?GetPacketSize@WSTC_INVALID_GM@@QAEKXZ 004f3e20 f i DBProc.obj
 0002:00020e60       ??0WSTC_GM_LOGIN_SUCCESS@@QAE@XZ 004f3e60 f i DBProc.obj
 0002:00020eb0       ?GetPacketSize@WSTC_GM_LOGIN_SUCCESS@@QAEKXZ 004f3eb0 f i DBProc.obj
 0002:00020ef0       ??0?$basic_string@DU?$char_traits@D@std@@V?$allocator@D@2@@std@@QAE@PBD@Z 004f3ef0 f i DBProc.obj
 0002:00020f70       ??1?$basic_string@DU?$char_traits@D@std@@V?$allocator@D@2@@std@@QAE@XZ 004f3f70 f i DBProc.obj
 0002:00020fd0       ??4?$basic_string@DU?$char_traits@D@std@@V?$allocator@D@2@@std@@QAEAAV01@ABV01@@Z 004f3fd0 f i DBProc.obj
 0002:00021030       ?assign@?$basic_string@DU?$char_traits@D@std@@V?$allocator@D@2@@std@@QAEAAV12@ABV12@@Z 004f4030 f i DBProc.obj
 0002:00021090       ?assign@?$basic_string@DU?$char_traits@D@std@@V?$allocator@D@2@@std@@QAEAAV12@ABV12@II@Z 004f4090 f i DBProc.obj
 0002:000211b0       ?copy@?$char_traits@D@std@@SAPADPADPBDI@Z 004f41b0 f i DBProc.obj
 0002:00021210       ?size@?$basic_string@DU?$char_traits@D@std@@V?$allocator@D@2@@std@@QBEIXZ 004f4210 f i DBProc.obj
 0002:00021250       ?assign@?$basic_string@DU?$char_traits@D@std@@V?$allocator@D@2@@std@@QAEAAV12@PBD@Z 004f4250 f i DBProc.obj
 0002:000212c0       ?length@?$char_traits@D@std@@SAIPBD@Z 004f42c0 f i DBProc.obj
 0002:00021310       ?_Tidy@?$basic_string@DU?$char_traits@D@std@@V?$allocator@D@2@@std@@IAEX_NI@Z 004f4310 f i DBProc.obj
 0002:000213e0       ?_Myptr@?$basic_string@DU?$char_traits@D@std@@V?$allocator@D@2@@std@@QBEPBDXZ 004f43e0 f i DBProc.obj
 0002:00021450       ??0?$_String_val@DV?$allocator@D@std@@@std@@IAE@V?$allocator@D@1@@Z 004f4450 f i DBProc.obj
 0002:000214b0       ??0?$allocator@D@std@@QAE@XZ 004f44b0 f i DBProc.obj
 0002:000214f0       ??0?$allocator@D@std@@QAE@ABV01@@Z 004f44f0 f i DBProc.obj
 0002:00021530       ?assign@?$basic_string@DU?$char_traits@D@std@@V?$allocator@D@2@@std@@QAEAAV12@PBDI@Z 004f4530 f i DBProc.obj
 0002:00021610       ?erase@?$basic_string@DU?$char_traits@D@std@@V?$allocator@D@2@@std@@QAEAAV12@II@Z 004f4610 f i DBProc.obj
 0002:00021700       ?move@?$char_traits@D@std@@SAPADPADPBDI@Z 004f4700 f i DBProc.obj
 0002:00021760       ?_Eos@?$basic_string@DU?$char_traits@D@std@@V?$allocator@D@2@@std@@IAEXI@Z 004f4760 f i DBProc.obj
 0002:000217e0       ?assign@?$char_traits@D@std@@SAXAADABD@Z 004f47e0 f i DBProc.obj
 0002:00021820       ?_Grow@?$basic_string@DU?$char_traits@D@std@@V?$allocator@D@2@@std@@IAE_NI_N@Z 004f4820 f i DBProc.obj
 0002:00021920       ?_Myptr@?$basic_string@DU?$char_traits@D@std@@V?$allocator@D@2@@std@@QAEPADXZ 004f4920 f i DBProc.obj
 0002:00021990       ?deallocate@?$allocator@D@std@@QAEXPADI@Z 004f4990 f i DBProc.obj
 0002:000219f0       ?max_size@?$basic_string@DU?$char_traits@D@std@@V?$allocator@D@2@@std@@QBEIXZ 004f49f0 f i DBProc.obj
 0002:00021a70       ?_Copy@?$basic_string@DU?$char_traits@D@std@@V?$allocator@D@2@@std@@IAEXII@Z 004f4a70 f i DBProc.obj
 0002:00021c60       ?_Inside@?$basic_string@DU?$char_traits@D@std@@V?$allocator@D@2@@std@@IAE_NPBD@Z 004f4c60 f i DBProc.obj
 0002:00021ce0       ?allocate@?$allocator@D@std@@QAEPADI@Z 004f4ce0 f i DBProc.obj
 0002:00021d40       ?max_size@?$allocator@D@std@@QBEIXZ 004f4d40 f i DBProc.obj
 0002:00021db0       ??$_Allocate@D@std@@YAPADIPAD@Z 004f4db0 f i DBProc.obj
 0002:00021e00       ?CmdWorldLogin@@YAXKPADK@Z 004f4e00 f   MsgProc.obj
 0002:000220d0       ?CmdRequestDungeonInfo@@YAXPAVCWorldUser@@PADK@Z 004f50d0 f   MsgProc.obj
 0002:00022650       ?CmdTryToJoinDungeon@@YAXPAVCWorldUser@@PADK@Z 004f5650 f   MsgProc.obj
 0002:00022c10       ?CmdCharacterInfoSearch@@YAXPAVCWorldUser@@PADK@Z 004f5c10 f   MsgProc.obj
 0002:00022d60       ?CmdHelpInfo@@YAXPAVCWorldUser@@PADK@Z 004f5d60 f   MsgProc.obj
 0002:00022e20       ?CmdCommandMsg@@YAXPAVCWorldUser@@PADK@Z 004f5e20 f   MsgProc.obj
 0002:00022f50       ?CmdSkillKeyRt@@YAXPAVCWorldUser@@PADK@Z 004f5f50 f   MsgProc.obj
 0002:00023020       ?CmdCheckGM@@YAXPAVCWorldUser@@PADK@Z 004f6020 f   MsgProc.obj
 0002:00023190       ?CmdCMKickUser@@YAXPAVCWorldUser@@PADK@Z 004f6190 f   MsgProc.obj
 0002:00023340       ?CmdCheckMonitoring@@YAXPAVCWorldUser@@PADK@Z 004f6340 f   MsgProc.obj
 0002:000233e0       ?CmdCommand@@YAXPAVCWorldUser@@PADK@Z 004f63e0 f   MsgProc.obj
 0002:00023db0       ?DGCmdCommand@@YAXPAVCWorldUser@@PADK@Z 004f6db0 f   MsgProc.obj
 0002:00024850       ?CmdMessageRQ@@YAXPAVCWorldUser@@PADK@Z 004f7850 f   MsgProc.obj
 0002:000249c0       ?CmdChatUser@@YAXPAVCWorldUser@@PADK@Z 004f79c0 f   MsgProc.obj
 0002:00025030       ?CmdRequestOwnDungeonInfo@@YAXPAVCWorldUser@@PADK@Z 004f8030 f   MsgProc.obj
 0002:00025210       ?CmdDSChatUser@@YAXPAVCWorldUser@@PADK@Z 004f8210 f   MsgProc.obj
 0002:00025820       ?CmdNotice@@YAXPAVCWorldUser@@PADK@Z 004f8820 f   MsgProc.obj
 0002:00025a00       ?CmdRefreshRecentDungeon@@YAXPAVCWorldUser@@PADK@Z 004f8a00 f   MsgProc.obj
 0002:00025b20       ?CmdGoToWorldSuccess@@YAXPAVCWorldUser@@PADK@Z 004f8b20 f   MsgProc.obj
 0002:000260a0       ?CmdWorldMove@@YAXPAVCWorldUser@@PADK@Z 004f90a0 f   MsgProc.obj
 0002:00026300       ?CmdWorldStop@@YAXPAVCWorldUser@@PADK@Z 004f9300 f   MsgProc.obj
 0002:00026510       ?CmdWorldSetPosition@@YAXPAVCWorldUser@@PADK@Z 004f9510 f   MsgProc.obj
 0002:00026670       ?CmdAirshipRiding@@YAXPAVCWorldUser@@PADK@Z 004f9670 f   MsgProc.obj
 0002:000267d0       ?CmdAirshipGetoff@@YAXPAVCWorldUser@@PADK@Z 004f97d0 f   MsgProc.obj
 0002:00026930       ?CmdLoadingStatus@@YAXPAVCWorldUser@@PADK@Z 004f9930 f   MsgProc.obj
 0002:000269d0       ?CmdGmCommand@@YAXPAVCWorldUser@@PADK@Z 004f99d0 f   MsgProc.obj
 0002:00026f20       ?CmdQueryEventInfo@@YAXPAVCWorldUser@@PADK@Z 004f9f20 f   MsgProc.obj
 0002:00026fe0       ?SendAllEventInfo@@YAXK@Z  004f9fe0 f   MsgProc.obj
 0002:000271f0       ?SendAllEventState@@YAXK@Z 004fa1f0 f   MsgProc.obj
 0002:00027390       ?CmdPMatchRegister@@YAXPAVCWorldUser@@PADK@Z 004fa390 f   MsgProc.obj
 0002:00027520       ?CmdPMatchEscape@@YAXPAVCWorldUser@@PADK@Z 004fa520 f   MsgProc.obj
 0002:00027680       ?CmdPMatchRequestResult@@YAXPAVCWorldUser@@PADK@Z 004fa680 f   MsgProc.obj
 0002:00027a70       ?CmdPMatchChange@@YAXPAVCWorldUser@@PADK@Z 004faa70 f   MsgProc.obj
 0002:00027aa0       ?GetHead@?$CAbyssHash@U__tag_messenger__@@@@QAEPAU?$ListNode@U__tag_messenger__@@@@XZ 004faaa0 f i MsgProc.obj
 0002:00027ae0       ?Insert@?$CMatcher@UMATCH_CONDITION_PARTY@@KVCMatcherActionParty@@@@QAEHAAUMATCH_CONDITION_PARTY@@AAK_N@Z 004faae0 f i MsgProc.obj
 0002:00027d50       ?Remove@?$CMatcher@UMATCH_CONDITION_PARTY@@KVCMatcherActionParty@@@@QAE_NAAUMATCH_CONDITION_PARTY@@AAK@Z 004fad50 f i MsgProc.obj
 0002:00027ed0       ?GetReadyDB@?$CMatcher@UMATCH_CONDITION_PARTY@@KVCMatcherActionParty@@@@QAE_NHAAK0@Z 004faed0 f i MsgProc.obj
 0002:00027fc0       ?MatchSuccess@?$CMatcher@UMATCH_CONDITION_PARTY@@KVCMatcherActionParty@@@@QAE_NH@Z 004fafc0 f i MsgProc.obj
 0002:000280d0       ?MatchFail@?$CMatcher@UMATCH_CONDITION_PARTY@@KVCMatcherActionParty@@@@QAE_NH@Z 004fb0d0 f i MsgProc.obj
 0002:00028220       ?CancelMatch@CMatcherActionParty@@QAEXKK@Z 004fb220 f i MsgProc.obj
 0002:000282d0       ??1?$pair@UMATCH_CONDITION_PARTY@@V?$deque@KV?$allocator@K@std@@@std@@@std@@QAE@XZ 004fb2d0 f i MsgProc.obj
 0002:00028330       ??1?$pair@$$CBUMATCH_CONDITION_PARTY@@V?$deque@KV?$allocator@K@std@@@std@@@std@@QAE@XZ 004fb330 f i MsgProc.obj
 0002:00028390       ?Search@?$CMatcher@UMATCH_CONDITION_PARTY@@KVCMatcherActionParty@@@@QAE_NAAUMATCH_CONDITION_PARTY@@AAK01@Z 004fb390 f i MsgProc.obj
 0002:00028530       ?MakeCondition@CMatcherActionParty@@QAE_NKAAUMATCH_CONDITION_PARTY@@0@Z 004fb530 f i MsgProc.obj
 0002:00028670       ?CanMatch@CMatcherActionParty@@QAE_NKK@Z 004fb670 f i MsgProc.obj
 0002:00028830       ?IsStadium@DUNGEON_DATA_EX@@QBE_NXZ 004fb830 f i MsgProc.obj
 0002:00028880       ?Match@?$CMatcher@UMATCH_CONDITION_PARTY@@KVCMatcherActionParty@@@@QAEHAAUMATCH_CONDITION_PARTY@@AAK01@Z 004fb880 f i MsgProc.obj
 0002:00028a20       ?DoMatch@CMatcherActionParty@@QAEXKKK@Z 004fba20 f i MsgProc.obj
 0002:00028b80       ?end@?$_Tree@V?$_Tmap_traits@UMATCH_CONDITION_PARTY@@V?$deque@KV?$allocator@K@std@@@std@@U?$less@UMATCH_CONDITION_PARTY@@@3@V?$allocator@U?$pair@$$CBUMATCH_CONDITION_PARTY@@V?$deque@KV?$allocator@K@std@@@std@@@std@@@3@$0A@@std@@@std@@QAE?AViterator@12@XZ 004fbb80 f i MsgProc.obj
 0002:00028be0       ?insert@?$_Tree@V?$_Tmap_traits@UMATCH_CONDITION_PARTY@@V?$deque@KV?$allocator@K@std@@@std@@U?$less@UMATCH_CONDITION_PARTY@@@3@V?$allocator@U?$pair@$$CBUMATCH_CONDITION_PARTY@@V?$deque@KV?$allocator@K@std@@@std@@@std@@@3@$0A@@std@@@std@@QAE?AViterator@12@V312@ABU?$pair@$$CBUMATCH_CONDITION_PARTY@@V?$deque@KV?$allocator@K@std@@@std@@@2@@Z 004fbbe0 f i MsgProc.obj
 0002:000293a0       ?find@?$_Tree@V?$_Tmap_traits@UMATCH_CONDITION_PARTY@@V?$deque@KV?$allocator@K@std@@@std@@U?$less@UMATCH_CONDITION_PARTY@@@3@V?$allocator@U?$pair@$$CBUMATCH_CONDITION_PARTY@@V?$deque@KV?$allocator@K@std@@@std@@@std@@@3@$0A@@std@@@std@@QAE?AViterator@12@ABUMATCH_CONDITION_PARTY@@@Z 004fc3a0 f i MsgProc.obj
 0002:000294e0       ?end@?$_Tree@V?$_Tmap_traits@HUSReadyRoom@?$CMatcher@UMATCH_CONDITION_PARTY@@KVCMatcherActionParty@@@@U?$less@H@std@@V?$allocator@U?$pair@$$CBHUSReadyRoom@?$CMatcher@UMATCH_CONDITION_PARTY@@KVCMatcherActionParty@@@@@std@@@4@$0A@@std@@@std@@QAE?AViterator@12@XZ 004fc4e0 f i MsgProc.obj
 0002:00029540       ?erase@?$_Tree@V?$_Tmap_traits@HUSReadyRoom@?$CMatcher@UMATCH_CONDITION_PARTY@@KVCMatcherActionParty@@@@U?$less@H@std@@V?$allocator@U?$pair@$$CBHUSReadyRoom@?$CMatcher@UMATCH_CONDITION_PARTY@@KVCMatcherActionParty@@@@@std@@@4@$0A@@std@@@std@@QAE?AViterator@12@V312@@Z 004fc540 f i MsgProc.obj
 0002:00029f30       ?find@?$_Tree@V?$_Tmap_traits@HUSReadyRoom@?$CMatcher@UMATCH_CONDITION_PARTY@@KVCMatcherActionParty@@@@U?$less@H@std@@V?$allocator@U?$pair@$$CBHUSReadyRoom@?$CMatcher@UMATCH_CONDITION_PARTY@@KVCMatcherActionParty@@@@@std@@@4@$0A@@std@@@std@@QAE?AViterator@12@ABH@Z 004fcf30 f i MsgProc.obj
 0002:0002a070       ??Citerator@?$_Tree@V?$_Tmap_traits@UMATCH_CONDITION_PARTY@@V?$deque@KV?$allocator@K@std@@@std@@U?$less@UMATCH_CONDITION_PARTY@@@3@V?$allocator@U?$pair@$$CBUMATCH_CONDITION_PARTY@@V?$deque@KV?$allocator@K@std@@@std@@@std@@@3@$0A@@std@@@std@@QBEPAU?$pair@$$CBUMATCH_CONDITION_PARTY@@V?$deque@KV?$allocator@K@std@@@std@@@2@XZ 004fd070 f i MsgProc.obj
 0002:0002a0c0       ??8const_iterator@?$_Tree@V?$_Tmap_traits@UMATCH_CONDITION_PARTY@@V?$deque@KV?$allocator@K@std@@@std@@U?$less@UMATCH_CONDITION_PARTY@@@3@V?$allocator@U?$pair@$$CBUMATCH_CONDITION_PARTY@@V?$deque@KV?$allocator@K@std@@@std@@@std@@@3@$0A@@std@@@std@@QBE_NABV012@@Z 004fd0c0 f i MsgProc.obj
 0002:0002a110       ??0?$deque@KV?$allocator@K@std@@@std@@QAE@XZ 004fd110 f i MsgProc.obj
 0002:0002a1a0       ??1?$deque@KV?$allocator@K@std@@@std@@QAE@XZ 004fd1a0 f i MsgProc.obj
 0002:0002a1f0       ?begin@?$deque@KV?$allocator@K@std@@@std@@QAE?AViterator@12@XZ 004fd1f0 f i MsgProc.obj
 0002:0002a260       ?end@?$deque@KV?$allocator@K@std@@@std@@QAE?AViterator@12@XZ 004fd260 f i MsgProc.obj
 0002:0002a2d0       ?push_back@?$deque@KV?$allocator@K@std@@@std@@QAEXABK@Z 004fd2d0 f i MsgProc.obj
 0002:0002a420       ?erase@?$deque@KV?$allocator@K@std@@@std@@QAE?AViterator@12@V312@@Z 004fd420 f i MsgProc.obj
 0002:0002a4b0       ??9const_iterator@?$deque@KV?$allocator@K@std@@@std@@QBE_NABV012@@Z 004fd4b0 f i MsgProc.obj
 0002:0002a510       ??Citerator@?$_Tree@V?$_Tmap_traits@HUSReadyRoom@?$CMatcher@UMATCH_CONDITION_PARTY@@KVCMatcherActionParty@@@@U?$less@H@std@@V?$allocator@U?$pair@$$CBHUSReadyRoom@?$CMatcher@UMATCH_CONDITION_PARTY@@KVCMatcherActionParty@@@@@std@@@4@$0A@@std@@@std@@QBEPAU?$pair@$$CBHUSReadyRoom@?$CMatcher@UMATCH_CONDITION_PARTY@@KVCMatcherActionParty@@@@@2@XZ 004fd510 f i MsgProc.obj
 0002:0002a560       ??8const_iterator@?$_Tree@V?$_Tmap_traits@HUSReadyRoom@?$CMatcher@UMATCH_CONDITION_PARTY@@KVCMatcherActionParty@@@@U?$less@H@std@@V?$allocator@U?$pair@$$CBHUSReadyRoom@?$CMatcher@UMATCH_CONDITION_PARTY@@KVCMatcherActionParty@@@@@std@@@4@$0A@@std@@@std@@QBE_NABV012@@Z 004fd560 f i MsgProc.obj
 0002:0002a5b0       ??0out_of_range@std@@QAE@ABV01@@Z 004fd5b0 f i MsgProc.obj
 0002:0002a620       ??0logic_error@std@@QAE@ABV01@@Z 004fd620 f i MsgProc.obj
 0002:0002a6e0       ?_Isnil@?$_Tree@V?$_Tmap_traits@UMATCH_CONDITION_PARTY@@V?$deque@KV?$allocator@K@std@@@std@@U?$less@UMATCH_CONDITION_PARTY@@@3@V?$allocator@U?$pair@$$CBUMATCH_CONDITION_PARTY@@V?$deque@KV?$allocator@K@std@@@std@@@std@@@3@$0A@@std@@@std@@KAAADPAU_Node@?$_Tree_nod@V?$_Tmap_traits@UMATCH_CONDITION_PARTY@@V?$deque@KV?$allocator@K@std@@@std@@U?$less@UMATCH_CONDITION_PARTY@@@3@V?$allocator@U?$pair@$$CBUMATCH_CONDITION_PARTY@@V?$deque@KV?$allocator@K@std@@@std@@@std@@@3@$0A@@std@@@2@@Z 004fd6e0 f i MsgProc.obj
 0002:0002a720       ?_Key@?$_Tree@V?$_Tmap_traits@UMATCH_CONDITION_PARTY@@V?$deque@KV?$allocator@K@std@@@std@@U?$less@UMATCH_CONDITION_PARTY@@@3@V?$allocator@U?$pair@$$CBUMATCH_CONDITION_PARTY@@V?$deque@KV?$allocator@K@std@@@std@@@std@@@3@$0A@@std@@@std@@KAABUMATCH_CONDITION_PARTY@@PAU_Node@?$_Tree_nod@V?$_Tmap_traits@UMATCH_CONDITION_PARTY@@V?$deque@KV?$allocator@K@std@@@std@@U?$less@UMATCH_CONDITION_PARTY@@@3@V?$allocator@U?$pair@$$CBUMATCH_CONDITION_PARTY@@V?$deque@KV?$allocator@K@std@@@std@@@std@@@3@$0A@@std@@@2@@Z 004fd720 f i MsgProc.obj
 0002:0002a780       ?_Right@?$_Tree@V?$_Tmap_traits@UMATCH_CONDITION_PARTY@@V?$deque@KV?$allocator@K@std@@@std@@U?$less@UMATCH_CONDITION_PARTY@@@3@V?$allocator@U?$pair@$$CBUMATCH_CONDITION_PARTY@@V?$deque@KV?$allocator@K@std@@@std@@@std@@@3@$0A@@std@@@std@@KAAAPAU_Node@?$_Tree_nod@V?$_Tmap_traits@UMATCH_CONDITION_PARTY@@V?$deque@KV?$allocator@K@std@@@std@@U?$less@UMATCH_CONDITION_PARTY@@@3@V?$allocator@U?$pair@$$CBUMATCH_CONDITION_PARTY@@V?$deque@KV?$allocator@K@std@@@std@@@std@@@3@$0A@@std@@@2@PAU342@@Z 004fd780 f i MsgProc.obj
 0002:0002a7c0       ?begin@?$_Tree@V?$_Tmap_traits@UMATCH_CONDITION_PARTY@@V?$deque@KV?$allocator@K@std@@@std@@U?$less@UMATCH_CONDITION_PARTY@@@3@V?$allocator@U?$pair@$$CBUMATCH_CONDITION_PARTY@@V?$deque@KV?$allocator@K@std@@@std@@@std@@@3@$0A@@std@@@std@@QAE?AViterator@12@XZ 004fd7c0 f i MsgProc.obj
 0002:0002a830       ?size@?$_Tree@V?$_Tmap_traits@UMATCH_CONDITION_PARTY@@V?$deque@KV?$allocator@K@std@@@std@@U?$less@UMATCH_CONDITION_PARTY@@@3@V?$allocator@U?$pair@$$CBUMATCH_CONDITION_PARTY@@V?$deque@KV?$allocator@K@std@@@std@@@std@@@3@$0A@@std@@@std@@QBEIXZ 004fd830 f i MsgProc.obj
 0002:0002a870       ?insert@?$_Tree@V?$_Tmap_traits@UMATCH_CONDITION_PARTY@@V?$deque@KV?$allocator@K@std@@@std@@U?$less@UMATCH_CONDITION_PARTY@@@3@V?$allocator@U?$pair@$$CBUMATCH_CONDITION_PARTY@@V?$deque@KV?$allocator@K@std@@@std@@@std@@@3@$0A@@std@@@std@@QAE?AU?$pair@Viterator@?$_Tree@V?$_Tmap_traits@UMATCH_CONDITION_PARTY@@V?$deque@KV?$allocator@K@std@@@std@@U?$less@UMATCH_CONDITION_PARTY@@@3@V?$allocator@U?$pair@$$CBUMATCH_CONDITION_PARTY@@V?$deque@KV?$allocator@K@std@@@std@@@std@@@3@$0A@@std@@@std@@_N@2@ABU?$pair@$$CBUMATCH_CONDITION_PARTY@@V?$deque@KV?$allocator@K@std@@@std@@@2@@Z 004fd870 f i MsgProc.obj
 0002:0002ab30       ?lower_bound@?$_Tree@V?$_Tmap_traits@UMATCH_CONDITION_PARTY@@V?$deque@KV?$allocator@K@std@@@std@@U?$less@UMATCH_CONDITION_PARTY@@@3@V?$allocator@U?$pair@$$CBUMATCH_CONDITION_PARTY@@V?$deque@KV?$allocator@K@std@@@std@@@std@@@3@$0A@@std@@@std@@QAE?AViterator@12@ABUMATCH_CONDITION_PARTY@@@Z 004fdb30 f i MsgProc.obj
 0002:0002aba0       ?_Insert@?$_Tree@V?$_Tmap_traits@UMATCH_CONDITION_PARTY@@V?$deque@KV?$allocator@K@std@@@std@@U?$less@UMATCH_CONDITION_PARTY@@@3@V?$allocator@U?$pair@$$CBUMATCH_CONDITION_PARTY@@V?$deque@KV?$allocator@K@std@@@std@@@std@@@3@$0A@@std@@@std@@IAE?AViterator@12@_NPAU_Node@?$_Tree_nod@V?$_Tmap_traits@UMATCH_CONDITION_PARTY@@V?$deque@KV?$allocator@K@std@@@std@@U?$less@UMATCH_CONDITION_PARTY@@@3@V?$allocator@U?$pair@$$CBUMATCH_CONDITION_PARTY@@V?$deque@KV?$allocator@K@std@@@std@@@std@@@3@$0A@@std@@@2@ABU?$pair@$$CBUMATCH_CONDITION_PARTY@@V?$deque@KV?$allocator@K@std@@@std@@@2@@Z 004fdba0 f i MsgProc.obj
 0002:0002b150       ?_Rmost@?$_Tree@V?$_Tmap_traits@UMATCH_CONDITION_PARTY@@V?$deque@KV?$allocator@K@std@@@std@@U?$less@UMATCH_CONDITION_PARTY@@@3@V?$allocator@U?$pair@$$CBUMATCH_CONDITION_PARTY@@V?$deque@KV?$allocator@K@std@@@std@@@std@@@3@$0A@@std@@@std@@IAEAAPAU_Node@?$_Tree_nod@V?$_Tmap_traits@UMATCH_CONDITION_PARTY@@V?$deque@KV?$allocator@K@std@@@std@@U?$less@UMATCH_CONDITION_PARTY@@@3@V?$allocator@U?$pair@$$CBUMATCH_CONDITION_PARTY@@V?$deque@KV?$allocator@K@std@@@std@@@std@@@3@$0A@@std@@@2@XZ 004fe150 f i MsgProc.obj
 0002:0002b1b0       ?_Kfn@?$_Tmap_traits@UMATCH_CONDITION_PARTY@@V?$deque@KV?$allocator@K@std@@@std@@U?$less@UMATCH_CONDITION_PARTY@@@3@V?$allocator@U?$pair@$$CBUMATCH_CONDITION_PARTY@@V?$deque@KV?$allocator@K@std@@@std@@@std@@@3@$0A@@std@@SAABUMATCH_CONDITION_PARTY@@ABU?$pair@$$CBUMATCH_CONDITION_PARTY@@V?$deque@KV?$allocator@K@std@@@std@@@2@@Z 004fe1b0 f i MsgProc.obj
 0002:0002b1f0       ??R?$less@UMATCH_CONDITION_PARTY@@@std@@QBE_NABUMATCH_CONDITION_PARTY@@0@Z 004fe1f0 f i MsgProc.obj
 0002:0002b250       ?_Color@?$_Tree@V?$_Tmap_traits@HUSReadyRoom@?$CMatcher@UMATCH_CONDITION_PARTY@@KVCMatcherActionParty@@@@U?$less@H@std@@V?$allocator@U?$pair@$$CBHUSReadyRoom@?$CMatcher@UMATCH_CONDITION_PARTY@@KVCMatcherActionParty@@@@@std@@@4@$0A@@std@@@std@@KAAADPAU_Node@?$_Tree_nod@V?$_Tmap_traits@HUSReadyRoom@?$CMatcher@UMATCH_CONDITION_PARTY@@KVCMatcherActionParty@@@@U?$less@H@std@@V?$allocator@U?$pair@$$CBHUSReadyRoom@?$CMatcher@UMATCH_CONDITION_PARTY@@KVCMatcherActionParty@@@@@std@@@4@$0A@@std@@@2@@Z 004fe250 f i MsgProc.obj
 0002:0002b290       ?_Isnil@?$_Tree@V?$_Tmap_traits@HUSReadyRoom@?$CMatcher@UMATCH_CONDITION_PARTY@@KVCMatcherActionParty@@@@U?$less@H@std@@V?$allocator@U?$pair@$$CBHUSReadyRoom@?$CMatcher@UMATCH_CONDITION_PARTY@@KVCMatcherActionParty@@@@@std@@@4@$0A@@std@@@std@@KAAADPAU_Node@?$_Tree_nod@V?$_Tmap_traits@HUSReadyRoom@?$CMatcher@UMATCH_CONDITION_PARTY@@KVCMatcherActionParty@@@@U?$less@H@std@@V?$allocator@U?$pair@$$CBHUSReadyRoom@?$CMatcher@UMATCH_CONDITION_PARTY@@KVCMatcherActionParty@@@@@std@@@4@$0A@@std@@@2@@Z 004fe290 f i MsgProc.obj
 0002:0002b2d0       ?_Key@?$_Tree@V?$_Tmap_traits@HUSReadyRoom@?$CMatcher@UMATCH_CONDITION_PARTY@@KVCMatcherActionParty@@@@U?$less@H@std@@V?$allocator@U?$pair@$$CBHUSReadyRoom@?$CMatcher@UMATCH_CONDITION_PARTY@@KVCMatcherActionParty@@@@@std@@@4@$0A@@std@@@std@@KAABHPAU_Node@?$_Tree_nod@V?$_Tmap_traits@HUSReadyRoom@?$CMatcher@UMATCH_CONDITION_PARTY@@KVCMatcherActionParty@@@@U?$less@H@std@@V?$allocator@U?$pair@$$CBHUSReadyRoom@?$CMatcher@UMATCH_CONDITION_PARTY@@KVCMatcherActionParty@@@@@std@@@4@$0A@@std@@@2@@Z 004fe2d0 f i MsgProc.obj
 0002:0002b330       ?_Left@?$_Tree@V?$_Tmap_traits@HUSReadyRoom@?$CMatcher@UMATCH_CONDITION_PARTY@@KVCMatcherActionParty@@@@U?$less@H@std@@V?$allocator@U?$pair@$$CBHUSReadyRoom@?$CMatcher@UMATCH_CONDITION_PARTY@@KVCMatcherActionParty@@@@@std@@@4@$0A@@std@@@std@@KAAAPAU_Node@?$_Tree_nod@V?$_Tmap_traits@HUSReadyRoom@?$CMatcher@UMATCH_CONDITION_PARTY@@KVCMatcherActionParty@@@@U?$less@H@std@@V?$allocator@U?$pair@$$CBHUSReadyRoom@?$CMatcher@UMATCH_CONDITION_PARTY@@KVCMatcherActionParty@@@@@std@@@4@$0A@@std@@@2@PAU342@@Z 004fe330 f i MsgProc.obj
 0002:0002b370       ?_Parent@?$_Tree@V?$_Tmap_traits@HUSReadyRoom@?$CMatcher@UMATCH_CONDITION_PARTY@@KVCMatcherActionParty@@@@U?$less@H@std@@V?$allocator@U?$pair@$$CBHUSReadyRoom@?$CMatcher@UMATCH_CONDITION_PARTY@@KVCMatcherActionParty@@@@@std@@@4@$0A@@std@@@std@@KAAAPAU_Node@?$_Tree_nod@V?$_Tmap_traits@HUSReadyRoom@?$CMatcher@UMATCH_CONDITION_PARTY@@KVCMatcherActionParty@@@@U?$less@H@std@@V?$allocator@U?$pair@$$CBHUSReadyRoom@?$CMatcher@UMATCH_CONDITION_PARTY@@KVCMatcherActionParty@@@@@std@@@4@$0A@@std@@@2@PAU342@@Z 004fe370 f i MsgProc.obj
 0002:0002b3b0       ?_Right@?$_Tree@V?$_Tmap_traits@HUSReadyRoom@?$CMatcher@UMATCH_CONDITION_PARTY@@KVCMatcherActionParty@@@@U?$less@H@std@@V?$allocator@U?$pair@$$CBHUSReadyRoom@?$CMatcher@UMATCH_CONDITION_PARTY@@KVCMatcherActionParty@@@@@std@@@4@$0A@@std@@@std@@KAAAPAU_Node@?$_Tree_nod@V?$_Tmap_traits@HUSReadyRoom@?$CMatcher@UMATCH_CONDITION_PARTY@@KVCMatcherActionParty@@@@U?$less@H@std@@V?$allocator@U?$pair@$$CBHUSReadyRoom@?$CMatcher@UMATCH_CONDITION_PARTY@@KVCMatcherActionParty@@@@@std@@@4@$0A@@std@@@2@PAU342@@Z 004fe3b0 f i MsgProc.obj
 0002:0002b3f0       ?insert@?$_Tree@V?$_Tmap_traits@HUSReadyRoom@?$CMatcher@UMATCH_CONDITION_PARTY@@KVCMatcherActionParty@@@@U?$less@H@std@@V?$allocator@U?$pair@$$CBHUSReadyRoom@?$CMatcher@UMATCH_CONDITION_PARTY@@KVCMatcherActionParty@@@@@std@@@4@$0A@@std@@@std@@QAE?AU?$pair@Viterator@?$_Tree@V?$_Tmap_traits@HUSReadyRoom@?$CMatcher@UMATCH_CONDITION_PARTY@@KVCMatcherActionParty@@@@U?$less@H@std@@V?$allocator@U?$pair@$$CBHUSReadyRoom@?$CMatcher@UMATCH_CONDITION_PARTY@@KVCMatcherActionParty@@@@@std@@@4@$0A@@std@@@std@@_N@2@ABU?$pair@$$CBHUSReadyRoom@?$CMatcher@UMATCH_CONDITION_PARTY@@KVCMatcherActionParty@@@@@2@@Z 004fe3f0 f i MsgProc.obj
 0002:0002b6b0       ?lower_bound@?$_Tree@V?$_Tmap_traits@HUSReadyRoom@?$CMatcher@UMATCH_CONDITION_PARTY@@KVCMatcherActionParty@@@@U?$less@H@std@@V?$allocator@U?$pair@$$CBHUSReadyRoom@?$CMatcher@UMATCH_CONDITION_PARTY@@KVCMatcherActionParty@@@@@std@@@4@$0A@@std@@@std@@QAE?AViterator@12@ABH@Z 004fe6b0 f i MsgProc.obj
 0002:0002b720       ?_Lmost@?$_Tree@V?$_Tmap_traits@HUSReadyRoom@?$CMatcher@UMATCH_CONDITION_PARTY@@KVCMatcherActionParty@@@@U?$less@H@std@@V?$allocator@U?$pair@$$CBHUSReadyRoom@?$CMatcher@UMATCH_CONDITION_PARTY@@KVCMatcherActionParty@@@@@std@@@4@$0A@@std@@@std@@IAEAAPAU_Node@?$_Tree_nod@V?$_Tmap_traits@HUSReadyRoom@?$CMatcher@UMATCH_CONDITION_PARTY@@KVCMatcherActionParty@@@@U?$less@H@std@@V?$allocator@U?$pair@$$CBHUSReadyRoom@?$CMatcher@UMATCH_CONDITION_PARTY@@KVCMatcherActionParty@@@@@std@@@4@$0A@@std@@@2@XZ 004fe720 f i MsgProc.obj
 0002:0002b780       ?_Lrotate@?$_Tree@V?$_Tmap_traits@HUSReadyRoom@?$CMatcher@UMATCH_CONDITION_PARTY@@KVCMatcherActionParty@@@@U?$less@H@std@@V?$allocator@U?$pair@$$CBHUSReadyRoom@?$CMatcher@UMATCH_CONDITION_PARTY@@KVCMatcherActionParty@@@@@std@@@4@$0A@@std@@@std@@IAEXPAU_Node@?$_Tree_nod@V?$_Tmap_traits@HUSReadyRoom@?$CMatcher@UMATCH_CONDITION_PARTY@@KVCMatcherActionParty@@@@U?$less@H@std@@V?$allocator@U?$pair@$$CBHUSReadyRoom@?$CMatcher@UMATCH_CONDITION_PARTY@@KVCMatcherActionParty@@@@@std@@@4@$0A@@std@@@2@@Z 004fe780 f i MsgProc.obj
 0002:0002b930       ?_Max@?$_Tree@V?$_Tmap_traits@HUSReadyRoom@?$CMatcher@UMATCH_CONDITION_PARTY@@KVCMatcherActionParty@@@@U?$less@H@std@@V?$allocator@U?$pair@$$CBHUSReadyRoom@?$CMatcher@UMATCH_CONDITION_PARTY@@KVCMatcherActionParty@@@@@std@@@4@$0A@@std@@@std@@KAPAU_Node@?$_Tree_nod@V?$_Tmap_traits@HUSReadyRoom@?$CMatcher@UMATCH_CONDITION_PARTY@@KVCMatcherActionParty@@@@U?$less@H@std@@V?$allocator@U?$pair@$$CBHUSReadyRoom@?$CMatcher@UMATCH_CONDITION_PARTY@@KVCMatcherActionParty@@@@@std@@@4@$0A@@std@@@2@PAU342@@Z 004fe930 f i MsgProc.obj
 0002:0002b9b0       ?_Min@?$_Tree@V?$_Tmap_traits@HUSReadyRoom@?$CMatcher@UMATCH_CONDITION_PARTY@@KVCMatcherActionParty@@@@U?$less@H@std@@V?$allocator@U?$pair@$$CBHUSReadyRoom@?$CMatcher@UMATCH_CONDITION_PARTY@@KVCMatcherActionParty@@@@@std@@@4@$0A@@std@@@std@@KAPAU_Node@?$_Tree_nod@V?$_Tmap_traits@HUSReadyRoom@?$CMatcher@UMATCH_CONDITION_PARTY@@KVCMatcherActionParty@@@@U?$less@H@std@@V?$allocator@U?$pair@$$CBHUSReadyRoom@?$CMatcher@UMATCH_CONDITION_PARTY@@KVCMatcherActionParty@@@@@std@@@4@$0A@@std@@@2@PAU342@@Z 004fe9b0 f i MsgProc.obj
 0002:0002ba30       ?_Rmost@?$_Tree@V?$_Tmap_traits@HUSReadyRoom@?$CMatcher@UMATCH_CONDITION_PARTY@@KVCMatcherActionParty@@@@U?$less@H@std@@V?$allocator@U?$pair@$$CBHUSReadyRoom@?$CMatcher@UMATCH_CONDITION_PARTY@@KVCMatcherActionParty@@@@@std@@@4@$0A@@std@@@std@@IAEAAPAU_Node@?$_Tree_nod@V?$_Tmap_traits@HUSReadyRoom@?$CMatcher@UMATCH_CONDITION_PARTY@@KVCMatcherActionParty@@@@U?$less@H@std@@V?$allocator@U?$pair@$$CBHUSReadyRoom@?$CMatcher@UMATCH_CONDITION_PARTY@@KVCMatcherActionParty@@@@@std@@@4@$0A@@std@@@2@XZ 004fea30 f i MsgProc.obj
 0002:0002ba90       ?_Root@?$_Tree@V?$_Tmap_traits@HUSReadyRoom@?$CMatcher@UMATCH_CONDITION_PARTY@@KVCMatcherActionParty@@@@U?$less@H@std@@V?$allocator@U?$pair@$$CBHUSReadyRoom@?$CMatcher@UMATCH_CONDITION_PARTY@@KVCMatcherActionParty@@@@@std@@@4@$0A@@std@@@std@@IAEAAPAU_Node@?$_Tree_nod@V?$_Tmap_traits@HUSReadyRoom@?$CMatcher@UMATCH_CONDITION_PARTY@@KVCMatcherActionParty@@@@U?$less@H@std@@V?$allocator@U?$pair@$$CBHUSReadyRoom@?$CMatcher@UMATCH_CONDITION_PARTY@@KVCMatcherActionParty@@@@@std@@@4@$0A@@std@@@2@XZ 004fea90 f i MsgProc.obj
 0002:0002baf0       ?_Rrotate@?$_Tree@V?$_Tmap_traits@HUSReadyRoom@?$CMatcher@UMATCH_CONDITION_PARTY@@KVCMatcherActionParty@@@@U?$less@H@std@@V?$allocator@U?$pair@$$CBHUSReadyRoom@?$CMatcher@UMATCH_CONDITION_PARTY@@KVCMatcherActionParty@@@@@std@@@4@$0A@@std@@@std@@IAEXPAU_Node@?$_Tree_nod@V?$_Tmap_traits@HUSReadyRoom@?$CMatcher@UMATCH_CONDITION_PARTY@@KVCMatcherActionParty@@@@U?$less@H@std@@V?$allocator@U?$pair@$$CBHUSReadyRoom@?$CMatcher@UMATCH_CONDITION_PARTY@@KVCMatcherActionParty@@@@@std@@@4@$0A@@std@@@2@@Z 004feaf0 f i MsgProc.obj
 0002:0002bca0       ??R?$less@H@std@@QBE_NABH0@Z 004feca0 f i MsgProc.obj
 0002:0002bcf0       ?deallocate@?$allocator@U_Node@?$_Tree_nod@V?$_Tmap_traits@HUSReadyRoom@?$CMatcher@UMATCH_CONDITION_PARTY@@KVCMatcherActionParty@@@@U?$less@H@std@@V?$allocator@U?$pair@$$CBHUSReadyRoom@?$CMatcher@UMATCH_CONDITION_PARTY@@KVCMatcherActionParty@@@@@std@@@4@$0A@@std@@@std@@@std@@QAEXPAU_Node@?$_Tree_nod@V?$_Tmap_traits@HUSReadyRoom@?$CMatcher@UMATCH_CONDITION_PARTY@@KVCMatcherActionParty@@@@U?$less@H@std@@V?$allocator@U?$pair@$$CBHUSReadyRoom@?$CMatcher@UMATCH_CONDITION_PARTY@@KVCMatcherActionParty@@@@@std@@@4@$0A@@std@@@2@I@Z 004fecf0 f i MsgProc.obj
 0002:0002bd50       ?destroy@?$allocator@U_Node@?$_Tree_nod@V?$_Tmap_traits@HUSReadyRoom@?$CMatcher@UMATCH_CONDITION_PARTY@@KVCMatcherActionParty@@@@U?$less@H@std@@V?$allocator@U?$pair@$$CBHUSReadyRoom@?$CMatcher@UMATCH_CONDITION_PARTY@@KVCMatcherActionParty@@@@@std@@@4@$0A@@std@@@std@@@std@@QAEXPAU_Node@?$_Tree_nod@V?$_Tmap_traits@HUSReadyRoom@?$CMatcher@UMATCH_CONDITION_PARTY@@KVCMatcherActionParty@@@@U?$less@H@std@@V?$allocator@U?$pair@$$CBHUSReadyRoom@?$CMatcher@UMATCH_CONDITION_PARTY@@KVCMatcherActionParty@@@@@std@@@4@$0A@@std@@@2@@Z 004fed50 f i MsgProc.obj
 0002:0002bdb0       ??0iterator@?$_Tree@V?$_Tmap_traits@UMATCH_CONDITION_PARTY@@V?$deque@KV?$allocator@K@std@@@std@@U?$less@UMATCH_CONDITION_PARTY@@@3@V?$allocator@U?$pair@$$CBUMATCH_CONDITION_PARTY@@V?$deque@KV?$allocator@K@std@@@std@@@std@@@3@$0A@@std@@@std@@QAE@XZ 004fedb0 f i MsgProc.obj
 0002:0002be10       ??0iterator@?$_Tree@V?$_Tmap_traits@UMATCH_CONDITION_PARTY@@V?$deque@KV?$allocator@K@std@@@std@@U?$less@UMATCH_CONDITION_PARTY@@@3@V?$allocator@U?$pair@$$CBUMATCH_CONDITION_PARTY@@V?$deque@KV?$allocator@K@std@@@std@@@std@@@3@$0A@@std@@@std@@QAE@PAU_Node@?$_Tree_nod@V?$_Tmap_traits@UMATCH_CONDITION_PARTY@@V?$deque@KV?$allocator@K@std@@@std@@U?$less@UMATCH_CONDITION_PARTY@@@3@V?$allocator@U?$pair@$$CBUMATCH_CONDITION_PARTY@@V?$deque@KV?$allocator@K@std@@@std@@@std@@@3@$0A@@std@@@2@@Z 004fee10 f i MsgProc.obj
 0002:0002be70       ??Diterator@?$_Tree@V?$_Tmap_traits@UMATCH_CONDITION_PARTY@@V?$deque@KV?$allocator@K@std@@@std@@U?$less@UMATCH_CONDITION_PARTY@@@3@V?$allocator@U?$pair@$$CBUMATCH_CONDITION_PARTY@@V?$deque@KV?$allocator@K@std@@@std@@@std@@@3@$0A@@std@@@std@@QBEAAU?$pair@$$CBUMATCH_CONDITION_PARTY@@V?$deque@KV?$allocator@K@std@@@std@@@2@XZ 004fee70 f i MsgProc.obj
 0002:0002bec0       ??Eiterator@?$_Tree@V?$_Tmap_traits@UMATCH_CONDITION_PARTY@@V?$deque@KV?$allocator@K@std@@@std@@U?$less@UMATCH_CONDITION_PARTY@@@3@V?$allocator@U?$pair@$$CBUMATCH_CONDITION_PARTY@@V?$deque@KV?$allocator@K@std@@@std@@@std@@@3@$0A@@std@@@std@@QAEAAV012@XZ 004feec0 f i MsgProc.obj
 0002:0002bf20       ??Fiterator@?$_Tree@V?$_Tmap_traits@UMATCH_CONDITION_PARTY@@V?$deque@KV?$allocator@K@std@@@std@@U?$less@UMATCH_CONDITION_PARTY@@@3@V?$allocator@U?$pair@$$CBUMATCH_CONDITION_PARTY@@V?$deque@KV?$allocator@K@std@@@std@@@std@@@3@$0A@@std@@@std@@QAEAAV012@XZ 004fef20 f i MsgProc.obj
 0002:0002bf80       ??9const_iterator@?$_Tree@V?$_Tmap_traits@UMATCH_CONDITION_PARTY@@V?$deque@KV?$allocator@K@std@@@std@@U?$less@UMATCH_CONDITION_PARTY@@@3@V?$allocator@U?$pair@$$CBUMATCH_CONDITION_PARTY@@V?$deque@KV?$allocator@K@std@@@std@@@std@@@3@$0A@@std@@@std@@QBE_NABV012@@Z 004fef80 f i MsgProc.obj
 0002:0002bfe0       ?_Mynode@const_iterator@?$_Tree@V?$_Tmap_traits@UMATCH_CONDITION_PARTY@@V?$deque@KV?$allocator@K@std@@@std@@U?$less@UMATCH_CONDITION_PARTY@@@3@V?$allocator@U?$pair@$$CBUMATCH_CONDITION_PARTY@@V?$deque@KV?$allocator@K@std@@@std@@@std@@@3@$0A@@std@@@std@@QBEPAU_Node@?$_Tree_nod@V?$_Tmap_traits@UMATCH_CONDITION_PARTY@@V?$deque@KV?$allocator@K@std@@@std@@U?$less@UMATCH_CONDITION_PARTY@@@3@V?$allocator@U?$pair@$$CBUMATCH_CONDITION_PARTY@@V?$deque@KV?$allocator@K@std@@@std@@@std@@@3@$0A@@std@@@3@XZ 004fefe0 f i MsgProc.obj
 0002:0002c020       ?size@?$deque@KV?$allocator@K@std@@@std@@QBEIXZ 004ff020 f i MsgProc.obj
 0002:0002c060       ?front@?$deque@KV?$allocator@K@std@@@std@@QAEAAKXZ 004ff060 f i MsgProc.obj
 0002:0002c0c0       ?erase@?$deque@KV?$allocator@K@std@@@std@@QAE?AViterator@12@V312@0@Z 004ff0c0 f i MsgProc.obj
 0002:0002c260       ?_Growmap@?$deque@KV?$allocator@K@std@@@std@@IAEXI@Z 004ff260 f i MsgProc.obj
 0002:0002c540       ?_Tidy@?$deque@KV?$allocator@K@std@@@std@@IAEXXZ 004ff540 f i MsgProc.obj
 0002:0002c660       ??0?$_Deque_val@KV?$allocator@K@std@@@std@@IAE@V?$allocator@K@1@@Z 004ff660 f i MsgProc.obj
 0002:0002c6e0       ??0?$allocator@K@std@@QAE@XZ 004ff6e0 f i MsgProc.obj
 0002:0002c720       ?allocate@?$allocator@K@std@@QAEPAKI@Z 004ff720 f i MsgProc.obj
 0002:0002c780       ?construct@?$allocator@K@std@@QAEXPAKABK@Z 004ff780 f i MsgProc.obj
 0002:0002c7e0       ??0iterator@?$deque@KV?$allocator@K@std@@@std@@QAE@IPBV12@@Z 004ff7e0 f i MsgProc.obj
 0002:0002c840       ??Hiterator@?$deque@KV?$allocator@K@std@@@std@@QBE?AV012@H@Z 004ff840 f i MsgProc.obj
 0002:0002c8f0       ??8const_iterator@?$deque@KV?$allocator@K@std@@@std@@QBE_NABV012@@Z 004ff8f0 f i MsgProc.obj
 0002:0002c970       ??0iterator@?$_Tree@V?$_Tmap_traits@HUSReadyRoom@?$CMatcher@UMATCH_CONDITION_PARTY@@KVCMatcherActionParty@@@@U?$less@H@std@@V?$allocator@U?$pair@$$CBHUSReadyRoom@?$CMatcher@UMATCH_CONDITION_PARTY@@KVCMatcherActionParty@@@@@std@@@4@$0A@@std@@@std@@QAE@PAU_Node@?$_Tree_nod@V?$_Tmap_traits@HUSReadyRoom@?$CMatcher@UMATCH_CONDITION_PARTY@@KVCMatcherActionParty@@@@U?$less@H@std@@V?$allocator@U?$pair@$$CBHUSReadyRoom@?$CMatcher@UMATCH_CONDITION_PARTY@@KVCMatcherActionParty@@@@@std@@@4@$0A@@std@@@2@@Z 004ff970 f i MsgProc.obj
 0002:0002c9d0       ??Diterator@?$_Tree@V?$_Tmap_traits@HUSReadyRoom@?$CMatcher@UMATCH_CONDITION_PARTY@@KVCMatcherActionParty@@@@U?$less@H@std@@V?$allocator@U?$pair@$$CBHUSReadyRoom@?$CMatcher@UMATCH_CONDITION_PARTY@@KVCMatcherActionParty@@@@@std@@@4@$0A@@std@@@std@@QBEAAU?$pair@$$CBHUSReadyRoom@?$CMatcher@UMATCH_CONDITION_PARTY@@KVCMatcherActionParty@@@@@2@XZ 004ff9d0 f i MsgProc.obj
 0002:0002ca20       ??Eiterator@?$_Tree@V?$_Tmap_traits@HUSReadyRoom@?$CMatcher@UMATCH_CONDITION_PARTY@@KVCMatcherActionParty@@@@U?$less@H@std@@V?$allocator@U?$pair@$$CBHUSReadyRoom@?$CMatcher@UMATCH_CONDITION_PARTY@@KVCMatcherActionParty@@@@@std@@@4@$0A@@std@@@std@@QAEAAV012@XZ 004ffa20 f i MsgProc.obj
 0002:0002ca80       ?_Mynode@const_iterator@?$_Tree@V?$_Tmap_traits@HUSReadyRoom@?$CMatcher@UMATCH_CONDITION_PARTY@@KVCMatcherActionParty@@@@U?$less@H@std@@V?$allocator@U?$pair@$$CBHUSReadyRoom@?$CMatcher@UMATCH_CONDITION_PARTY@@KVCMatcherActionParty@@@@@std@@@4@$0A@@std@@@std@@QBEPAU_Node@?$_Tree_nod@V?$_Tmap_traits@HUSReadyRoom@?$CMatcher@UMATCH_CONDITION_PARTY@@KVCMatcherActionParty@@@@U?$less@H@std@@V?$allocator@U?$pair@$$CBHUSReadyRoom@?$CMatcher@UMATCH_CONDITION_PARTY@@KVCMatcherActionParty@@@@@std@@@4@$0A@@std@@@3@XZ 004ffa80 f i MsgProc.obj
 0002:0002cac0       ??0length_error@std@@QAE@ABV01@@Z 004ffac0 f i MsgProc.obj
 0002:0002cb30       ?_Color@?$_Tree@V?$_Tmap_traits@UMATCH_CONDITION_PARTY@@V?$deque@KV?$allocator@K@std@@@std@@U?$less@UMATCH_CONDITION_PARTY@@@3@V?$allocator@U?$pair@$$CBUMATCH_CONDITION_PARTY@@V?$deque@KV?$allocator@K@std@@@std@@@std@@@3@$0A@@std@@@std@@KAAADPAU_Node@?$_Tree_nod@V?$_Tmap_traits@UMATCH_CONDITION_PARTY@@V?$deque@KV?$allocator@K@std@@@std@@U?$less@UMATCH_CONDITION_PARTY@@@3@V?$allocator@U?$pair@$$CBUMATCH_CONDITION_PARTY@@V?$deque@KV?$allocator@K@std@@@std@@@std@@@3@$0A@@std@@@2@@Z 004ffb30 f i MsgProc.obj
 0002:0002cb70       ?_Left@?$_Tree@V?$_Tmap_traits@UMATCH_CONDITION_PARTY@@V?$deque@KV?$allocator@K@std@@@std@@U?$less@UMATCH_CONDITION_PARTY@@@3@V?$allocator@U?$pair@$$CBUMATCH_CONDITION_PARTY@@V?$deque@KV?$allocator@K@std@@@std@@@std@@@3@$0A@@std@@@std@@KAAAPAU_Node@?$_Tree_nod@V?$_Tmap_traits@UMATCH_CONDITION_PARTY@@V?$deque@KV?$allocator@K@std@@@std@@U?$less@UMATCH_CONDITION_PARTY@@@3@V?$allocator@U?$pair@$$CBUMATCH_CONDITION_PARTY@@V?$deque@KV?$allocator@K@std@@@std@@@std@@@3@$0A@@std@@@2@PAU342@@Z 004ffb70 f i MsgProc.obj
 0002:0002cbb0       ?_Parent@?$_Tree@V?$_Tmap_traits@UMATCH_CONDITION_PARTY@@V?$deque@KV?$allocator@K@std@@@std@@U?$less@UMATCH_CONDITION_PARTY@@@3@V?$allocator@U?$pair@$$CBUMATCH_CONDITION_PARTY@@V?$deque@KV?$allocator@K@std@@@std@@@std@@@3@$0A@@std@@@std@@KAAAPAU_Node@?$_Tree_nod@V?$_Tmap_traits@UMATCH_CONDITION_PARTY@@V?$deque@KV?$allocator@K@std@@@std@@U?$less@UMATCH_CONDITION_PARTY@@@3@V?$allocator@U?$pair@$$CBUMATCH_CONDITION_PARTY@@V?$deque@KV?$allocator@K@std@@@std@@@std@@@3@$0A@@std@@@2@PAU342@@Z 004ffbb0 f i MsgProc.obj
 0002:0002cbf0       ?_Myval@?$_Tree@V?$_Tmap_traits@UMATCH_CONDITION_PARTY@@V?$deque@KV?$allocator@K@std@@@std@@U?$less@UMATCH_CONDITION_PARTY@@@3@V?$allocator@U?$pair@$$CBUMATCH_CONDITION_PARTY@@V?$deque@KV?$allocator@K@std@@@std@@@std@@@3@$0A@@std@@@std@@KAAAU?$pair@$$CBUMATCH_CONDITION_PARTY@@V?$deque@KV?$allocator@K@std@@@std@@@2@PAU_Node@?$_Tree_nod@V?$_Tmap_traits@UMATCH_CONDITION_PARTY@@V?$deque@KV?$allocator@K@std@@@std@@U?$less@UMATCH_CONDITION_PARTY@@@3@V?$allocator@U?$pair@$$CBUMATCH_CONDITION_PARTY@@V?$deque@KV?$allocator@K@std@@@std@@@std@@@3@$0A@@std@@@2@@Z 004ffbf0 f i MsgProc.obj
 0002:0002cc30       ?max_size@?$_Tree@V?$_Tmap_traits@UMATCH_CONDITION_PARTY@@V?$deque@KV?$allocator@K@std@@@std@@U?$less@UMATCH_CONDITION_PARTY@@@3@V?$allocator@U?$pair@$$CBUMATCH_CONDITION_PARTY@@V?$deque@KV?$allocator@K@std@@@std@@@std@@@3@$0A@@std@@@std@@QBEIXZ 004ffc30 f i MsgProc.obj
 0002:0002cc90       ?_Lbound@?$_Tree@V?$_Tmap_traits@UMATCH_CONDITION_PARTY@@V?$deque@KV?$allocator@K@std@@@std@@U?$less@UMATCH_CONDITION_PARTY@@@3@V?$allocator@U?$pair@$$CBUMATCH_CONDITION_PARTY@@V?$deque@KV?$allocator@K@std@@@std@@@std@@@3@$0A@@std@@@std@@IBEPAU_Node@?$_Tree_nod@V?$_Tmap_traits@UMATCH_CONDITION_PARTY@@V?$deque@KV?$allocator@K@std@@@std@@U?$less@UMATCH_CONDITION_PARTY@@@3@V?$allocator@U?$pair@$$CBUMATCH_CONDITION_PARTY@@V?$deque@KV?$allocator@K@std@@@std@@@std@@@3@$0A@@std@@@2@ABUMATCH_CONDITION_PARTY@@@Z 004ffc90 f i MsgProc.obj
 0002:0002cd70       ?_Lmost@?$_Tree@V?$_Tmap_traits@UMATCH_CONDITION_PARTY@@V?$deque@KV?$allocator@K@std@@@std@@U?$less@UMATCH_CONDITION_PARTY@@@3@V?$allocator@U?$pair@$$CBUMATCH_CONDITION_PARTY@@V?$deque@KV?$allocator@K@std@@@std@@@std@@@3@$0A@@std@@@std@@IAEAAPAU_Node@?$_Tree_nod@V?$_Tmap_traits@UMATCH_CONDITION_PARTY@@V?$deque@KV?$allocator@K@std@@@std@@U?$less@UMATCH_CONDITION_PARTY@@@3@V?$allocator@U?$pair@$$CBUMATCH_CONDITION_PARTY@@V?$deque@KV?$allocator@K@std@@@std@@@std@@@3@$0A@@std@@@2@XZ 004ffd70 f i MsgProc.obj
 0002:0002cdd0       ?_Lrotate@?$_Tree@V?$_Tmap_traits@UMATCH_CONDITION_PARTY@@V?$deque@KV?$allocator@K@std@@@std@@U?$less@UMATCH_CONDITION_PARTY@@@3@V?$allocator@U?$pair@$$CBUMATCH_CONDITION_PARTY@@V?$deque@KV?$allocator@K@std@@@std@@@std@@@3@$0A@@std@@@std@@IAEXPAU_Node@?$_Tree_nod@V?$_Tmap_traits@UMATCH_CONDITION_PARTY@@V?$deque@KV?$allocator@K@std@@@std@@U?$less@UMATCH_CONDITION_PARTY@@@3@V?$allocator@U?$pair@$$CBUMATCH_CONDITION_PARTY@@V?$deque@KV?$allocator@K@std@@@std@@@std@@@3@$0A@@std@@@2@@Z 004ffdd0 f i MsgProc.obj
 0002:0002cf80       ?_Root@?$_Tree@V?$_Tmap_traits@UMATCH_CONDITION_PARTY@@V?$deque@KV?$allocator@K@std@@@std@@U?$less@UMATCH_CONDITION_PARTY@@@3@V?$allocator@U?$pair@$$CBUMATCH_CONDITION_PARTY@@V?$deque@KV?$allocator@K@std@@@std@@@std@@@3@$0A@@std@@@std@@IAEAAPAU_Node@?$_Tree_nod@V?$_Tmap_traits@UMATCH_CONDITION_PARTY@@V?$deque@KV?$allocator@K@std@@@std@@U?$less@UMATCH_CONDITION_PARTY@@@3@V?$allocator@U?$pair@$$CBUMATCH_CONDITION_PARTY@@V?$deque@KV?$allocator@K@std@@@std@@@std@@@3@$0A@@std@@@2@XZ 004fff80 f i MsgProc.obj
 0002:0002cfe0       ?_Rrotate@?$_Tree@V?$_Tmap_traits@UMATCH_CONDITION_PARTY@@V?$deque@KV?$allocator@K@std@@@std@@U?$less@UMATCH_CONDITION_PARTY@@@3@V?$allocator@U?$pair@$$CBUMATCH_CONDITION_PARTY@@V?$deque@KV?$allocator@K@std@@@std@@@std@@@3@$0A@@std@@@std@@IAEXPAU_Node@?$_Tree_nod@V?$_Tmap_traits@UMATCH_CONDITION_PARTY@@V?$deque@KV?$allocator@K@std@@@std@@U?$less@UMATCH_CONDITION_PARTY@@@3@V?$allocator@U?$pair@$$CBUMATCH_CONDITION_PARTY@@V?$deque@KV?$allocator@K@std@@@std@@@std@@@3@$0A@@std@@@2@@Z 004fffe0 f i MsgProc.obj
 0002:0002d190       ?_Buynode@?$_Tree@V?$_Tmap_traits@UMATCH_CONDITION_PARTY@@V?$deque@KV?$allocator@K@std@@@std@@U?$less@UMATCH_CONDITION_PARTY@@@3@V?$allocator@U?$pair@$$CBUMATCH_CONDITION_PARTY@@V?$deque@KV?$allocator@K@std@@@std@@@std@@@3@$0A@@std@@@std@@IAEPAU_Node@?$_Tree_nod@V?$_Tmap_traits@UMATCH_CONDITION_PARTY@@V?$deque@KV?$allocator@K@std@@@std@@U?$less@UMATCH_CONDITION_PARTY@@@3@V?$allocator@U?$pair@$$CBUMATCH_CONDITION_PARTY@@V?$deque@KV?$allocator@K@std@@@std@@@std@@@3@$0A@@std@@@2@PAU342@00ABU?$pair@$$CBUMATCH_CONDITION_PARTY@@V?$deque@KV?$allocator@K@std@@@std@@@2@D@Z 00500190 f i MsgProc.obj
 0002:0002d2f0       ??2@YAPAXIPAX@Z            005002f0 f i MsgProc.obj
 0002:0002d330       ??3@YAXPAX0@Z              00500330 f i MsgProc.obj
 0002:0002d360       ?_Myval@?$_Tree@V?$_Tmap_traits@HUSReadyRoom@?$CMatcher@UMATCH_CONDITION_PARTY@@KVCMatcherActionParty@@@@U?$less@H@std@@V?$allocator@U?$pair@$$CBHUSReadyRoom@?$CMatcher@UMATCH_CONDITION_PARTY@@KVCMatcherActionParty@@@@@std@@@4@$0A@@std@@@std@@KAAAU?$pair@$$CBHUSReadyRoom@?$CMatcher@UMATCH_CONDITION_PARTY@@KVCMatcherActionParty@@@@@2@PAU_Node@?$_Tree_nod@V?$_Tmap_traits@HUSReadyRoom@?$CMatcher@UMATCH_CONDITION_PARTY@@KVCMatcherActionParty@@@@U?$less@H@std@@V?$allocator@U?$pair@$$CBHUSReadyRoom@?$CMatcher@UMATCH_CONDITION_PARTY@@KVCMatcherActionParty@@@@@std@@@4@$0A@@std@@@2@@Z 00500360 f i MsgProc.obj
 0002:0002d3a0       ?begin@?$_Tree@V?$_Tmap_traits@HUSReadyRoom@?$CMatcher@UMATCH_CONDITION_PARTY@@KVCMatcherActionParty@@@@U?$less@H@std@@V?$allocator@U?$pair@$$CBHUSReadyRoom@?$CMatcher@UMATCH_CONDITION_PARTY@@KVCMatcherActionParty@@@@@std@@@4@$0A@@std@@@std@@QAE?AViterator@12@XZ 005003a0 f i MsgProc.obj
 0002:0002d410       ?_Insert@?$_Tree@V?$_Tmap_traits@HUSReadyRoom@?$CMatcher@UMATCH_CONDITION_PARTY@@KVCMatcherActionParty@@@@U?$less@H@std@@V?$allocator@U?$pair@$$CBHUSReadyRoom@?$CMatcher@UMATCH_CONDITION_PARTY@@KVCMatcherActionParty@@@@@std@@@4@$0A@@std@@@std@@IAE?AViterator@12@_NPAU_Node@?$_Tree_nod@V?$_Tmap_traits@HUSReadyRoom@?$CMatcher@UMATCH_CONDITION_PARTY@@KVCMatcherActionParty@@@@U?$less@H@std@@V?$allocator@U?$pair@$$CBHUSReadyRoom@?$CMatcher@UMATCH_CONDITION_PARTY@@KVCMatcherActionParty@@@@@std@@@4@$0A@@std@@@2@ABU?$pair@$$CBHUSReadyRoom@?$CMatcher@UMATCH_CONDITION_PARTY@@KVCMatcherActionParty@@@@@2@@Z 00500410 f i MsgProc.obj
 0002:0002d9c0       ?_Lbound@?$_Tree@V?$_Tmap_traits@HUSReadyRoom@?$CMatcher@UMATCH_CONDITION_PARTY@@KVCMatcherActionParty@@@@U?$less@H@std@@V?$allocator@U?$pair@$$CBHUSReadyRoom@?$CMatcher@UMATCH_CONDITION_PARTY@@KVCMatcherActionParty@@@@@std@@@4@$0A@@std@@@std@@IBEPAU_Node@?$_Tree_nod@V?$_Tmap_traits@HUSReadyRoom@?$CMatcher@UMATCH_CONDITION_PARTY@@KVCMatcherActionParty@@@@U?$less@H@std@@V?$allocator@U?$pair@$$CBHUSReadyRoom@?$CMatcher@UMATCH_CONDITION_PARTY@@KVCMatcherActionParty@@@@@std@@@4@$0A@@std@@@2@ABH@Z 005009c0 f i MsgProc.obj
 0002:0002daa0       ?_Kfn@?$_Tmap_traits@HUSReadyRoom@?$CMatcher@UMATCH_CONDITION_PARTY@@KVCMatcherActionParty@@@@U?$less@H@std@@V?$allocator@U?$pair@$$CBHUSReadyRoom@?$CMatcher@UMATCH_CONDITION_PARTY@@KVCMatcherActionParty@@@@@std@@@4@$0A@@std@@SAABHABU?$pair@$$CBHUSReadyRoom@?$CMatcher@UMATCH_CONDITION_PARTY@@KVCMatcherActionParty@@@@@2@@Z 00500aa0 f i MsgProc.obj
 0002:0002dae0       ??0const_iterator@?$_Tree@V?$_Tmap_traits@UMATCH_CONDITION_PARTY@@V?$deque@KV?$allocator@K@std@@@std@@U?$less@UMATCH_CONDITION_PARTY@@@3@V?$allocator@U?$pair@$$CBUMATCH_CONDITION_PARTY@@V?$deque@KV?$allocator@K@std@@@std@@@std@@@3@$0A@@std@@@std@@QAE@XZ 00500ae0 f i MsgProc.obj
 0002:0002db30       ??0const_iterator@?$_Tree@V?$_Tmap_traits@UMATCH_CONDITION_PARTY@@V?$deque@KV?$allocator@K@std@@@std@@U?$less@UMATCH_CONDITION_PARTY@@@3@V?$allocator@U?$pair@$$CBUMATCH_CONDITION_PARTY@@V?$deque@KV?$allocator@K@std@@@std@@@std@@@3@$0A@@std@@@std@@QAE@PAU_Node@?$_Tree_nod@V?$_Tmap_traits@UMATCH_CONDITION_PARTY@@V?$deque@KV?$allocator@K@std@@@std@@U?$less@UMATCH_CONDITION_PARTY@@@3@V?$allocator@U?$pair@$$CBUMATCH_CONDITION_PARTY@@V?$deque@KV?$allocator@K@std@@@std@@@std@@@3@$0A@@std@@@2@@Z 00500b30 f i MsgProc.obj
 0002:0002db80       ??Dconst_iterator@?$_Tree@V?$_Tmap_traits@UMATCH_CONDITION_PARTY@@V?$deque@KV?$allocator@K@std@@@std@@U?$less@UMATCH_CONDITION_PARTY@@@3@V?$allocator@U?$pair@$$CBUMATCH_CONDITION_PARTY@@V?$deque@KV?$allocator@K@std@@@std@@@std@@@3@$0A@@std@@@std@@QBEABU?$pair@$$CBUMATCH_CONDITION_PARTY@@V?$deque@KV?$allocator@K@std@@@std@@@2@XZ 00500b80 f i MsgProc.obj
 0002:0002dbe0       ??Econst_iterator@?$_Tree@V?$_Tmap_traits@UMATCH_CONDITION_PARTY@@V?$deque@KV?$allocator@K@std@@@std@@U?$less@UMATCH_CONDITION_PARTY@@@3@V?$allocator@U?$pair@$$CBUMATCH_CONDITION_PARTY@@V?$deque@KV?$allocator@K@std@@@std@@@std@@@3@$0A@@std@@@std@@QAEAAV012@XZ 00500be0 f i MsgProc.obj
 0002:0002dc40       ??Fconst_iterator@?$_Tree@V?$_Tmap_traits@UMATCH_CONDITION_PARTY@@V?$deque@KV?$allocator@K@std@@@std@@U?$less@UMATCH_CONDITION_PARTY@@@3@V?$allocator@U?$pair@$$CBUMATCH_CONDITION_PARTY@@V?$deque@KV?$allocator@K@std@@@std@@@std@@@3@$0A@@std@@@std@@QAEAAV012@XZ 00500c40 f i MsgProc.obj
 0002:0002dca0       ?max_size@?$deque@KV?$allocator@K@std@@@std@@QBEIXZ 00500ca0 f i MsgProc.obj
 0002:0002dd00       ?empty@?$deque@KV?$allocator@K@std@@@std@@QBE_NXZ 00500d00 f i MsgProc.obj
 0002:0002dd50       ?pop_front@?$deque@KV?$allocator@K@std@@@std@@QAEXXZ 00500d50 f i MsgProc.obj
 0002:0002de50       ?pop_back@?$deque@KV?$allocator@K@std@@@std@@QAEXXZ 00500e50 f i MsgProc.obj
 0002:0002df50       ?_Xlen@?$deque@KV?$allocator@K@std@@@std@@IBEXXZ 00500f50 f i MsgProc.obj
 0002:0002e010       ??0?$_Deque_map@KV?$allocator@K@std@@@std@@IAE@V?$allocator@K@1@@Z 00501010 f i MsgProc.obj
 0002:0002e070       ??0?$allocator@K@std@@QAE@ABV01@@Z 00501070 f i MsgProc.obj
 0002:0002e0b0       ?deallocate@?$allocator@K@std@@QAEXPAKI@Z 005010b0 f i MsgProc.obj
 0002:0002e110       ?deallocate@?$allocator@PAK@std@@QAEXPAPAKI@Z 00501110 f i MsgProc.obj
 0002:0002e170       ?allocate@?$allocator@PAK@std@@QAEPAPAKI@Z 00501170 f i MsgProc.obj
 0002:0002e1d0       ?destroy@?$allocator@PAK@std@@QAEXPAPAK@Z 005011d0 f i MsgProc.obj
 0002:0002e230       ??Diterator@?$deque@KV?$allocator@K@std@@@std@@QBEAAKXZ 00501230 f i MsgProc.obj
 0002:0002e280       ??Yiterator@?$deque@KV?$allocator@K@std@@@std@@QAEAAV012@H@Z 00501280 f i MsgProc.obj
 0002:0002e2d0       ??Giterator@?$deque@KV?$allocator@K@std@@@std@@QBEHABVconst_iterator@12@@Z 005012d0 f i MsgProc.obj
 0002:0002e350       ??0const_iterator@?$deque@KV?$allocator@K@std@@@std@@QAE@IPBV12@@Z 00501350 f i MsgProc.obj
 0002:0002e3a0       ??Fiterator@?$_Tree@V?$_Tmap_traits@HUSReadyRoom@?$CMatcher@UMATCH_CONDITION_PARTY@@KVCMatcherActionParty@@@@U?$less@H@std@@V?$allocator@U?$pair@$$CBHUSReadyRoom@?$CMatcher@UMATCH_CONDITION_PARTY@@KVCMatcherActionParty@@@@@std@@@4@$0A@@std@@@std@@QAEAAV012@XZ 005013a0 f i MsgProc.obj
 0002:0002e400       ??0const_iterator@?$_Tree@V?$_Tmap_traits@HUSReadyRoom@?$CMatcher@UMATCH_CONDITION_PARTY@@KVCMatcherActionParty@@@@U?$less@H@std@@V?$allocator@U?$pair@$$CBHUSReadyRoom@?$CMatcher@UMATCH_CONDITION_PARTY@@KVCMatcherActionParty@@@@@std@@@4@$0A@@std@@@std@@QAE@PAU_Node@?$_Tree_nod@V?$_Tmap_traits@HUSReadyRoom@?$CMatcher@UMATCH_CONDITION_PARTY@@KVCMatcherActionParty@@@@U?$less@H@std@@V?$allocator@U?$pair@$$CBHUSReadyRoom@?$CMatcher@UMATCH_CONDITION_PARTY@@KVCMatcherActionParty@@@@@std@@@4@$0A@@std@@@2@@Z 00501400 f i MsgProc.obj
 0002:0002e450       ??Dconst_iterator@?$_Tree@V?$_Tmap_traits@HUSReadyRoom@?$CMatcher@UMATCH_CONDITION_PARTY@@KVCMatcherActionParty@@@@U?$less@H@std@@V?$allocator@U?$pair@$$CBHUSReadyRoom@?$CMatcher@UMATCH_CONDITION_PARTY@@KVCMatcherActionParty@@@@@std@@@4@$0A@@std@@@std@@QBEABU?$pair@$$CBHUSReadyRoom@?$CMatcher@UMATCH_CONDITION_PARTY@@KVCMatcherActionParty@@@@@2@XZ 00501450 f i MsgProc.obj
 0002:0002e4b0       ??Econst_iterator@?$_Tree@V?$_Tmap_traits@HUSReadyRoom@?$CMatcher@UMATCH_CONDITION_PARTY@@KVCMatcherActionParty@@@@U?$less@H@std@@V?$allocator@U?$pair@$$CBHUSReadyRoom@?$CMatcher@UMATCH_CONDITION_PARTY@@KVCMatcherActionParty@@@@@std@@@4@$0A@@std@@@std@@QAEAAV012@XZ 005014b0 f i MsgProc.obj
 0002:0002e510       ??0?$pair@Viterator@?$_Tree@V?$_Tmap_traits@HUSReadyRoom@?$CMatcher@UMATCH_CONDITION_PARTY@@KVCMatcherActionParty@@@@U?$less@H@std@@V?$allocator@U?$pair@$$CBHUSReadyRoom@?$CMatcher@UMATCH_CONDITION_PARTY@@KVCMatcherActionParty@@@@@std@@@4@$0A@@std@@@std@@_N@std@@QAE@ABViterator@?$_Tree@V?$_Tmap_traits@HUSReadyRoom@?$CMatcher@UMATCH_CONDITION_PARTY@@KVCMatcherActionParty@@@@U?$less@H@std@@V?$allocator@U?$pair@$$CBHUSReadyRoom@?$CMatcher@UMATCH_CONDITION_PARTY@@KVCMatcherActionParty@@@@@std@@@4@$0A@@std@@@1@AB_N@Z 00501510 f i MsgProc.obj
 0002:0002e570       ??0?$pair@Viterator@?$_Tree@V?$_Tmap_traits@UMATCH_CONDITION_PARTY@@V?$deque@KV?$allocator@K@std@@@std@@U?$less@UMATCH_CONDITION_PARTY@@@3@V?$allocator@U?$pair@$$CBUMATCH_CONDITION_PARTY@@V?$deque@KV?$allocator@K@std@@@std@@@std@@@3@$0A@@std@@@std@@_N@std@@QAE@ABViterator@?$_Tree@V?$_Tmap_traits@UMATCH_CONDITION_PARTY@@V?$deque@KV?$allocator@K@std@@@std@@U?$less@UMATCH_CONDITION_PARTY@@@3@V?$allocator@U?$pair@$$CBUMATCH_CONDITION_PARTY@@V?$deque@KV?$allocator@K@std@@@std@@@std@@@3@$0A@@std@@@1@AB_N@Z 00501570 f i MsgProc.obj
 0002:0002e5d0       ?_Root@?$_Tree@V?$_Tmap_traits@UMATCH_CONDITION_PARTY@@V?$deque@KV?$allocator@K@std@@@std@@U?$less@UMATCH_CONDITION_PARTY@@@3@V?$allocator@U?$pair@$$CBUMATCH_CONDITION_PARTY@@V?$deque@KV?$allocator@K@std@@@std@@@std@@@3@$0A@@std@@@std@@IBEAAPAU_Node@?$_Tree_nod@V?$_Tmap_traits@UMATCH_CONDITION_PARTY@@V?$deque@KV?$allocator@K@std@@@std@@U?$less@UMATCH_CONDITION_PARTY@@@3@V?$allocator@U?$pair@$$CBUMATCH_CONDITION_PARTY@@V?$deque@KV?$allocator@K@std@@@std@@@std@@@3@$0A@@std@@@2@XZ 005015d0 f i MsgProc.obj
 0002:0002e630       ?max_size@?$allocator@U?$pair@$$CBUMATCH_CONDITION_PARTY@@V?$deque@KV?$allocator@K@std@@@std@@@std@@@std@@QBEIXZ 00501630 f i MsgProc.obj
 0002:0002e6a0       ?deallocate@?$allocator@U_Node@?$_Tree_nod@V?$_Tmap_traits@UMATCH_CONDITION_PARTY@@V?$deque@KV?$allocator@K@std@@@std@@U?$less@UMATCH_CONDITION_PARTY@@@3@V?$allocator@U?$pair@$$CBUMATCH_CONDITION_PARTY@@V?$deque@KV?$allocator@K@std@@@std@@@std@@@3@$0A@@std@@@std@@@std@@QAEXPAU_Node@?$_Tree_nod@V?$_Tmap_traits@UMATCH_CONDITION_PARTY@@V?$deque@KV?$allocator@K@std@@@std@@U?$less@UMATCH_CONDITION_PARTY@@@3@V?$allocator@U?$pair@$$CBUMATCH_CONDITION_PARTY@@V?$deque@KV?$allocator@K@std@@@std@@@std@@@3@$0A@@std@@@2@I@Z 005016a0 f i MsgProc.obj
 0002:0002e700       ?allocate@?$allocator@U_Node@?$_Tree_nod@V?$_Tmap_traits@UMATCH_CONDITION_PARTY@@V?$deque@KV?$allocator@K@std@@@std@@U?$less@UMATCH_CONDITION_PARTY@@@3@V?$allocator@U?$pair@$$CBUMATCH_CONDITION_PARTY@@V?$deque@KV?$allocator@K@std@@@std@@@std@@@3@$0A@@std@@@std@@@std@@QAEPAU_Node@?$_Tree_nod@V?$_Tmap_traits@UMATCH_CONDITION_PARTY@@V?$deque@KV?$allocator@K@std@@@std@@U?$less@UMATCH_CONDITION_PARTY@@@3@V?$allocator@U?$pair@$$CBUMATCH_CONDITION_PARTY@@V?$deque@KV?$allocator@K@std@@@std@@@std@@@3@$0A@@std@@@2@I@Z 00501700 f i MsgProc.obj
 0002:0002e760       ?max_size@?$_Tree@V?$_Tmap_traits@HUSReadyRoom@?$CMatcher@UMATCH_CONDITION_PARTY@@KVCMatcherActionParty@@@@U?$less@H@std@@V?$allocator@U?$pair@$$CBHUSReadyRoom@?$CMatcher@UMATCH_CONDITION_PARTY@@KVCMatcherActionParty@@@@@std@@@4@$0A@@std@@@std@@QBEIXZ 00501760 f i MsgProc.obj
 0002:0002e7c0       ?_Root@?$_Tree@V?$_Tmap_traits@HUSReadyRoom@?$CMatcher@UMATCH_CONDITION_PARTY@@KVCMatcherActionParty@@@@U?$less@H@std@@V?$allocator@U?$pair@$$CBHUSReadyRoom@?$CMatcher@UMATCH_CONDITION_PARTY@@KVCMatcherActionParty@@@@@std@@@4@$0A@@std@@@std@@IBEAAPAU_Node@?$_Tree_nod@V?$_Tmap_traits@HUSReadyRoom@?$CMatcher@UMATCH_CONDITION_PARTY@@KVCMatcherActionParty@@@@U?$less@H@std@@V?$allocator@U?$pair@$$CBHUSReadyRoom@?$CMatcher@UMATCH_CONDITION_PARTY@@KVCMatcherActionParty@@@@@std@@@4@$0A@@std@@@2@XZ 005017c0 f i MsgProc.obj
 0002:0002e820       ?_Buynode@?$_Tree@V?$_Tmap_traits@HUSReadyRoom@?$CMatcher@UMATCH_CONDITION_PARTY@@KVCMatcherActionParty@@@@U?$less@H@std@@V?$allocator@U?$pair@$$CBHUSReadyRoom@?$CMatcher@UMATCH_CONDITION_PARTY@@KVCMatcherActionParty@@@@@std@@@4@$0A@@std@@@std@@IAEPAU_Node@?$_Tree_nod@V?$_Tmap_traits@HUSReadyRoom@?$CMatcher@UMATCH_CONDITION_PARTY@@KVCMatcherActionParty@@@@U?$less@H@std@@V?$allocator@U?$pair@$$CBHUSReadyRoom@?$CMatcher@UMATCH_CONDITION_PARTY@@KVCMatcherActionParty@@@@@std@@@4@$0A@@std@@@2@PAU342@00ABU?$pair@$$CBHUSReadyRoom@?$CMatcher@UMATCH_CONDITION_PARTY@@KVCMatcherActionParty@@@@@2@D@Z 00501820 f i MsgProc.obj
 0002:0002e980       ?_Dec@const_iterator@?$_Tree@V?$_Tmap_traits@UMATCH_CONDITION_PARTY@@V?$deque@KV?$allocator@K@std@@@std@@U?$less@UMATCH_CONDITION_PARTY@@@3@V?$allocator@U?$pair@$$CBUMATCH_CONDITION_PARTY@@V?$deque@KV?$allocator@K@std@@@std@@@std@@@3@$0A@@std@@@std@@QAEXXZ 00501980 f i MsgProc.obj
 0002:0002ead0       ?_Inc@const_iterator@?$_Tree@V?$_Tmap_traits@UMATCH_CONDITION_PARTY@@V?$deque@KV?$allocator@K@std@@@std@@U?$less@UMATCH_CONDITION_PARTY@@@3@V?$allocator@U?$pair@$$CBUMATCH_CONDITION_PARTY@@V?$deque@KV?$allocator@K@std@@@std@@@std@@@3@$0A@@std@@@std@@QAEXXZ 00501ad0 f i MsgProc.obj
 0002:0002ebf0       ?destroy@?$allocator@K@std@@QAEXPAK@Z 00501bf0 f i MsgProc.obj
 0002:0002ec50       ?max_size@?$allocator@K@std@@QBEIXZ 00501c50 f i MsgProc.obj
 0002:0002ecc0       ??Dconst_iterator@?$deque@KV?$allocator@K@std@@@std@@QBEABKXZ 00501cc0 f i MsgProc.obj
 0002:0002ed60       ??Gconst_iterator@?$deque@KV?$allocator@K@std@@@std@@QBEHABV012@@Z 00501d60 f i MsgProc.obj
 0002:0002edf0       ??Fconst_iterator@?$_Tree@V?$_Tmap_traits@HUSReadyRoom@?$CMatcher@UMATCH_CONDITION_PARTY@@KVCMatcherActionParty@@@@U?$less@H@std@@V?$allocator@U?$pair@$$CBHUSReadyRoom@?$CMatcher@UMATCH_CONDITION_PARTY@@KVCMatcherActionParty@@@@@std@@@4@$0A@@std@@@std@@QAEAAV012@XZ 00501df0 f i MsgProc.obj
 0002:0002ee50       ?_Inc@const_iterator@?$_Tree@V?$_Tmap_traits@HUSReadyRoom@?$CMatcher@UMATCH_CONDITION_PARTY@@KVCMatcherActionParty@@@@U?$less@H@std@@V?$allocator@U?$pair@$$CBHUSReadyRoom@?$CMatcher@UMATCH_CONDITION_PARTY@@KVCMatcherActionParty@@@@@std@@@4@$0A@@std@@@std@@QAEXXZ 00501e50 f i MsgProc.obj
 0002:0002ef70       ??0_Node@?$_Tree_nod@V?$_Tmap_traits@UMATCH_CONDITION_PARTY@@V?$deque@KV?$allocator@K@std@@@std@@U?$less@UMATCH_CONDITION_PARTY@@@3@V?$allocator@U?$pair@$$CBUMATCH_CONDITION_PARTY@@V?$deque@KV?$allocator@K@std@@@std@@@std@@@3@$0A@@std@@@std@@QAE@PAU012@00ABU?$pair@$$CBUMATCH_CONDITION_PARTY@@V?$deque@KV?$allocator@K@std@@@std@@@2@D@Z 00501f70 f i MsgProc.obj
 0002:0002f010       ??0?$pair@$$CBUMATCH_CONDITION_PARTY@@V?$deque@KV?$allocator@K@std@@@std@@@std@@QAE@ABU01@@Z 00502010 f i MsgProc.obj
 0002:0002f090       ?_Max@?$_Tree@V?$_Tmap_traits@UMATCH_CONDITION_PARTY@@V?$deque@KV?$allocator@K@std@@@std@@U?$less@UMATCH_CONDITION_PARTY@@@3@V?$allocator@U?$pair@$$CBUMATCH_CONDITION_PARTY@@V?$deque@KV?$allocator@K@std@@@std@@@std@@@3@$0A@@std@@@std@@KAPAU_Node@?$_Tree_nod@V?$_Tmap_traits@UMATCH_CONDITION_PARTY@@V?$deque@KV?$allocator@K@std@@@std@@U?$less@UMATCH_CONDITION_PARTY@@@3@V?$allocator@U?$pair@$$CBUMATCH_CONDITION_PARTY@@V?$deque@KV?$allocator@K@std@@@std@@@std@@@3@$0A@@std@@@2@PAU342@@Z 00502090 f i MsgProc.obj
 0002:0002f110       ?_Min@?$_Tree@V?$_Tmap_traits@UMATCH_CONDITION_PARTY@@V?$deque@KV?$allocator@K@std@@@std@@U?$less@UMATCH_CONDITION_PARTY@@@3@V?$allocator@U?$pair@$$CBUMATCH_CONDITION_PARTY@@V?$deque@KV?$allocator@K@std@@@std@@@std@@@3@$0A@@std@@@std@@KAPAU_Node@?$_Tree_nod@V?$_Tmap_traits@UMATCH_CONDITION_PARTY@@V?$deque@KV?$allocator@K@std@@@std@@U?$less@UMATCH_CONDITION_PARTY@@@3@V?$allocator@U?$pair@$$CBUMATCH_CONDITION_PARTY@@V?$deque@KV?$allocator@K@std@@@std@@@std@@@3@$0A@@std@@@2@PAU342@@Z 00502110 f i MsgProc.obj
 0002:0002f190       ?max_size@?$allocator@U?$pair@$$CBHUSReadyRoom@?$CMatcher@UMATCH_CONDITION_PARTY@@KVCMatcherActionParty@@@@@std@@@std@@QBEIXZ 00502190 f i MsgProc.obj
 0002:0002f200       ?allocate@?$allocator@U_Node@?$_Tree_nod@V?$_Tmap_traits@HUSReadyRoom@?$CMatcher@UMATCH_CONDITION_PARTY@@KVCMatcherActionParty@@@@U?$less@H@std@@V?$allocator@U?$pair@$$CBHUSReadyRoom@?$CMatcher@UMATCH_CONDITION_PARTY@@KVCMatcherActionParty@@@@@std@@@4@$0A@@std@@@std@@@std@@QAEPAU_Node@?$_Tree_nod@V?$_Tmap_traits@HUSReadyRoom@?$CMatcher@UMATCH_CONDITION_PARTY@@KVCMatcherActionParty@@@@U?$less@H@std@@V?$allocator@U?$pair@$$CBHUSReadyRoom@?$CMatcher@UMATCH_CONDITION_PARTY@@KVCMatcherActionParty@@@@@std@@@4@$0A@@std@@@2@I@Z 00502200 f i MsgProc.obj
 0002:0002f260       ??0?$deque@KV?$allocator@K@std@@@std@@QAE@ABV01@@Z 00502260 f i MsgProc.obj
 0002:0002f3e0       ?GetPacketSize@CTWS_WORLD_LOGIN@@QAEKXZ 005023e0 f i MsgProc.obj
 0002:0002f420       ?_Dec@const_iterator@?$_Tree@V?$_Tmap_traits@HUSReadyRoom@?$CMatcher@UMATCH_CONDITION_PARTY@@KVCMatcherActionParty@@@@U?$less@H@std@@V?$allocator@U?$pair@$$CBHUSReadyRoom@?$CMatcher@UMATCH_CONDITION_PARTY@@KVCMatcherActionParty@@@@@std@@@4@$0A@@std@@@std@@QAEXXZ 00502420 f i MsgProc.obj
 0002:0002f570       ??0_Node@?$_Tree_nod@V?$_Tmap_traits@HUSReadyRoom@?$CMatcher@UMATCH_CONDITION_PARTY@@KVCMatcherActionParty@@@@U?$less@H@std@@V?$allocator@U?$pair@$$CBHUSReadyRoom@?$CMatcher@UMATCH_CONDITION_PARTY@@KVCMatcherActionParty@@@@@std@@@4@$0A@@std@@@std@@QAE@PAU012@00ABU?$pair@$$CBHUSReadyRoom@?$CMatcher@UMATCH_CONDITION_PARTY@@KVCMatcherActionParty@@@@@2@D@Z 00502570 f i MsgProc.obj
 0002:0002f620       ?begin@?$deque@KV?$allocator@K@std@@@std@@QBE?AVconst_iterator@12@XZ 00502620 f i MsgProc.obj
 0002:0002f690       ?end@?$deque@KV?$allocator@K@std@@@std@@QBE?AVconst_iterator@12@XZ 00502690 f i MsgProc.obj
 0002:0002f700       ??$make_pair@UMATCH_CONDITION_PARTY@@V?$deque@KV?$allocator@K@std@@@std@@@std@@YA?AU?$pair@UMATCH_CONDITION_PARTY@@V?$deque@KV?$allocator@K@std@@@std@@@0@UMATCH_CONDITION_PARTY@@V?$deque@KV?$allocator@K@std@@@0@@Z 00502700 f i MsgProc.obj
 0002:0002f7c0       ??$?0UMATCH_CONDITION_PARTY@@V?$deque@KV?$allocator@K@std@@@std@@@?$pair@$$CBUMATCH_CONDITION_PARTY@@V?$deque@KV?$allocator@K@std@@@std@@@std@@QAE@ABU?$pair@UMATCH_CONDITION_PARTY@@V?$deque@KV?$allocator@K@std@@@std@@@1@@Z 005027c0 f i MsgProc.obj
 0002:0002f840       ??$find@Viterator@?$deque@KV?$allocator@K@std@@@std@@K@std@@YA?AViterator@?$deque@KV?$allocator@K@std@@@0@V120@0ABK@Z 00502840 f i MsgProc.obj
 0002:0002f8e0       ??$make_pair@HUSReadyRoom@?$CMatcher@UMATCH_CONDITION_PARTY@@KVCMatcherActionParty@@@@@std@@YA?AU?$pair@HUSReadyRoom@?$CMatcher@UMATCH_CONDITION_PARTY@@KVCMatcherActionParty@@@@@0@HUSReadyRoom@?$CMatcher@UMATCH_CONDITION_PARTY@@KVCMatcherActionParty@@@@@Z 005028e0 f i MsgProc.obj
 0002:0002f940       ??$?0HUSReadyRoom@?$CMatcher@UMATCH_CONDITION_PARTY@@KVCMatcherActionParty@@@@@?$pair@$$CBHUSReadyRoom@?$CMatcher@UMATCH_CONDITION_PARTY@@KVCMatcherActionParty@@@@@std@@QAE@ABU?$pair@HUSReadyRoom@?$CMatcher@UMATCH_CONDITION_PARTY@@KVCMatcherActionParty@@@@@1@@Z 00502940 f i MsgProc.obj
 0002:0002f9c0       ??$swap@D@std@@YAXAAD0@Z   005029c0 f i MsgProc.obj
 0002:0002fa10       ??$_Destroy@U_Node@?$_Tree_nod@V?$_Tmap_traits@HUSReadyRoom@?$CMatcher@UMATCH_CONDITION_PARTY@@KVCMatcherActionParty@@@@U?$less@H@std@@V?$allocator@U?$pair@$$CBHUSReadyRoom@?$CMatcher@UMATCH_CONDITION_PARTY@@KVCMatcherActionParty@@@@@std@@@4@$0A@@std@@@std@@@std@@YAXPAU_Node@?$_Tree_nod@V?$_Tmap_traits@HUSReadyRoom@?$CMatcher@UMATCH_CONDITION_PARTY@@KVCMatcherActionParty@@@@U?$less@H@std@@V?$allocator@U?$pair@$$CBHUSReadyRoom@?$CMatcher@UMATCH_CONDITION_PARTY@@KVCMatcherActionParty@@@@@std@@@4@$0A@@std@@@0@@Z 00502a10 f i MsgProc.obj
 0002:0002fa40       ??$copy_backward@Viterator@?$deque@KV?$allocator@K@std@@@std@@V123@@std@@YA?AViterator@?$deque@KV?$allocator@K@std@@@0@V120@00@Z 00502a40 f i MsgProc.obj
 0002:0002fae0       ??$copy@Viterator@?$deque@KV?$allocator@K@std@@@std@@V123@@std@@YA?AViterator@?$deque@KV?$allocator@K@std@@@0@V120@00@Z 00502ae0 f i MsgProc.obj
 0002:0002fb80       ??$_Uninitialized_copy@PAPAKPAPAKV?$allocator@PAK@std@@@std@@YAPAPAKPAPAK00AAV?$allocator@PAK@0@@Z 00502b80 f i MsgProc.obj
 0002:0002fc00       ??$_Uninitialized_fill_n@PAPAKIPAKV?$allocator@PAK@std@@@std@@YAXPAPAKIABQAKAAV?$allocator@PAK@0@@Z 00502c00 f i MsgProc.obj
 0002:0002fc80       ??$_Destroy_range@PAKV?$allocator@PAK@std@@@std@@YAXPAPAK0AAV?$allocator@PAK@0@@Z 00502c80 f i MsgProc.obj
 0002:0002fd00       ??$_Allocate@K@std@@YAPAKIPAK@Z 00502d00 f i MsgProc.obj
 0002:0002fd60       ??$_Construct@KK@std@@YAXPAKABK@Z 00502d60 f i MsgProc.obj
 0002:0002fe00       ??$?0K@?$allocator@PAK@std@@QAE@ABV?$allocator@K@1@@Z 00502e00 f i MsgProc.obj
 0002:0002fe40       ??$_Allocate@PAK@std@@YAPAPAKIPAPAK@Z 00502e40 f i MsgProc.obj
 0002:0002fea0       ??$_Destroy@PAK@std@@YAXPAPAK@Z 00502ea0 f i MsgProc.obj
 0002:0002fed0       ??$_Allocate@U_Node@?$_Tree_nod@V?$_Tmap_traits@UMATCH_CONDITION_PARTY@@V?$deque@KV?$allocator@K@std@@@std@@U?$less@UMATCH_CONDITION_PARTY@@@3@V?$allocator@U?$pair@$$CBUMATCH_CONDITION_PARTY@@V?$deque@KV?$allocator@K@std@@@std@@@std@@@3@$0A@@std@@@std@@@std@@YAPAU_Node@?$_Tree_nod@V?$_Tmap_traits@UMATCH_CONDITION_PARTY@@V?$deque@KV?$allocator@K@std@@@std@@U?$less@UMATCH_CONDITION_PARTY@@@3@V?$allocator@U?$pair@$$CBUMATCH_CONDITION_PARTY@@V?$deque@KV?$allocator@K@std@@@std@@@std@@@3@$0A@@std@@@0@IPAU120@@Z 00502ed0 f i MsgProc.obj
 0002:0002ff30       ??$_Destroy@K@std@@YAXPAK@Z 00502f30 f i MsgProc.obj
 0002:0002ff60       ??$_Allocate@U_Node@?$_Tree_nod@V?$_Tmap_traits@HUSReadyRoom@?$CMatcher@UMATCH_CONDITION_PARTY@@KVCMatcherActionParty@@@@U?$less@H@std@@V?$allocator@U?$pair@$$CBHUSReadyRoom@?$CMatcher@UMATCH_CONDITION_PARTY@@KVCMatcherActionParty@@@@@std@@@4@$0A@@std@@@std@@@std@@YAPAU_Node@?$_Tree_nod@V?$_Tmap_traits@HUSReadyRoom@?$CMatcher@UMATCH_CONDITION_PARTY@@KVCMatcherActionParty@@@@U?$less@H@std@@V?$allocator@U?$pair@$$CBHUSReadyRoom@?$CMatcher@UMATCH_CONDITION_PARTY@@KVCMatcherActionParty@@@@@std@@@4@$0A@@std@@@0@IPAU120@@Z 00502f60 f i MsgProc.obj
 0002:0002ffc0       ??$insert@Vconst_iterator@?$deque@KV?$allocator@K@std@@@std@@@?$deque@KV?$allocator@K@std@@@std@@QAEXViterator@01@Vconst_iterator@01@1@Z 00502fc0 f i MsgProc.obj
 0002:00030050       ??0?$pair@UMATCH_CONDITION_PARTY@@V?$deque@KV?$allocator@K@std@@@std@@@std@@QAE@ABUMATCH_CONDITION_PARTY@@ABV?$deque@KV?$allocator@K@std@@@1@@Z 00503050 f i MsgProc.obj
 0002:000300d0       ??Eiterator@?$deque@KV?$allocator@K@std@@@std@@QAEAAV012@XZ 005030d0 f i MsgProc.obj
 0002:00030120       ??0?$pair@HUSReadyRoom@?$CMatcher@UMATCH_CONDITION_PARTY@@KVCMatcherActionParty@@@@@std@@QAE@ABHABUSReadyRoom@?$CMatcher@UMATCH_CONDITION_PARTY@@KVCMatcherActionParty@@@@@Z 00503120 f i MsgProc.obj
 0002:000301a0       ??$_Ptr_cat@Viterator@?$deque@KV?$allocator@K@std@@@std@@V123@@std@@YA?AU_Nonscalar_ptr_iterator_tag@0@AAViterator@?$deque@KV?$allocator@K@std@@@0@0@Z 005031a0 f i MsgProc.obj
 0002:00030210       ??$_Copy_backward_opt@Viterator@?$deque@KV?$allocator@K@std@@@std@@V123@@std@@YA?AViterator@?$deque@KV?$allocator@K@std@@@0@V120@00U_Nonscalar_ptr_iterator_tag@0@@Z 00503210 f i MsgProc.obj
 0002:000302b0       ??$_Copy_opt@Viterator@?$deque@KV?$allocator@K@std@@@std@@V123@@std@@YA?AViterator@?$deque@KV?$allocator@K@std@@@0@V120@00U_Nonscalar_ptr_iterator_tag@0@@Z 005032b0 f i MsgProc.obj
 0002:00030350       ??$_Ptr_cat@K@std@@YA?AU_Scalar_ptr_iterator_tag@0@PAPAK0@Z 00503350 f i MsgProc.obj
 0002:000303c0       ??$_Uninit_copy@PAKPAK@std@@YAPAPAKPAPAK00AAV?$allocator@PAK@0@U_Scalar_ptr_iterator_tag@0@@Z 005033c0 f i MsgProc.obj
 0002:00030440       ??$_Uninit_fill_n@PAKIPAK@std@@YAXPAPAKIABQAKAAV?$allocator@PAK@0@U_Scalar_ptr_iterator_tag@0@@Z 00503440 f i MsgProc.obj
 0002:000304a0       ??$_Destroy_range@PAKV?$allocator@PAK@std@@@std@@YAXPAPAK0AAV?$allocator@PAK@0@U_Scalar_ptr_iterator_tag@0@@Z 005034a0 f i MsgProc.obj
 0002:000304d0       ??$_Iter_cat@Vconst_iterator@?$deque@KV?$allocator@K@std@@@std@@@std@@YA?AUrandom_access_iterator_tag@0@ABVconst_iterator@?$deque@KV?$allocator@K@std@@@0@@Z 005034d0 f i MsgProc.obj
 0002:00030540       ??$_Insert@Vconst_iterator@?$deque@KV?$allocator@K@std@@@std@@@?$deque@KV?$allocator@K@std@@@std@@QAEXViterator@01@Vconst_iterator@01@1Ubidirectional_iterator_tag@1@@Z 00503540 f i MsgProc.obj
 0002:00030dc0       ?push_front@?$deque@KV?$allocator@K@std@@@std@@QAEXABK@Z 00503dc0 f i MsgProc.obj
 0002:00030f20       ??Fiterator@?$deque@KV?$allocator@K@std@@@std@@QAEAAV012@XZ 00503f20 f i MsgProc.obj
 0002:00030f70       ??Giterator@?$deque@KV?$allocator@K@std@@@std@@QBE?AV012@H@Z 00503f70 f i MsgProc.obj
 0002:00031020       ??Aiterator@?$deque@KV?$allocator@K@std@@@std@@QBEAAKH@Z 00504020 f i MsgProc.obj
 0002:00031090       ??Econst_iterator@?$deque@KV?$allocator@K@std@@@std@@QAEAAV012@XZ 00504090 f i MsgProc.obj
 0002:000310e0       ??Fconst_iterator@?$deque@KV?$allocator@K@std@@@std@@QAEAAV012@XZ 005040e0 f i MsgProc.obj
 0002:00031130       ??Ziterator@?$deque@KV?$allocator@K@std@@@std@@QAEAAV012@H@Z 00504130 f i MsgProc.obj
 0002:00031190       ??$fill_n@PAPAKIPAK@std@@YAXPAPAKIABQAK@Z 00504190 f i MsgProc.obj
 0002:000311f0       ??$_Distance@Vconst_iterator@?$deque@KV?$allocator@K@std@@@std@@I@std@@YAXVconst_iterator@?$deque@KV?$allocator@K@std@@@0@0AAI@Z 005041f0 f i MsgProc.obj
 0002:00031270       ??$advance@Vconst_iterator@?$deque@KV?$allocator@K@std@@@std@@I@std@@YAXAAVconst_iterator@?$deque@KV?$allocator@K@std@@@0@I@Z 00504270 f i MsgProc.obj
 0002:000312e0       ??$copy@Vconst_iterator@?$deque@KV?$allocator@K@std@@@std@@Viterator@23@@std@@YA?AViterator@?$deque@KV?$allocator@K@std@@@0@Vconst_iterator@20@0V120@@Z 005042e0 f i MsgProc.obj
 0002:00031380       ??$_Distance2@Vconst_iterator@?$deque@KV?$allocator@K@std@@@std@@I@std@@YAXVconst_iterator@?$deque@KV?$allocator@K@std@@@0@0AAIUrandom_access_iterator_tag@0@@Z 00504380 f i MsgProc.obj
 0002:000313e0       ??$_Advance@Vconst_iterator@?$deque@KV?$allocator@K@std@@@std@@I@std@@YAXAAVconst_iterator@?$deque@KV?$allocator@K@std@@@0@IUrandom_access_iterator_tag@0@@Z 005043e0 f i MsgProc.obj
 0002:00031430       ??$_Ptr_cat@Vconst_iterator@?$deque@KV?$allocator@K@std@@@std@@Viterator@23@@std@@YA?AU_Nonscalar_ptr_iterator_tag@0@AAVconst_iterator@?$deque@KV?$allocator@K@std@@@0@AAViterator@30@@Z 00504430 f i MsgProc.obj
 0002:000314a0       ??$_Copy_opt@Vconst_iterator@?$deque@KV?$allocator@K@std@@@std@@Viterator@23@@std@@YA?AViterator@?$deque@KV?$allocator@K@std@@@0@Vconst_iterator@20@0V120@U_Nonscalar_ptr_iterator_tag@0@@Z 005044a0 f i MsgProc.obj
 0002:00031540       ??Yconst_iterator@?$deque@KV?$allocator@K@std@@@std@@QAEAAV012@H@Z 00504540 f i MsgProc.obj
 0002:00031590       ?what@logic_error@std@@UBEPBDXZ 00504590 f i MsgProc.obj
 0002:000315f0       ??_Glogic_error@std@@UAEPAXI@Z 005045f0 f i MsgProc.obj
 0002:000315f0       ??_Elogic_error@std@@UAEPAXI@Z 005045f0 f i MsgProc.obj
 0002:00031660       ??1logic_error@std@@UAE@XZ 00504660 f i MsgProc.obj
 0002:00031700       ??0length_error@std@@QAE@ABV?$basic_string@DU?$char_traits@D@std@@V?$allocator@D@2@@1@@Z 00504700 f i MsgProc.obj
 0002:00031770       ??0logic_error@std@@QAE@ABV?$basic_string@DU?$char_traits@D@std@@V?$allocator@D@2@@1@@Z 00504770 f i MsgProc.obj
 0002:00031820       ??1length_error@std@@UAE@XZ 00504820 f i MsgProc.obj
 0002:00031880       ??_Elength_error@std@@UAEPAXI@Z 00504880 f i MsgProc.obj
 0002:00031880       ??_Glength_error@std@@UAEPAXI@Z 00504880 f i MsgProc.obj
 0002:000318f0       ??0out_of_range@std@@QAE@ABV?$basic_string@DU?$char_traits@D@std@@V?$allocator@D@2@@1@@Z 005048f0 f i MsgProc.obj
 0002:00031960       ??1out_of_range@std@@UAE@XZ 00504960 f i MsgProc.obj
 0002:000319c0       ??_Gout_of_range@std@@UAEPAXI@Z 005049c0 f i MsgProc.obj
 0002:000319c0       ??_Eout_of_range@std@@UAEPAXI@Z 005049c0 f i MsgProc.obj
 0002:00031a30       ??0WSTDS_ADD_USER_ACCEPT_ALLOWED@@QAE@XZ 00504a30 f i MsgProc.obj
 0002:00031a80       ?GetPacketSize@WSTDS_ADD_USER_ACCEPT_ALLOWED@@QAEKXZ 00504a80 f i MsgProc.obj
 0002:00031ac0       ??0WSTDS_PARTY_PORTAL@@QAE@XZ 00504ac0 f i MsgProc.obj
 0002:00031b10       ?GetPacketSize@WSTDS_PARTY_PORTAL@@QAEKXZ 00504b10 f i MsgProc.obj
 0002:00031b50       ??0WSTDS_NOTICE_ACTION@@QAE@XZ 00504b50 f i MsgProc.obj
 0002:00031ba0       ?GetPacketSize@WSTDS_NOTICE_ACTION@@QAEKXZ 00504ba0 f i MsgProc.obj
 0002:00031bf0       ??0WSTDS_USER_PORTAL@@QAE@XZ 00504bf0 f i MsgProc.obj
 0002:00031c60       ??0tagDungeonMoveInfo@@QAE@XZ 00504c60 f i MsgProc.obj
 0002:00031cd0       ?GetPacketSize@WSTDS_USER_PORTAL@@QAEKXZ 00504cd0 f i MsgProc.obj
 0002:00031d10       ??0CTWS_REQUEST_DUNGEON_INFO@@QAE@XZ 00504d10 f i MsgProc.obj
 0002:00031d60       ?GetPacketSize@CTWS_REQUEST_DUNGEON_INFO@@QAEKXZ 00504d60 f i MsgProc.obj
 0002:00031da0       ??0WSTC_REPLY_DUNGEON_INFO@@QAE@XZ 00504da0 f i MsgProc.obj
 0002:00031e10       ?GetPacketSize@WSTC_REPLY_DUNGEON_INFO@@QAEKXZ 00504e10 f i MsgProc.obj
 0002:00031e70       ?GetPacketSize@CTWS_TRY_TO_JOIN_DUNGEON@@QAEKXZ 00504e70 f i MsgProc.obj
 0002:00031eb0       ??0WSTC_DUNGEON_JOIN_FAILED@@QAE@XZ 00504eb0 f i MsgProc.obj
 0002:00031f00       ?GetPacketSize@WSTC_DUNGEON_JOIN_FAILED@@QAEKXZ 00504f00 f i MsgProc.obj
 0002:00031f40       ?GetPacketSize@CTWS_REFRESH_RECENT_DUNGEON@@QAEKXZ 00504f40 f i MsgProc.obj
 0002:00031f80       ??0WSTC_EVENT_DUNGEON_INFO@@QAE@XZ 00504f80 f i MsgProc.obj
 0002:00031fd0       ?GetPacketSize@WSTC_EVENT_DUNGEON_INFO@@QAEKXZ 00504fd0 f i MsgProc.obj
 0002:00032010       ?GetPacketSize@CTWS_REQUEST_OWN_DUNGEON_INFO@@QAEKXZ 00505010 f i MsgProc.obj
 0002:00032050       ??0WSTC_EVENT_DUNGEON_STATE_INFO@@QAE@XZ 00505050 f i MsgProc.obj
 0002:000320a0       ?GetPacketSize@WSTC_EVENT_DUNGEON_STATE_INFO@@QAEKXZ 005050a0 f i MsgProc.obj
 0002:000320e0       ?GetPacketSize@CTWS_QUERY_EVENT_DUNGEON_INFO@@QAEKXZ 005050e0 f i MsgProc.obj
 0002:00032120       ?GetPacketSize@CTWS_GO_TO_WORLD_SUCCESS@@QAEKXZ 00505120 f i MsgProc.obj
 0002:00032160       ??0WSTC_WORLD_APPEAR@@QAE@XZ 00505160 f i MsgProc.obj
 0002:000321b0       ?GetPacketSize@WSTC_WORLD_APPEAR@@QAEKXZ 005051b0 f i MsgProc.obj
 0002:000321f0       ??0WSTC_WORLD_PARTY_USER_INFO@@QAE@XZ 005051f0 f i MsgProc.obj
 0002:00032240       ?GetPacketSize@WSTC_WORLD_PARTY_USER_INFO@@QAEKXZ 00505240 f i MsgProc.obj
 0002:00032290       ?GetPacketSize@CTWS_NEW_GM_COMMAND@@QAEKXZ 00505290 f i MsgProc.obj
 0002:000322d0       ?GetPacketSize@CTWS_CHECK_MONITORING@@QAEKXZ 005052d0 f i MsgProc.obj
 0002:00032310       ?GetPacketSize@WSTC_WS_CHAT@@QAEKXZ 00505310 f i MsgProc.obj
 0002:00032350       ??0WSTC_CHAT_WHISPER@@QAE@XZ 00505350 f i MsgProc.obj
 0002:000323a0       ?GetPacketSize@WSTC_CHAT_WHISPER@@QAEKXZ 005053a0 f i MsgProc.obj
 0002:000323e0       ?GetPacketSize@WSTC_DS_CHAT@@QAEKXZ 005053e0 f i MsgProc.obj
 0002:00032420       ??0WSTC_CHAT_COMMAND@@QAE@XZ 00505420 f i MsgProc.obj
 0002:00032490       ?GetPacketSize@WSTC_CHAT_COMMAND@@QAEKXZ 00505490 f i MsgProc.obj
 0002:00032510       ??0CTWS_DSCHAT_COMMAND@@QAE@XZ 00505510 f i MsgProc.obj
 0002:00032580       ?GetPacketSize@CTWS_DSCHAT_COMMAND@@QAEKXZ 00505580 f i MsgProc.obj
 0002:00032600       ?GetPacketSize@CTWS_CHAT_MESSAGERQ@@QAEKXZ 00505600 f i MsgProc.obj
 0002:00032640       ?GetPacketSize@WSTC_CHAT_USER@@QAEKXZ 00505640 f i MsgProc.obj
 0002:000326c0       ?GetPacketSize@CTWS_DGCHAT_USER@@QAEKXZ 005056c0 f i MsgProc.obj
 0002:00032740       ??0WSTC_DSCHAT_WHISPER@@QAE@XZ 00505740 f i MsgProc.obj
 0002:000327b0       ?GetPacketSize@WSTC_DSCHAT_WHISPER@@QAEKXZ 005057b0 f i MsgProc.obj
 0002:00032830       ??0WSTC_DGCHAT_USER@@QAE@XZ 00505830 f i MsgProc.obj
 0002:000328a0       ?GetPacketSize@WSTC_DGCHAT_USER@@QAEKXZ 005058a0 f i MsgProc.obj
 0002:00032920       ??0CTWS_PARTY_APPROVE@@QAE@XZ 00505920 f i MsgProc.obj
 0002:00032970       ?GetPacketSize@CTWS_PARTY_APPROVE@@QAEKXZ 00505970 f i MsgProc.obj
 0002:000329b0       ?GetPacketSize@CTWS_SKILL_KEY@@QAEKXZ 005059b0 f i MsgProc.obj
 0002:000329f0       ?GetPacketSize@CTWS_COMMAND_MSG@@QAEKXZ 005059f0 f i MsgProc.obj
 0002:00032a30       ??0WSTC_COMMAND_MSG@@QAE@XZ 00505a30 f i MsgProc.obj
 0002:00032a80       ?GetPacketSize@WSTC_COMMAND_MSG@@QAEKXZ 00505a80 f i MsgProc.obj
 0002:00032ac0       ?GetPacketSize@WSTC_HELP_INFO@@QAEKXZ 00505ac0 f i MsgProc.obj
 0002:00032b00       ?GetPacketSize@CTWS_CHARACTER_SEARCH@@QAEKXZ 00505b00 f i MsgProc.obj
 0002:00032b40       ?GetPacketSize@CTWS_KICK_USER@@QAEKXZ 00505b40 f i MsgProc.obj
 0002:00032b80       ?GetPacketSize@CTWS_LOADING_STATUS@@QAEKXZ 00505b80 f i MsgProc.obj
 0002:00032bc0       ?GetPacketSize@CTWS_CHECK_GM@@QAEKXZ 00505bc0 f i MsgProc.obj
 0002:00032c00       ??0WSTC_PMATCH_REGISTER_RESULT@@QAE@XZ 00505c00 f i MsgProc.obj
 0002:00032c50       ?GetPacketSize@WSTC_PMATCH_REGISTER_RESULT@@QAEKXZ 00505c50 f i MsgProc.obj
 0002:00032c90       ??0WSTC_PMATCH_ESCAPE_RESULT@@QAE@XZ 00505c90 f i MsgProc.obj
 0002:00032ce0       ?GetPacketSize@WSTC_PMATCH_ESCAPE_RESULT@@QAEKXZ 00505ce0 f i MsgProc.obj
 0002:00032d20       ??0WSTC_PMATCH_REQUEST@@QAE@XZ 00505d20 f i MsgProc.obj
 0002:00032d70       ?GetPacketSize@WSTC_PMATCH_REQUEST@@QAEKXZ 00505d70 f i MsgProc.obj
 0002:00032db0       ??0?$basic_string@DU?$char_traits@D@std@@V?$allocator@D@2@@std@@QAE@ABV01@@Z 00505db0 f i MsgProc.obj
 0002:00032e40       ?c_str@?$basic_string@DU?$char_traits@D@std@@V?$allocator@D@2@@std@@QBEPBDXZ 00505e40 f i MsgProc.obj
 0002:00032e90       ??0CNameSearchTable@@QAE@K@Z 00505e90 f   NameSearchTable.obj
 0002:00032f80       ?Add@CNameSearchTable@@QAEHPAVCWorldUser@@@Z 00505f80 f   NameSearchTable.obj
 0002:000331b0       ?GetUserInfo@CNameSearchTable@@QAEPAVCWorldUser@@PBD@Z 005061b0 f   NameSearchTable.obj
 0002:000332e0       ?GetUserInfoWithoutCase@CNameSearchTable@@QAEPAVCWorldUser@@PBD@Z 005062e0 f   NameSearchTable.obj
 0002:00033410       ?Remove@CNameSearchTable@@QAEXPBD@Z 00506410 f   NameSearchTable.obj
 0002:000335e0       ??1CNameSearchTable@@QAE@XZ 005065e0 f   NameSearchTable.obj
 0002:000336a0       ?RemoveNameSearchTable@CNameSearchTable@@QAEXXZ 005066a0 f   NameSearchTable.obj
 0002:00033780       ?CompareStr@CNameSearchTable@@AAEHPBD0@Z 00506780 f   NameSearchTable.obj
 0002:000337f0       ?CompareStrWithoutCase@CNameSearchTable@@AAEHPBD0@Z 005067f0 f   NameSearchTable.obj
 0002:00033860       ?BuildHashKey@CNameSearchTable@@QAEIPAD@Z 00506860 f i NameSearchTable.obj
 0002:000338f0       ??0CNetworkTimeObserverServer@@QAE@XZ 005068f0 f   Ntos.obj
 0002:00033950       ??1CNetworkTimeObserverServer@@QAE@XZ 00506950 f   Ntos.obj
 0002:00033990       ?Init@CNetworkTimeObserverServer@@AAEXXZ 00506990 f   Ntos.obj
 0002:00033a00       ?DebugRemainInfo@CNetworkTimeObserverServer@@AAEXXZ 00506a00 f   Ntos.obj
 0002:00033ae0       ?Initialize@CNetworkTimeObserverServer@@QAEXXZ 00506ae0 f   Ntos.obj
 0002:00033b50       ?GetTimerNum@CNetworkTimeObserverServer@@QAEHPAK@Z 00506b50 f   Ntos.obj
 0002:00033bb0       ?GetMaxOverTick@CNetworkTimeObserverServer@@QAEHPAK@Z 00506bb0 f   Ntos.obj
 0002:00033c20       ?SetMaxOverTick@CNetworkTimeObserverServer@@QAEHK@Z 00506c20 f   Ntos.obj
 0002:00033c80       ?GetInterval@CNetworkTimeObserverServer@@QAEHPAK@Z 00506c80 f   Ntos.obj
 0002:00033cf0       ?SetInterval@CNetworkTimeObserverServer@@QAEHK@Z 00506cf0 f   Ntos.obj
 0002:00033d50       ?Begin@CNetworkTimeObserverServer@@QAEHXZ 00506d50 f   Ntos.obj
 0002:00033db0       ?End@CNetworkTimeObserverServer@@QAEHXZ 00506db0 f   Ntos.obj
 0002:00033e40       ?RemoveTimer@CNetworkTimeObserverServer@@QAEHPAUNTOS_INFO@@@Z 00506e40 f   Ntos.obj
 0002:00033eb0       ?AddTimer@CNetworkTimeObserverServer@@QAEHPAUNTOS_INFO@@@Z 00506eb0 f   Ntos.obj
 0002:00033f20       ?Sync@CNetworkTimeObserverServer@@QAEHPAUNTOS_INFO@@@Z 00506f20 f   Ntos.obj
 0002:00033fb0       ?Ack_Check@CNetworkTimeObserverServer@@QAEHPAUNTOS_INFO@@KPAH@Z 00506fb0 f   Ntos.obj
 0002:00034100       ?TimerSync@@YAXPAVCWorldUser@@@Z 00507100 f   Ntos.obj
 0002:00034210       ?CmdTimerReady@@YAXPAVCWorldUser@@PADK@Z 00507210 f   Ntos.obj
 0002:00034260       ?CmdTimerAck@@YAXPAVCWorldUser@@PADK@Z 00507260 f   Ntos.obj
 0002:00034370       ?DBLog_SpeedHackUser@@YAXPAVCWorldUser@@K@Z 00507370 f   Ntos.obj
 0002:000344a0       ?KickSpeedHackUser@@YAXPAVCWorldUser@@@Z 005074a0 f   Ntos.obj
 0002:00034600       ??0WSTC_TIMER_SYNC@@QAE@XZ 00507600 f i Ntos.obj
 0002:00034650       ?GetPacketSize@WSTC_TIMER_SYNC@@QAEKXZ 00507650 f i Ntos.obj
 0002:00034690       ??0COwnServer@@QAE@XZ      00507690 f   OwnServer.obj
 0002:000347c0       ??0CPKUserList@@QAE@XZ     005077c0 f i OwnServer.obj
 0002:00034820       ??1COwnServer@@QAE@XZ      00507820 f   OwnServer.obj
 0002:00034910       ??_GCPKUserList@@QAEPAXI@Z 00507910 f i OwnServer.obj
 0002:00034980       ??1CPKUserList@@QAE@XZ     00507980 f i OwnServer.obj
 0002:000349d0       ?CreateSCode@COwnServer@@AAEXXZ 005079d0 f   OwnServer.obj
 0002:00034ac0       ?GetLocalAddress@COwnServer@@QAEHPAD@Z 00507ac0 f   OwnServer.obj
 0002:00034ca0       ?Initialize@COwnServer@@QAEHPAD@Z 00507ca0 f   OwnServer.obj
 0002:00035110       ?InitializeDecodeCFG@COwnServer@@QAEHPAD@Z 00508110 f   OwnServer.obj
 0002:00035400       ?ToggleServerStatus@COwnServer@@QAEHXZ 00508400 f   OwnServer.obj
 0002:00035480       ?ToggleUserAccept@COwnServer@@QAEHXZ 00508480 f   OwnServer.obj
 0002:00035540       ??M@YA_NABUMATCH_CONDITION_PARTY@@0@Z 00508540 f   PartyMatcher.obj
 0002:000355e0       ??0?$CMatcher@UMATCH_CONDITION_PARTY@@KVCMatcherActionParty@@@@QAE@XZ 005085e0 f i PartyMatcher.obj
 0002:00035680       ??1?$map@UMATCH_CONDITION_PARTY@@V?$deque@KV?$allocator@K@std@@@std@@U?$less@UMATCH_CONDITION_PARTY@@@3@V?$allocator@U?$pair@$$CBUMATCH_CONDITION_PARTY@@V?$deque@KV?$allocator@K@std@@@std@@@std@@@3@@std@@QAE@XZ 00508680 f i PartyMatcher.obj
 0002:000356d0       ??0?$map@UMATCH_CONDITION_PARTY@@V?$deque@KV?$allocator@K@std@@@std@@U?$less@UMATCH_CONDITION_PARTY@@@3@V?$allocator@U?$pair@$$CBUMATCH_CONDITION_PARTY@@V?$deque@KV?$allocator@K@std@@@std@@@std@@@3@@std@@QAE@XZ 005086d0 f i PartyMatcher.obj
 0002:00035740       ??1?$_Tree@V?$_Tmap_traits@UMATCH_CONDITION_PARTY@@V?$deque@KV?$allocator@K@std@@@std@@U?$less@UMATCH_CONDITION_PARTY@@@3@V?$allocator@U?$pair@$$CBUMATCH_CONDITION_PARTY@@V?$deque@KV?$allocator@K@std@@@std@@@std@@@3@$0A@@std@@@std@@QAE@XZ 00508740 f i PartyMatcher.obj
 0002:00035790       ??0?$map@HUSReadyRoom@?$CMatcher@UMATCH_CONDITION_PARTY@@KVCMatcherActionParty@@@@U?$less@H@std@@V?$allocator@U?$pair@$$CBHUSReadyRoom@?$CMatcher@UMATCH_CONDITION_PARTY@@KVCMatcherActionParty@@@@@std@@@4@@std@@QAE@XZ 00508790 f i PartyMatcher.obj
 0002:00035800       ??0?$_Tree@V?$_Tmap_traits@UMATCH_CONDITION_PARTY@@V?$deque@KV?$allocator@K@std@@@std@@U?$less@UMATCH_CONDITION_PARTY@@@3@V?$allocator@U?$pair@$$CBUMATCH_CONDITION_PARTY@@V?$deque@KV?$allocator@K@std@@@std@@@std@@@3@$0A@@std@@@std@@QAE@ABU?$less@UMATCH_CONDITION_PARTY@@@1@ABV?$allocator@U?$pair@$$CBUMATCH_CONDITION_PARTY@@V?$deque@KV?$allocator@K@std@@@std@@@std@@@1@@Z 00508800 f i PartyMatcher.obj
 0002:00035880       ?_Tidy@?$_Tree@V?$_Tmap_traits@UMATCH_CONDITION_PARTY@@V?$deque@KV?$allocator@K@std@@@std@@U?$less@UMATCH_CONDITION_PARTY@@@3@V?$allocator@U?$pair@$$CBUMATCH_CONDITION_PARTY@@V?$deque@KV?$allocator@K@std@@@std@@@std@@@3@$0A@@std@@@std@@IAEXXZ 00508880 f i PartyMatcher.obj
 0002:000359a0       ??0?$allocator@U?$pair@$$CBUMATCH_CONDITION_PARTY@@V?$deque@KV?$allocator@K@std@@@std@@@std@@@std@@QAE@XZ 005089a0 f i PartyMatcher.obj
 0002:000359e0       ??0?$_Tree@V?$_Tmap_traits@HUSReadyRoom@?$CMatcher@UMATCH_CONDITION_PARTY@@KVCMatcherActionParty@@@@U?$less@H@std@@V?$allocator@U?$pair@$$CBHUSReadyRoom@?$CMatcher@UMATCH_CONDITION_PARTY@@KVCMatcherActionParty@@@@@std@@@4@$0A@@std@@@std@@QAE@ABU?$less@H@1@ABV?$allocator@U?$pair@$$CBHUSReadyRoom@?$CMatcher@UMATCH_CONDITION_PARTY@@KVCMatcherActionParty@@@@@std@@@1@@Z 005089e0 f i PartyMatcher.obj
 0002:00035a60       ??0?$allocator@U?$pair@$$CBHUSReadyRoom@?$CMatcher@UMATCH_CONDITION_PARTY@@KVCMatcherActionParty@@@@@std@@@std@@QAE@XZ 00508a60 f i PartyMatcher.obj
 0002:00035aa0       ?erase@?$_Tree@V?$_Tmap_traits@UMATCH_CONDITION_PARTY@@V?$deque@KV?$allocator@K@std@@@std@@U?$less@UMATCH_CONDITION_PARTY@@@3@V?$allocator@U?$pair@$$CBUMATCH_CONDITION_PARTY@@V?$deque@KV?$allocator@K@std@@@std@@@std@@@3@$0A@@std@@@std@@QAE?AViterator@12@V312@0@Z 00508aa0 f i PartyMatcher.obj
 0002:00035bb0       ?_Init@?$_Tree@V?$_Tmap_traits@UMATCH_CONDITION_PARTY@@V?$deque@KV?$allocator@K@std@@@std@@U?$less@UMATCH_CONDITION_PARTY@@@3@V?$allocator@U?$pair@$$CBUMATCH_CONDITION_PARTY@@V?$deque@KV?$allocator@K@std@@@std@@@std@@@3@$0A@@std@@@std@@IAEXXZ 00508bb0 f i PartyMatcher.obj
 0002:00035c70       ??0?$_Tree_val@V?$_Tmap_traits@UMATCH_CONDITION_PARTY@@V?$deque@KV?$allocator@K@std@@@std@@U?$less@UMATCH_CONDITION_PARTY@@@3@V?$allocator@U?$pair@$$CBUMATCH_CONDITION_PARTY@@V?$deque@KV?$allocator@K@std@@@std@@@std@@@3@$0A@@std@@@std@@IAE@ABU?$less@UMATCH_CONDITION_PARTY@@@1@V?$allocator@U?$pair@$$CBUMATCH_CONDITION_PARTY@@V?$deque@KV?$allocator@K@std@@@std@@@std@@@1@@Z 00508c70 f i PartyMatcher.obj
 0002:00035cf0       ??0?$allocator@U?$pair@$$CBUMATCH_CONDITION_PARTY@@V?$deque@KV?$allocator@K@std@@@std@@@std@@@std@@QAE@ABV01@@Z 00508cf0 f i PartyMatcher.obj
 0002:00035d30       ?destroy@?$allocator@PAU_Node@?$_Tree_nod@V?$_Tmap_traits@UMATCH_CONDITION_PARTY@@V?$deque@KV?$allocator@K@std@@@std@@U?$less@UMATCH_CONDITION_PARTY@@@3@V?$allocator@U?$pair@$$CBUMATCH_CONDITION_PARTY@@V?$deque@KV?$allocator@K@std@@@std@@@std@@@3@$0A@@std@@@std@@@std@@QAEXPAPAU_Node@?$_Tree_nod@V?$_Tmap_traits@UMATCH_CONDITION_PARTY@@V?$deque@KV?$allocator@K@std@@@std@@U?$less@UMATCH_CONDITION_PARTY@@@3@V?$allocator@U?$pair@$$CBUMATCH_CONDITION_PARTY@@V?$deque@KV?$allocator@K@std@@@std@@@std@@@3@$0A@@std@@@2@@Z 00508d30 f i PartyMatcher.obj
 0002:00035d90       ?_Init@?$_Tree@V?$_Tmap_traits@HUSReadyRoom@?$CMatcher@UMATCH_CONDITION_PARTY@@KVCMatcherActionParty@@@@U?$less@H@std@@V?$allocator@U?$pair@$$CBHUSReadyRoom@?$CMatcher@UMATCH_CONDITION_PARTY@@KVCMatcherActionParty@@@@@std@@@4@$0A@@std@@@std@@IAEXXZ 00508d90 f i PartyMatcher.obj
 0002:00035e50       ??0?$_Tree_val@V?$_Tmap_traits@HUSReadyRoom@?$CMatcher@UMATCH_CONDITION_PARTY@@KVCMatcherActionParty@@@@U?$less@H@std@@V?$allocator@U?$pair@$$CBHUSReadyRoom@?$CMatcher@UMATCH_CONDITION_PARTY@@KVCMatcherActionParty@@@@@std@@@4@$0A@@std@@@std@@IAE@ABU?$less@H@1@V?$allocator@U?$pair@$$CBHUSReadyRoom@?$CMatcher@UMATCH_CONDITION_PARTY@@KVCMatcherActionParty@@@@@std@@@1@@Z 00508e50 f i PartyMatcher.obj
 0002:00035ed0       ??0?$allocator@U?$pair@$$CBHUSReadyRoom@?$CMatcher@UMATCH_CONDITION_PARTY@@KVCMatcherActionParty@@@@@std@@@std@@QAE@ABV01@@Z 00508ed0 f i PartyMatcher.obj
 0002:00035f10       ?erase@?$_Tree@V?$_Tmap_traits@UMATCH_CONDITION_PARTY@@V?$deque@KV?$allocator@K@std@@@std@@U?$less@UMATCH_CONDITION_PARTY@@@3@V?$allocator@U?$pair@$$CBUMATCH_CONDITION_PARTY@@V?$deque@KV?$allocator@K@std@@@std@@@std@@@3@$0A@@std@@@std@@QAE?AViterator@12@V312@@Z 00508f10 f i PartyMatcher.obj
 0002:00036900       ?clear@?$_Tree@V?$_Tmap_traits@UMATCH_CONDITION_PARTY@@V?$deque@KV?$allocator@K@std@@@std@@U?$less@UMATCH_CONDITION_PARTY@@@3@V?$allocator@U?$pair@$$CBUMATCH_CONDITION_PARTY@@V?$deque@KV?$allocator@K@std@@@std@@@std@@@3@$0A@@std@@@std@@QAEXXZ 00509900 f i PartyMatcher.obj
 0002:000369b0       ?_Buynode@?$_Tree@V?$_Tmap_traits@UMATCH_CONDITION_PARTY@@V?$deque@KV?$allocator@K@std@@@std@@U?$less@UMATCH_CONDITION_PARTY@@@3@V?$allocator@U?$pair@$$CBUMATCH_CONDITION_PARTY@@V?$deque@KV?$allocator@K@std@@@std@@@std@@@3@$0A@@std@@@std@@IAEPAU_Node@?$_Tree_nod@V?$_Tmap_traits@UMATCH_CONDITION_PARTY@@V?$deque@KV?$allocator@K@std@@@std@@U?$less@UMATCH_CONDITION_PARTY@@@3@V?$allocator@U?$pair@$$CBUMATCH_CONDITION_PARTY@@V?$deque@KV?$allocator@K@std@@@std@@@std@@@3@$0A@@std@@@2@XZ 005099b0 f i PartyMatcher.obj
 0002:00036bd0       ??0?$_Tree_ptr@V?$_Tmap_traits@UMATCH_CONDITION_PARTY@@V?$deque@KV?$allocator@K@std@@@std@@U?$less@UMATCH_CONDITION_PARTY@@@3@V?$allocator@U?$pair@$$CBUMATCH_CONDITION_PARTY@@V?$deque@KV?$allocator@K@std@@@std@@@std@@@3@$0A@@std@@@std@@IAE@ABU?$less@UMATCH_CONDITION_PARTY@@@1@V?$allocator@U?$pair@$$CBUMATCH_CONDITION_PARTY@@V?$deque@KV?$allocator@K@std@@@std@@@std@@@1@@Z 00509bd0 f i PartyMatcher.obj
 0002:00036c50       ?_Buynode@?$_Tree@V?$_Tmap_traits@HUSReadyRoom@?$CMatcher@UMATCH_CONDITION_PARTY@@KVCMatcherActionParty@@@@U?$less@H@std@@V?$allocator@U?$pair@$$CBHUSReadyRoom@?$CMatcher@UMATCH_CONDITION_PARTY@@KVCMatcherActionParty@@@@@std@@@4@$0A@@std@@@std@@IAEPAU_Node@?$_Tree_nod@V?$_Tmap_traits@HUSReadyRoom@?$CMatcher@UMATCH_CONDITION_PARTY@@KVCMatcherActionParty@@@@U?$less@H@std@@V?$allocator@U?$pair@$$CBHUSReadyRoom@?$CMatcher@UMATCH_CONDITION_PARTY@@KVCMatcherActionParty@@@@@std@@@4@$0A@@std@@@2@XZ 00509c50 f i PartyMatcher.obj
 0002:00036e70       ?destroy@?$allocator@PAU_Node@?$_Tree_nod@V?$_Tmap_traits@HUSReadyRoom@?$CMatcher@UMATCH_CONDITION_PARTY@@KVCMatcherActionParty@@@@U?$less@H@std@@V?$allocator@U?$pair@$$CBHUSReadyRoom@?$CMatcher@UMATCH_CONDITION_PARTY@@KVCMatcherActionParty@@@@@std@@@4@$0A@@std@@@std@@@std@@QAEXPAPAU_Node@?$_Tree_nod@V?$_Tmap_traits@HUSReadyRoom@?$CMatcher@UMATCH_CONDITION_PARTY@@KVCMatcherActionParty@@@@U?$less@H@std@@V?$allocator@U?$pair@$$CBHUSReadyRoom@?$CMatcher@UMATCH_CONDITION_PARTY@@KVCMatcherActionParty@@@@@std@@@4@$0A@@std@@@2@@Z 00509e70 f i PartyMatcher.obj
 0002:00036ed0       ??0?$_Tree_ptr@V?$_Tmap_traits@HUSReadyRoom@?$CMatcher@UMATCH_CONDITION_PARTY@@KVCMatcherActionParty@@@@U?$less@H@std@@V?$allocator@U?$pair@$$CBHUSReadyRoom@?$CMatcher@UMATCH_CONDITION_PARTY@@KVCMatcherActionParty@@@@@std@@@4@$0A@@std@@@std@@IAE@ABU?$less@H@1@V?$allocator@U?$pair@$$CBHUSReadyRoom@?$CMatcher@UMATCH_CONDITION_PARTY@@KVCMatcherActionParty@@@@@std@@@1@@Z 00509ed0 f i PartyMatcher.obj
 0002:00036f50       ??Eiterator@?$_Tree@V?$_Tmap_traits@UMATCH_CONDITION_PARTY@@V?$deque@KV?$allocator@K@std@@@std@@U?$less@UMATCH_CONDITION_PARTY@@@3@V?$allocator@U?$pair@$$CBUMATCH_CONDITION_PARTY@@V?$deque@KV?$allocator@K@std@@@std@@@std@@@3@$0A@@std@@@std@@QAE?AV012@H@Z 00509f50 f i PartyMatcher.obj
 0002:00036ff0       ?_Erase@?$_Tree@V?$_Tmap_traits@UMATCH_CONDITION_PARTY@@V?$deque@KV?$allocator@K@std@@@std@@U?$less@UMATCH_CONDITION_PARTY@@@3@V?$allocator@U?$pair@$$CBUMATCH_CONDITION_PARTY@@V?$deque@KV?$allocator@K@std@@@std@@@std@@@3@$0A@@std@@@std@@IAEXPAU_Node@?$_Tree_nod@V?$_Tmap_traits@UMATCH_CONDITION_PARTY@@V?$deque@KV?$allocator@K@std@@@std@@U?$less@UMATCH_CONDITION_PARTY@@@3@V?$allocator@U?$pair@$$CBUMATCH_CONDITION_PARTY@@V?$deque@KV?$allocator@K@std@@@std@@@std@@@3@$0A@@std@@@2@@Z 00509ff0 f i PartyMatcher.obj
 0002:000370c0       ??0?$_Tree_nod@V?$_Tmap_traits@UMATCH_CONDITION_PARTY@@V?$deque@KV?$allocator@K@std@@@std@@U?$less@UMATCH_CONDITION_PARTY@@@3@V?$allocator@U?$pair@$$CBUMATCH_CONDITION_PARTY@@V?$deque@KV?$allocator@K@std@@@std@@@std@@@3@$0A@@std@@@std@@IAE@ABU?$less@UMATCH_CONDITION_PARTY@@@1@V?$allocator@U?$pair@$$CBUMATCH_CONDITION_PARTY@@V?$deque@KV?$allocator@K@std@@@std@@@std@@@1@@Z 0050a0c0 f i PartyMatcher.obj
 0002:00037130       ?destroy@?$allocator@U_Node@?$_Tree_nod@V?$_Tmap_traits@UMATCH_CONDITION_PARTY@@V?$deque@KV?$allocator@K@std@@@std@@U?$less@UMATCH_CONDITION_PARTY@@@3@V?$allocator@U?$pair@$$CBUMATCH_CONDITION_PARTY@@V?$deque@KV?$allocator@K@std@@@std@@@std@@@3@$0A@@std@@@std@@@std@@QAEXPAU_Node@?$_Tree_nod@V?$_Tmap_traits@UMATCH_CONDITION_PARTY@@V?$deque@KV?$allocator@K@std@@@std@@U?$less@UMATCH_CONDITION_PARTY@@@3@V?$allocator@U?$pair@$$CBUMATCH_CONDITION_PARTY@@V?$deque@KV?$allocator@K@std@@@std@@@std@@@3@$0A@@std@@@2@@Z 0050a130 f i PartyMatcher.obj
 0002:00037190       ?construct@?$allocator@PAU_Node@?$_Tree_nod@V?$_Tmap_traits@UMATCH_CONDITION_PARTY@@V?$deque@KV?$allocator@K@std@@@std@@U?$less@UMATCH_CONDITION_PARTY@@@3@V?$allocator@U?$pair@$$CBUMATCH_CONDITION_PARTY@@V?$deque@KV?$allocator@K@std@@@std@@@std@@@3@$0A@@std@@@std@@@std@@QAEXPAPAU_Node@?$_Tree_nod@V?$_Tmap_traits@UMATCH_CONDITION_PARTY@@V?$deque@KV?$allocator@K@std@@@std@@U?$less@UMATCH_CONDITION_PARTY@@@3@V?$allocator@U?$pair@$$CBUMATCH_CONDITION_PARTY@@V?$deque@KV?$allocator@K@std@@@std@@@std@@@3@$0A@@std@@@2@ABQAU342@@Z 0050a190 f i PartyMatcher.obj
 0002:000371f0       ??0?$_Tree_nod@V?$_Tmap_traits@HUSReadyRoom@?$CMatcher@UMATCH_CONDITION_PARTY@@KVCMatcherActionParty@@@@U?$less@H@std@@V?$allocator@U?$pair@$$CBHUSReadyRoom@?$CMatcher@UMATCH_CONDITION_PARTY@@KVCMatcherActionParty@@@@@std@@@4@$0A@@std@@@std@@IAE@ABU?$less@H@1@V?$allocator@U?$pair@$$CBHUSReadyRoom@?$CMatcher@UMATCH_CONDITION_PARTY@@KVCMatcherActionParty@@@@@std@@@1@@Z 0050a1f0 f i PartyMatcher.obj
 0002:00037260       ?construct@?$allocator@PAU_Node@?$_Tree_nod@V?$_Tmap_traits@HUSReadyRoom@?$CMatcher@UMATCH_CONDITION_PARTY@@KVCMatcherActionParty@@@@U?$less@H@std@@V?$allocator@U?$pair@$$CBHUSReadyRoom@?$CMatcher@UMATCH_CONDITION_PARTY@@KVCMatcherActionParty@@@@@std@@@4@$0A@@std@@@std@@@std@@QAEXPAPAU_Node@?$_Tree_nod@V?$_Tmap_traits@HUSReadyRoom@?$CMatcher@UMATCH_CONDITION_PARTY@@KVCMatcherActionParty@@@@U?$less@H@std@@V?$allocator@U?$pair@$$CBHUSReadyRoom@?$CMatcher@UMATCH_CONDITION_PARTY@@KVCMatcherActionParty@@@@@std@@@4@$0A@@std@@@2@ABQAU342@@Z 0050a260 f i PartyMatcher.obj
 0002:000372c0       ??0?$_Tmap_traits@UMATCH_CONDITION_PARTY@@V?$deque@KV?$allocator@K@std@@@std@@U?$less@UMATCH_CONDITION_PARTY@@@3@V?$allocator@U?$pair@$$CBUMATCH_CONDITION_PARTY@@V?$deque@KV?$allocator@K@std@@@std@@@std@@@3@$0A@@std@@QAE@U?$less@UMATCH_CONDITION_PARTY@@@1@@Z 0050a2c0 f i PartyMatcher.obj
 0002:00037300       ??0?$_Tmap_traits@HUSReadyRoom@?$CMatcher@UMATCH_CONDITION_PARTY@@KVCMatcherActionParty@@@@U?$less@H@std@@V?$allocator@U?$pair@$$CBHUSReadyRoom@?$CMatcher@UMATCH_CONDITION_PARTY@@KVCMatcherActionParty@@@@@std@@@4@$0A@@std@@QAE@U?$less@H@1@@Z 0050a300 f i PartyMatcher.obj
 0002:00037340       ??$_Destroy@PAU_Node@?$_Tree_nod@V?$_Tmap_traits@UMATCH_CONDITION_PARTY@@V?$deque@KV?$allocator@K@std@@@std@@U?$less@UMATCH_CONDITION_PARTY@@@3@V?$allocator@U?$pair@$$CBUMATCH_CONDITION_PARTY@@V?$deque@KV?$allocator@K@std@@@std@@@std@@@3@$0A@@std@@@std@@@std@@YAXPAPAU_Node@?$_Tree_nod@V?$_Tmap_traits@UMATCH_CONDITION_PARTY@@V?$deque@KV?$allocator@K@std@@@std@@U?$less@UMATCH_CONDITION_PARTY@@@3@V?$allocator@U?$pair@$$CBUMATCH_CONDITION_PARTY@@V?$deque@KV?$allocator@K@std@@@std@@@std@@@3@$0A@@std@@@0@@Z 0050a340 f i PartyMatcher.obj
 0002:00037370       ??$_Destroy@PAU_Node@?$_Tree_nod@V?$_Tmap_traits@HUSReadyRoom@?$CMatcher@UMATCH_CONDITION_PARTY@@KVCMatcherActionParty@@@@U?$less@H@std@@V?$allocator@U?$pair@$$CBHUSReadyRoom@?$CMatcher@UMATCH_CONDITION_PARTY@@KVCMatcherActionParty@@@@@std@@@4@$0A@@std@@@std@@@std@@YAXPAPAU_Node@?$_Tree_nod@V?$_Tmap_traits@HUSReadyRoom@?$CMatcher@UMATCH_CONDITION_PARTY@@KVCMatcherActionParty@@@@U?$less@H@std@@V?$allocator@U?$pair@$$CBHUSReadyRoom@?$CMatcher@UMATCH_CONDITION_PARTY@@KVCMatcherActionParty@@@@@std@@@4@$0A@@std@@@0@@Z 0050a370 f i PartyMatcher.obj
 0002:000373a0       ??$?0U?$pair@$$CBUMATCH_CONDITION_PARTY@@V?$deque@KV?$allocator@K@std@@@std@@@std@@@?$allocator@PAU_Node@?$_Tree_nod@V?$_Tmap_traits@UMATCH_CONDITION_PARTY@@V?$deque@KV?$allocator@K@std@@@std@@U?$less@UMATCH_CONDITION_PARTY@@@3@V?$allocator@U?$pair@$$CBUMATCH_CONDITION_PARTY@@V?$deque@KV?$allocator@K@std@@@std@@@std@@@3@$0A@@std@@@std@@@std@@QAE@ABV?$allocator@U?$pair@$$CBUMATCH_CONDITION_PARTY@@V?$deque@KV?$allocator@K@std@@@std@@@std@@@1@@Z 0050a3a0 f i PartyMatcher.obj
 0002:000373e0       ??$?0U?$pair@$$CBHUSReadyRoom@?$CMatcher@UMATCH_CONDITION_PARTY@@KVCMatcherActionParty@@@@@std@@@?$allocator@PAU_Node@?$_Tree_nod@V?$_Tmap_traits@HUSReadyRoom@?$CMatcher@UMATCH_CONDITION_PARTY@@KVCMatcherActionParty@@@@U?$less@H@std@@V?$allocator@U?$pair@$$CBHUSReadyRoom@?$CMatcher@UMATCH_CONDITION_PARTY@@KVCMatcherActionParty@@@@@std@@@4@$0A@@std@@@std@@@std@@QAE@ABV?$allocator@U?$pair@$$CBHUSReadyRoom@?$CMatcher@UMATCH_CONDITION_PARTY@@KVCMatcherActionParty@@@@@std@@@1@@Z 0050a3e0 f i PartyMatcher.obj
 0002:00037420       ??$?0U?$pair@$$CBUMATCH_CONDITION_PARTY@@V?$deque@KV?$allocator@K@std@@@std@@@std@@@?$allocator@U_Node@?$_Tree_nod@V?$_Tmap_traits@UMATCH_CONDITION_PARTY@@V?$deque@KV?$allocator@K@std@@@std@@U?$less@UMATCH_CONDITION_PARTY@@@3@V?$allocator@U?$pair@$$CBUMATCH_CONDITION_PARTY@@V?$deque@KV?$allocator@K@std@@@std@@@std@@@3@$0A@@std@@@std@@@std@@QAE@ABV?$allocator@U?$pair@$$CBUMATCH_CONDITION_PARTY@@V?$deque@KV?$allocator@K@std@@@std@@@std@@@1@@Z 0050a420 f i PartyMatcher.obj
 0002:00037460       ??$_Destroy@U_Node@?$_Tree_nod@V?$_Tmap_traits@UMATCH_CONDITION_PARTY@@V?$deque@KV?$allocator@K@std@@@std@@U?$less@UMATCH_CONDITION_PARTY@@@3@V?$allocator@U?$pair@$$CBUMATCH_CONDITION_PARTY@@V?$deque@KV?$allocator@K@std@@@std@@@std@@@3@$0A@@std@@@std@@@std@@YAXPAU_Node@?$_Tree_nod@V?$_Tmap_traits@UMATCH_CONDITION_PARTY@@V?$deque@KV?$allocator@K@std@@@std@@U?$less@UMATCH_CONDITION_PARTY@@@3@V?$allocator@U?$pair@$$CBUMATCH_CONDITION_PARTY@@V?$deque@KV?$allocator@K@std@@@std@@@std@@@3@$0A@@std@@@0@@Z 0050a460 f i PartyMatcher.obj
 0002:000374b0       ??$_Construct@PAU_Node@?$_Tree_nod@V?$_Tmap_traits@UMATCH_CONDITION_PARTY@@V?$deque@KV?$allocator@K@std@@@std@@U?$less@UMATCH_CONDITION_PARTY@@@3@V?$allocator@U?$pair@$$CBUMATCH_CONDITION_PARTY@@V?$deque@KV?$allocator@K@std@@@std@@@std@@@3@$0A@@std@@@std@@PAU123@@std@@YAXPAPAU_Node@?$_Tree_nod@V?$_Tmap_traits@UMATCH_CONDITION_PARTY@@V?$deque@KV?$allocator@K@std@@@std@@U?$less@UMATCH_CONDITION_PARTY@@@3@V?$allocator@U?$pair@$$CBUMATCH_CONDITION_PARTY@@V?$deque@KV?$allocator@K@std@@@std@@@std@@@3@$0A@@std@@@0@ABQAU120@@Z 0050a4b0 f i PartyMatcher.obj
 0002:00037550       ??$?0U?$pair@$$CBHUSReadyRoom@?$CMatcher@UMATCH_CONDITION_PARTY@@KVCMatcherActionParty@@@@@std@@@?$allocator@U_Node@?$_Tree_nod@V?$_Tmap_traits@HUSReadyRoom@?$CMatcher@UMATCH_CONDITION_PARTY@@KVCMatcherActionParty@@@@U?$less@H@std@@V?$allocator@U?$pair@$$CBHUSReadyRoom@?$CMatcher@UMATCH_CONDITION_PARTY@@KVCMatcherActionParty@@@@@std@@@4@$0A@@std@@@std@@@std@@QAE@ABV?$allocator@U?$pair@$$CBHUSReadyRoom@?$CMatcher@UMATCH_CONDITION_PARTY@@KVCMatcherActionParty@@@@@std@@@1@@Z 0050a550 f i PartyMatcher.obj
 0002:00037590       ??$_Construct@PAU_Node@?$_Tree_nod@V?$_Tmap_traits@HUSReadyRoom@?$CMatcher@UMATCH_CONDITION_PARTY@@KVCMatcherActionParty@@@@U?$less@H@std@@V?$allocator@U?$pair@$$CBHUSReadyRoom@?$CMatcher@UMATCH_CONDITION_PARTY@@KVCMatcherActionParty@@@@@std@@@4@$0A@@std@@@std@@PAU123@@std@@YAXPAPAU_Node@?$_Tree_nod@V?$_Tmap_traits@HUSReadyRoom@?$CMatcher@UMATCH_CONDITION_PARTY@@KVCMatcherActionParty@@@@U?$less@H@std@@V?$allocator@U?$pair@$$CBHUSReadyRoom@?$CMatcher@UMATCH_CONDITION_PARTY@@KVCMatcherActionParty@@@@@std@@@4@$0A@@std@@@0@ABQAU120@@Z 0050a590 f i PartyMatcher.obj
 0002:00037630       ??_G_Node@?$_Tree_nod@V?$_Tmap_traits@UMATCH_CONDITION_PARTY@@V?$deque@KV?$allocator@K@std@@@std@@U?$less@UMATCH_CONDITION_PARTY@@@3@V?$allocator@U?$pair@$$CBUMATCH_CONDITION_PARTY@@V?$deque@KV?$allocator@K@std@@@std@@@std@@@3@$0A@@std@@@std@@QAEPAXI@Z 0050a630 f i PartyMatcher.obj
 0002:000376a0       ??1_Node@?$_Tree_nod@V?$_Tmap_traits@UMATCH_CONDITION_PARTY@@V?$deque@KV?$allocator@K@std@@@std@@U?$less@UMATCH_CONDITION_PARTY@@@3@V?$allocator@U?$pair@$$CBUMATCH_CONDITION_PARTY@@V?$deque@KV?$allocator@K@std@@@std@@@std@@@3@$0A@@std@@@std@@QAE@XZ 0050a6a0 f i PartyMatcher.obj
 0002:00037700       ??1?$CMatcher@UMATCH_CONDITION_PARTY@@KVCMatcherActionParty@@@@QAE@XZ 0050a700 f i PartyMatcher.obj
 0002:000377a0       ??1?$map@HUSReadyRoom@?$CMatcher@UMATCH_CONDITION_PARTY@@KVCMatcherActionParty@@@@U?$less@H@std@@V?$allocator@U?$pair@$$CBHUSReadyRoom@?$CMatcher@UMATCH_CONDITION_PARTY@@KVCMatcherActionParty@@@@@std@@@4@@std@@QAE@XZ 0050a7a0 f i PartyMatcher.obj
 0002:000377f0       ??1?$_Tree@V?$_Tmap_traits@HUSReadyRoom@?$CMatcher@UMATCH_CONDITION_PARTY@@KVCMatcherActionParty@@@@U?$less@H@std@@V?$allocator@U?$pair@$$CBHUSReadyRoom@?$CMatcher@UMATCH_CONDITION_PARTY@@KVCMatcherActionParty@@@@@std@@@4@$0A@@std@@@std@@QAE@XZ 0050a7f0 f i PartyMatcher.obj
 0002:00037840       ?_Tidy@?$_Tree@V?$_Tmap_traits@HUSReadyRoom@?$CMatcher@UMATCH_CONDITION_PARTY@@KVCMatcherActionParty@@@@U?$less@H@std@@V?$allocator@U?$pair@$$CBHUSReadyRoom@?$CMatcher@UMATCH_CONDITION_PARTY@@KVCMatcherActionParty@@@@@std@@@4@$0A@@std@@@std@@IAEXXZ 0050a840 f i PartyMatcher.obj
 0002:00037960       ?erase@?$_Tree@V?$_Tmap_traits@HUSReadyRoom@?$CMatcher@UMATCH_CONDITION_PARTY@@KVCMatcherActionParty@@@@U?$less@H@std@@V?$allocator@U?$pair@$$CBHUSReadyRoom@?$CMatcher@UMATCH_CONDITION_PARTY@@KVCMatcherActionParty@@@@@std@@@4@$0A@@std@@@std@@QAE?AViterator@12@V312@0@Z 0050a960 f i PartyMatcher.obj
 0002:00037a70       ?clear@?$_Tree@V?$_Tmap_traits@HUSReadyRoom@?$CMatcher@UMATCH_CONDITION_PARTY@@KVCMatcherActionParty@@@@U?$less@H@std@@V?$allocator@U?$pair@$$CBHUSReadyRoom@?$CMatcher@UMATCH_CONDITION_PARTY@@KVCMatcherActionParty@@@@@std@@@4@$0A@@std@@@std@@QAEXXZ 0050aa70 f i PartyMatcher.obj
 0002:00037b20       ??Eiterator@?$_Tree@V?$_Tmap_traits@HUSReadyRoom@?$CMatcher@UMATCH_CONDITION_PARTY@@KVCMatcherActionParty@@@@U?$less@H@std@@V?$allocator@U?$pair@$$CBHUSReadyRoom@?$CMatcher@UMATCH_CONDITION_PARTY@@KVCMatcherActionParty@@@@@std@@@4@$0A@@std@@@std@@QAE?AV012@H@Z 0050ab20 f i PartyMatcher.obj
 0002:00037bc0       ??9const_iterator@?$_Tree@V?$_Tmap_traits@HUSReadyRoom@?$CMatcher@UMATCH_CONDITION_PARTY@@KVCMatcherActionParty@@@@U?$less@H@std@@V?$allocator@U?$pair@$$CBHUSReadyRoom@?$CMatcher@UMATCH_CONDITION_PARTY@@KVCMatcherActionParty@@@@@std@@@4@$0A@@std@@@std@@QBE_NABV012@@Z 0050abc0 f i PartyMatcher.obj
 0002:00037c20       ?_Erase@?$_Tree@V?$_Tmap_traits@HUSReadyRoom@?$CMatcher@UMATCH_CONDITION_PARTY@@KVCMatcherActionParty@@@@U?$less@H@std@@V?$allocator@U?$pair@$$CBHUSReadyRoom@?$CMatcher@UMATCH_CONDITION_PARTY@@KVCMatcherActionParty@@@@@std@@@4@$0A@@std@@@std@@IAEXPAU_Node@?$_Tree_nod@V?$_Tmap_traits@HUSReadyRoom@?$CMatcher@UMATCH_CONDITION_PARTY@@KVCMatcherActionParty@@@@U?$less@H@std@@V?$allocator@U?$pair@$$CBHUSReadyRoom@?$CMatcher@UMATCH_CONDITION_PARTY@@KVCMatcherActionParty@@@@@std@@@4@$0A@@std@@@2@@Z 0050ac20 f i PartyMatcher.obj
 0002:00037cf0       ?InitializePacketProc@@YAXXZ 0050acf0 f   recvmsg.obj
 0002:000380f0       ?OnRecvFromServerTCP@@YGXKPADK@Z 0050b0f0 f   recvmsg.obj
 0002:00038c20       ?OnRecvFromUserTCP@@YGXKPADK@Z 0050bc20 f   recvmsg.obj
 0002:000392d0       ?ReceivedFromDB@@YAXPAUDBRECEIVEDATA@@@Z 0050c2d0 f   recvmsg.obj
 0002:000395f0       ?FailToConnectLoginAgentServer@@YGXPAX@Z 0050c5f0 f   recvmsg.obj
 0002:00039760       ?GetPortForAgentServer@COwnServer@@QAEGXZ 0050c760 f i recvmsg.obj
 0002:000397b0       ?GetIPForAgentServer@COwnServer@@QAEPADXZ 0050c7b0 f i recvmsg.obj
 0002:000397f0       ?SuccessToConnectLoginAgentServer@@YGXKPAX@Z 0050c7f0 f   recvmsg.obj
 0002:000399e0       ?GetServerID@COwnServer@@QAEKXZ 0050c9e0 f i recvmsg.obj
 0002:00039a20       ?SetAgentConnectionIndex@COwnServer@@QAEXK@Z 0050ca20 f i recvmsg.obj
 0002:00039a70       ?OnAcceptUser@@YGXK@Z      0050ca70 f   recvmsg.obj
 0002:00039bd0       ?IsUserAcceptAllowed@COwnServer@@QAEHXZ 0050cbd0 f i recvmsg.obj
 0002:00039c10       ?OnAcceptServer@@YGXK@Z    0050cc10 f   recvmsg.obj
 0002:00039c40       ?OnDisconnectServer@@YGXK@Z 0050cc40 f   recvmsg.obj
 0002:00039f60       ?OnDisconnectUser@@YGXK@Z  0050cf60 f   recvmsg.obj
 0002:0003a4b0       ?__SaveCharacter@@YAXPAVCWorldUser@@@Z 0050d4b0 f   recvmsg.obj
 0002:0003a900       ?SaveCharacterByBlockMode@@YAXPAVCWorldUser@@@Z 0050d900 f   recvmsg.obj
 0002:0003ada0       ?__MessengerDisconnectUser@@YAXPAVCWorldUser@@@Z 0050dda0 f   recvmsg.obj
 0002:0003aff0       ?__PartyDisconnectUser@@YAXPAVCWorldUser@@@Z 0050dff0 f   recvmsg.obj
 0002:0003bb00       ?IsVilliage@DUNGEON_DATA_EX@@QBE_NXZ 0050eb00 f i recvmsg.obj
 0002:0003bb50       ?__GuildDisconnectUser@@YAXPAVCWorldUser@@@Z 0050eb50 f   recvmsg.obj
 0002:0003c0d0       ?ReceivedFromDBLog@@YAXPAUDBRECEIVEDATA@@@Z 0050f0d0 f   recvmsg.obj
 0002:0003c100       ?RemoveStadium@?$CStadiumMgr@VCStadium@@@@QAEXG@Z 0050f100 f i recvmsg.obj
 0002:0003c2c0       ?begin@?$list@VCStadium@@V?$allocator@VCStadium@@@std@@@std@@QAE?AViterator@12@XZ 0050f2c0 f i recvmsg.obj
 0002:0003c330       ?end@?$list@VCStadium@@V?$allocator@VCStadium@@@std@@@std@@QAE?AViterator@12@XZ 0050f330 f i recvmsg.obj
 0002:0003c390       ?erase@?$list@VCStadium@@V?$allocator@VCStadium@@@std@@@std@@QAE?AViterator@12@V312@@Z 0050f390 f i recvmsg.obj
 0002:0003c4b0       ?begin@?$_Tree@V?$_Tmap_traits@KV?$CHS_LIST@VCStadium@@PAX@@U?$less@K@std@@V?$allocator@U?$pair@$$CBKV?$CHS_LIST@VCStadium@@PAX@@@std@@@3@$0A@@std@@@std@@QAE?AViterator@12@XZ 0050f4b0 f i recvmsg.obj
 0002:0003c520       ?end@?$_Tree@V?$_Tmap_traits@KV?$CHS_LIST@VCStadium@@PAX@@U?$less@K@std@@V?$allocator@U?$pair@$$CBKV?$CHS_LIST@VCStadium@@PAX@@@std@@@3@$0A@@std@@@std@@QAE?AViterator@12@XZ 0050f520 f i recvmsg.obj
 0002:0003c580       ??Diterator@?$_Tree@V?$_Tmap_traits@KV?$CHS_LIST@VCStadium@@PAX@@U?$less@K@std@@V?$allocator@U?$pair@$$CBKV?$CHS_LIST@VCStadium@@PAX@@@std@@@3@$0A@@std@@@std@@QBEAAU?$pair@$$CBKV?$CHS_LIST@VCStadium@@PAX@@@2@XZ 0050f580 f i recvmsg.obj
 0002:0003c5d0       ??Eiterator@?$_Tree@V?$_Tmap_traits@KV?$CHS_LIST@VCStadium@@PAX@@U?$less@K@std@@V?$allocator@U?$pair@$$CBKV?$CHS_LIST@VCStadium@@PAX@@@std@@@3@$0A@@std@@@std@@QAEAAV012@XZ 0050f5d0 f i recvmsg.obj
 0002:0003c630       ??9const_iterator@?$_Tree@V?$_Tmap_traits@KV?$CHS_LIST@VCStadium@@PAX@@U?$less@K@std@@V?$allocator@U?$pair@$$CBKV?$CHS_LIST@VCStadium@@PAX@@@std@@@3@$0A@@std@@@std@@QBE_NABV012@@Z 0050f630 f i recvmsg.obj
 0002:0003c690       ??Diterator@?$list@VCStadium@@V?$allocator@VCStadium@@@std@@@std@@QBEAAVCStadium@@XZ 0050f690 f i recvmsg.obj
 0002:0003c6e0       ??Eiterator@?$list@VCStadium@@V?$allocator@VCStadium@@@std@@@std@@QAEAAV012@XZ 0050f6e0 f i recvmsg.obj
 0002:0003c740       ??9const_iterator@?$list@VCStadium@@V?$allocator@VCStadium@@@std@@@std@@QBE_NABV012@@Z 0050f740 f i recvmsg.obj
 0002:0003c7a0       ??0WSTAS_SERVER_ATTACH@@QAE@XZ 0050f7a0 f i recvmsg.obj
 0002:0003c7f0       ?GetPacketSize@WSTAS_SERVER_ATTACH@@QAEKXZ 0050f7f0 f i recvmsg.obj
 0002:0003c830       ??0WSTAS_WORLD_USER_DISCONNECT@@QAE@XZ 0050f830 f i recvmsg.obj
 0002:0003c880       ?GetPacketSize@WSTAS_WORLD_USER_DISCONNECT@@QAEKXZ 0050f880 f i recvmsg.obj
 0002:0003c8c0       ?_Nextnode@?$list@VCStadium@@V?$allocator@VCStadium@@@std@@@std@@KAAAPAU_Node@?$_List_nod@VCStadium@@V?$allocator@VCStadium@@@std@@@2@PAU342@@Z 0050f8c0 f i recvmsg.obj
 0002:0003c900       ?_Prevnode@?$list@VCStadium@@V?$allocator@VCStadium@@@std@@@std@@KAAAPAU_Node@?$_List_nod@VCStadium@@V?$allocator@VCStadium@@@std@@@2@PAU342@@Z 0050f900 f i recvmsg.obj
 0002:0003c940       ?deallocate@?$allocator@U_Node@?$_List_nod@VCStadium@@V?$allocator@VCStadium@@@std@@@std@@@std@@QAEXPAU_Node@?$_List_nod@VCStadium@@V?$allocator@VCStadium@@@std@@@2@I@Z 0050f940 f i recvmsg.obj
 0002:0003c9a0       ?destroy@?$allocator@U_Node@?$_List_nod@VCStadium@@V?$allocator@VCStadium@@@std@@@std@@@std@@QAEXPAU_Node@?$_List_nod@VCStadium@@V?$allocator@VCStadium@@@std@@@2@@Z 0050f9a0 f i recvmsg.obj
 0002:0003ca00       ?_Lmost@?$_Tree@V?$_Tmap_traits@KV?$CHS_LIST@VCStadium@@PAX@@U?$less@K@std@@V?$allocator@U?$pair@$$CBKV?$CHS_LIST@VCStadium@@PAX@@@std@@@3@$0A@@std@@@std@@IAEAAPAU_Node@?$_Tree_nod@V?$_Tmap_traits@KV?$CHS_LIST@VCStadium@@PAX@@U?$less@K@std@@V?$allocator@U?$pair@$$CBKV?$CHS_LIST@VCStadium@@PAX@@@std@@@3@$0A@@std@@@2@XZ 0050fa00 f i recvmsg.obj
 0002:0003ca60       ?_Left@?$_Tree@V?$_Tmap_traits@KV?$CHS_LIST@VCStadium@@PAX@@U?$less@K@std@@V?$allocator@U?$pair@$$CBKV?$CHS_LIST@VCStadium@@PAX@@@std@@@3@$0A@@std@@@std@@KAAAPAU_Node@?$_Tree_nod@V?$_Tmap_traits@KV?$CHS_LIST@VCStadium@@PAX@@U?$less@K@std@@V?$allocator@U?$pair@$$CBKV?$CHS_LIST@VCStadium@@PAX@@@std@@@3@$0A@@std@@@2@PAU342@@Z 0050fa60 f i recvmsg.obj
 0002:0003caa0       ??0iterator@?$_Tree@V?$_Tmap_traits@KV?$CHS_LIST@VCStadium@@PAX@@U?$less@K@std@@V?$allocator@U?$pair@$$CBKV?$CHS_LIST@VCStadium@@PAX@@@std@@@3@$0A@@std@@@std@@QAE@PAU_Node@?$_Tree_nod@V?$_Tmap_traits@KV?$CHS_LIST@VCStadium@@PAX@@U?$less@K@std@@V?$allocator@U?$pair@$$CBKV?$CHS_LIST@VCStadium@@PAX@@@std@@@3@$0A@@std@@@2@@Z 0050faa0 f i recvmsg.obj
 0002:0003cb00       ??Dconst_iterator@?$_Tree@V?$_Tmap_traits@KV?$CHS_LIST@VCStadium@@PAX@@U?$less@K@std@@V?$allocator@U?$pair@$$CBKV?$CHS_LIST@VCStadium@@PAX@@@std@@@3@$0A@@std@@@std@@QBEABU?$pair@$$CBKV?$CHS_LIST@VCStadium@@PAX@@@2@XZ 0050fb00 f i recvmsg.obj
 0002:0003cb60       ??Econst_iterator@?$_Tree@V?$_Tmap_traits@KV?$CHS_LIST@VCStadium@@PAX@@U?$less@K@std@@V?$allocator@U?$pair@$$CBKV?$CHS_LIST@VCStadium@@PAX@@@std@@@3@$0A@@std@@@std@@QAEAAV012@XZ 0050fb60 f i recvmsg.obj
 0002:0003cbc0       ??8const_iterator@?$_Tree@V?$_Tmap_traits@KV?$CHS_LIST@VCStadium@@PAX@@U?$less@K@std@@V?$allocator@U?$pair@$$CBKV?$CHS_LIST@VCStadium@@PAX@@@std@@@3@$0A@@std@@@std@@QBE_NABV012@@Z 0050fbc0 f i recvmsg.obj
 0002:0003cc10       ??0iterator@?$list@VCStadium@@V?$allocator@VCStadium@@@std@@@std@@QAE@PAU_Node@?$_List_nod@VCStadium@@V?$allocator@VCStadium@@@std@@@2@@Z 0050fc10 f i recvmsg.obj
 0002:0003cc70       ??Eiterator@?$list@VCStadium@@V?$allocator@VCStadium@@@std@@@std@@QAE?AV012@H@Z 0050fc70 f i recvmsg.obj
 0002:0003cd10       ??Dconst_iterator@?$list@VCStadium@@V?$allocator@VCStadium@@@std@@@std@@QBEABVCStadium@@XZ 0050fd10 f i recvmsg.obj
 0002:0003cd70       ??Econst_iterator@?$list@VCStadium@@V?$allocator@VCStadium@@@std@@@std@@QAEAAV012@XZ 0050fd70 f i recvmsg.obj
 0002:0003cde0       ??8const_iterator@?$list@VCStadium@@V?$allocator@VCStadium@@@std@@@std@@QBE_NABV012@@Z 0050fde0 f i recvmsg.obj
 0002:0003ce30       ?_Mynode@const_iterator@?$list@VCStadium@@V?$allocator@VCStadium@@@std@@@std@@QBEPAU_Node@?$_List_nod@VCStadium@@V?$allocator@VCStadium@@@std@@@3@XZ 0050fe30 f i recvmsg.obj
 0002:0003ce70       ?_Myval@?$list@VCStadium@@V?$allocator@VCStadium@@@std@@@std@@KAAAVCStadium@@PAU_Node@?$_List_nod@VCStadium@@V?$allocator@VCStadium@@@std@@@2@@Z 0050fe70 f i recvmsg.obj
 0002:0003ceb0       ?_Myval@?$_Tree@V?$_Tmap_traits@KV?$CHS_LIST@VCStadium@@PAX@@U?$less@K@std@@V?$allocator@U?$pair@$$CBKV?$CHS_LIST@VCStadium@@PAX@@@std@@@3@$0A@@std@@@std@@KAAAU?$pair@$$CBKV?$CHS_LIST@VCStadium@@PAX@@@2@PAU_Node@?$_Tree_nod@V?$_Tmap_traits@KV?$CHS_LIST@VCStadium@@PAX@@U?$less@K@std@@V?$allocator@U?$pair@$$CBKV?$CHS_LIST@VCStadium@@PAX@@@std@@@3@$0A@@std@@@2@@Z 0050feb0 f i recvmsg.obj
 0002:0003cef0       ??0const_iterator@?$_Tree@V?$_Tmap_traits@KV?$CHS_LIST@VCStadium@@PAX@@U?$less@K@std@@V?$allocator@U?$pair@$$CBKV?$CHS_LIST@VCStadium@@PAX@@@std@@@3@$0A@@std@@@std@@QAE@PAU_Node@?$_Tree_nod@V?$_Tmap_traits@KV?$CHS_LIST@VCStadium@@PAX@@U?$less@K@std@@V?$allocator@U?$pair@$$CBKV?$CHS_LIST@VCStadium@@PAX@@@std@@@3@$0A@@std@@@2@@Z 0050fef0 f i recvmsg.obj
 0002:0003cf40       ?_Inc@const_iterator@?$_Tree@V?$_Tmap_traits@KV?$CHS_LIST@VCStadium@@PAX@@U?$less@K@std@@V?$allocator@U?$pair@$$CBKV?$CHS_LIST@VCStadium@@PAX@@@std@@@3@$0A@@std@@@std@@QAEXXZ 0050ff40 f i recvmsg.obj
 0002:0003d060       ?_Isnil@?$_Tree@V?$_Tmap_traits@KV?$CHS_LIST@VCStadium@@PAX@@U?$less@K@std@@V?$allocator@U?$pair@$$CBKV?$CHS_LIST@VCStadium@@PAX@@@std@@@3@$0A@@std@@@std@@KAAADPAU_Node@?$_Tree_nod@V?$_Tmap_traits@KV?$CHS_LIST@VCStadium@@PAX@@U?$less@K@std@@V?$allocator@U?$pair@$$CBKV?$CHS_LIST@VCStadium@@PAX@@@std@@@3@$0A@@std@@@2@@Z 00510060 f i recvmsg.obj
 0002:0003d0a0       ?_Parent@?$_Tree@V?$_Tmap_traits@KV?$CHS_LIST@VCStadium@@PAX@@U?$less@K@std@@V?$allocator@U?$pair@$$CBKV?$CHS_LIST@VCStadium@@PAX@@@std@@@3@$0A@@std@@@std@@KAAAPAU_Node@?$_Tree_nod@V?$_Tmap_traits@KV?$CHS_LIST@VCStadium@@PAX@@U?$less@K@std@@V?$allocator@U?$pair@$$CBKV?$CHS_LIST@VCStadium@@PAX@@@std@@@3@$0A@@std@@@2@PAU342@@Z 005100a0 f i recvmsg.obj
 0002:0003d0e0       ?_Right@?$_Tree@V?$_Tmap_traits@KV?$CHS_LIST@VCStadium@@PAX@@U?$less@K@std@@V?$allocator@U?$pair@$$CBKV?$CHS_LIST@VCStadium@@PAX@@@std@@@3@$0A@@std@@@std@@KAAAPAU_Node@?$_Tree_nod@V?$_Tmap_traits@KV?$CHS_LIST@VCStadium@@PAX@@U?$less@K@std@@V?$allocator@U?$pair@$$CBKV?$CHS_LIST@VCStadium@@PAX@@@std@@@3@$0A@@std@@@2@PAU342@@Z 005100e0 f i recvmsg.obj
 0002:0003d120       ?_Min@?$_Tree@V?$_Tmap_traits@KV?$CHS_LIST@VCStadium@@PAX@@U?$less@K@std@@V?$allocator@U?$pair@$$CBKV?$CHS_LIST@VCStadium@@PAX@@@std@@@3@$0A@@std@@@std@@KAPAU_Node@?$_Tree_nod@V?$_Tmap_traits@KV?$CHS_LIST@VCStadium@@PAX@@U?$less@K@std@@V?$allocator@U?$pair@$$CBKV?$CHS_LIST@VCStadium@@PAX@@@std@@@3@$0A@@std@@@2@PAU342@@Z 00510120 f i recvmsg.obj
 0002:0003d1a0       ??0const_iterator@?$list@VCStadium@@V?$allocator@VCStadium@@@std@@@std@@QAE@PAU_Node@?$_List_nod@VCStadium@@V?$allocator@VCStadium@@@std@@@2@@Z 005101a0 f i recvmsg.obj
 0002:0003d1f0       ?Delete@?$CAbyssHash@U__tag_party_table__@@@@QAEXPAU__tag_party_table__@@KH@Z 005101f0 f i recvmsg.obj
 0002:0003d360       ?Delete@?$CAbyssHash@U__tag_partyboard_table__@@@@QAEXPAU__tag_partyboard_table__@@KH@Z 00510360 f i recvmsg.obj
 0002:0003d4d0       ?Insert@?$CAbyssHash@UGUILD_OFFLINE_USER@@@@QAEKPAUGUILD_OFFLINE_USER@@K@Z 005104d0 f i recvmsg.obj
 0002:0003d690       ?Delete@?$CAbyssHash@VCWorldUser@@@@QAEXPAVCWorldUser@@KH@Z 00510690 f i recvmsg.obj
 0002:0003d800       ?Delete@?$CAbyssHash@U__tag_messenger_table__@@@@QAEXPAU__tag_messenger_table__@@KH@Z 00510800 f i recvmsg.obj
 0002:0003d970       ??$_Destroy@U_Node@?$_List_nod@VCStadium@@V?$allocator@VCStadium@@@std@@@std@@@std@@YAXPAU_Node@?$_List_nod@VCStadium@@V?$allocator@VCStadium@@@std@@@0@@Z 00510970 f i recvmsg.obj
 0002:0003d9c0       ??_G_Node@?$_List_nod@VCStadium@@V?$allocator@VCStadium@@@std@@@std@@QAEPAXI@Z 005109c0 f i recvmsg.obj
 0002:0003da30       ??1_Node@?$_List_nod@VCStadium@@V?$allocator@VCStadium@@@std@@@std@@QAE@XZ 00510a30 f i recvmsg.obj
 0002:0003da90       ??1CStadium@@QAE@XZ        00510a90 f i recvmsg.obj
 0002:0003daf0       ??1?$CHS_HASH@IUtagTeamData@@@@UAE@XZ 00510af0 f i recvmsg.obj
 0002:0003db80       ?Insert@?$CHS_HASH@IUtagTeamData@@@@UAE_NABIABUtagTeamData@@@Z 00510b80 f i recvmsg.obj
 0002:0003dd50       ?Remove@?$CHS_HASH@IUtagTeamData@@@@UAE_NI@Z 00510d50 f i recvmsg.obj
 0002:0003de40       ?Find@?$CHS_HASH@IUtagTeamData@@@@UAEPAUtagTeamData@@ABI@Z 00510e40 f i recvmsg.obj
 0002:0003df20       ?end@?$_Tree@V?$_Tmap_traits@IUtagTeamData@@U?$less@I@std@@V?$allocator@U?$pair@$$CBIUtagTeamData@@@std@@@3@$0A@@std@@@std@@QAE?AViterator@12@XZ 00510f20 f i recvmsg.obj
 0002:0003df80       ??Diterator@?$_Tree@V?$_Tmap_traits@IUtagTeamData@@U?$less@I@std@@V?$allocator@U?$pair@$$CBIUtagTeamData@@@std@@@3@$0A@@std@@@std@@QBEAAU?$pair@$$CBIUtagTeamData@@@2@XZ 00510f80 f i recvmsg.obj
 0002:0003dfd0       ??9const_iterator@?$_Tree@V?$_Tmap_traits@IUtagTeamData@@U?$less@I@std@@V?$allocator@U?$pair@$$CBIUtagTeamData@@@std@@@3@$0A@@std@@@std@@QBE_NABV012@@Z 00510fd0 f i recvmsg.obj
 0002:0003e030       ??_G?$CHS_HASH@IUtagTeamData@@@@UAEPAXI@Z 00511030 f i recvmsg.obj
 0002:0003e030       ??_E?$CHS_HASH@IUtagTeamData@@@@UAEPAXI@Z 00511030 f i recvmsg.obj
 0002:0003e0a0       ??1?$map@IUtagTeamData@@U?$less@I@std@@V?$allocator@U?$pair@$$CBIUtagTeamData@@@std@@@3@@std@@QAE@XZ 005110a0 f i recvmsg.obj
 0002:0003e0f0       ??0tagTeamData@@QAE@ABU0@@Z 005110f0 f i recvmsg.obj
 0002:0003e180       ??1?$pair@IUtagTeamData@@@std@@QAE@XZ 00511180 f i recvmsg.obj
 0002:0003e1e0       ??1tagTeamData@@QAE@XZ     005111e0 f i recvmsg.obj
 0002:0003e240       ??1?$CHS_HASH@V?$basic_string@DU?$char_traits@D@std@@V?$allocator@D@2@@std@@UtagStadiumPlayer@@@@UAE@XZ 00511240 f i recvmsg.obj
 0002:0003e2d0       ?Insert@?$CHS_HASH@V?$basic_string@DU?$char_traits@D@std@@V?$allocator@D@2@@std@@UtagStadiumPlayer@@@@UAE_NABV?$basic_string@DU?$char_traits@D@std@@V?$allocator@D@2@@std@@ABUtagStadiumPlayer@@@Z 005112d0 f i recvmsg.obj
 0002:0003e4b0       ?Remove@?$CHS_HASH@V?$basic_string@DU?$char_traits@D@std@@V?$allocator@D@2@@std@@UtagStadiumPlayer@@@@UAE_NV?$basic_string@DU?$char_traits@D@std@@V?$allocator@D@2@@std@@@Z 005114b0 f i recvmsg.obj
 0002:0003e610       ?Find@?$CHS_HASH@V?$basic_string@DU?$char_traits@D@std@@V?$allocator@D@2@@std@@UtagStadiumPlayer@@@@UAEPAUtagStadiumPlayer@@ABV?$basic_string@DU?$char_traits@D@std@@V?$allocator@D@2@@std@@@Z 00511610 f i recvmsg.obj
 0002:0003e6f0       ?end@?$_Tree@V?$_Tmap_traits@V?$basic_string@DU?$char_traits@D@std@@V?$allocator@D@2@@std@@UtagStadiumPlayer@@U?$less@V?$basic_string@DU?$char_traits@D@std@@V?$allocator@D@2@@std@@@2@V?$allocator@U?$pair@$$CBV?$basic_string@DU?$char_traits@D@std@@V?$allocator@D@2@@std@@UtagStadiumPlayer@@@std@@@2@$0A@@std@@@std@@QAE?AViterator@12@XZ 005116f0 f i recvmsg.obj
 0002:0003e750       ?erase@?$_Tree@V?$_Tmap_traits@V?$basic_string@DU?$char_traits@D@std@@V?$allocator@D@2@@std@@UtagStadiumPlayer@@U?$less@V?$basic_string@DU?$char_traits@D@std@@V?$allocator@D@2@@std@@@2@V?$allocator@U?$pair@$$CBV?$basic_string@DU?$char_traits@D@std@@V?$allocator@D@2@@std@@UtagStadiumPlayer@@@std@@@2@$0A@@std@@@std@@QAE?AViterator@12@V312@@Z 00511750 f i recvmsg.obj
 0002:0003f140       ??Diterator@?$_Tree@V?$_Tmap_traits@V?$basic_string@DU?$char_traits@D@std@@V?$allocator@D@2@@std@@UtagStadiumPlayer@@U?$less@V?$basic_string@DU?$char_traits@D@std@@V?$allocator@D@2@@std@@@2@V?$allocator@U?$pair@$$CBV?$basic_string@DU?$char_traits@D@std@@V?$allocator@D@2@@std@@UtagStadiumPlayer@@@std@@@2@$0A@@std@@@std@@QBEAAU?$pair@$$CBV?$basic_string@DU?$char_traits@D@std@@V?$allocator@D@2@@std@@UtagStadiumPlayer@@@2@XZ 00512140 f i recvmsg.obj
 0002:0003f190       ??Eiterator@?$_Tree@V?$_Tmap_traits@V?$basic_string@DU?$char_traits@D@std@@V?$allocator@D@2@@std@@UtagStadiumPlayer@@U?$less@V?$basic_string@DU?$char_traits@D@std@@V?$allocator@D@2@@std@@@2@V?$allocator@U?$pair@$$CBV?$basic_string@DU?$char_traits@D@std@@V?$allocator@D@2@@std@@UtagStadiumPlayer@@@std@@@2@$0A@@std@@@std@@QAEAAV012@XZ 00512190 f i recvmsg.obj
 0002:0003f1f0       ??9const_iterator@?$_Tree@V?$_Tmap_traits@V?$basic_string@DU?$char_traits@D@std@@V?$allocator@D@2@@std@@UtagStadiumPlayer@@U?$less@V?$basic_string@DU?$char_traits@D@std@@V?$allocator@D@2@@std@@@2@V?$allocator@U?$pair@$$CBV?$basic_string@DU?$char_traits@D@std@@V?$allocator@D@2@@std@@UtagStadiumPlayer@@@std@@@2@$0A@@std@@@std@@QBE_NABV012@@Z 005121f0 f i recvmsg.obj
 0002:0003f250       ??_E?$CHS_HASH@V?$basic_string@DU?$char_traits@D@std@@V?$allocator@D@2@@std@@UtagStadiumPlayer@@@@UAEPAXI@Z 00512250 f i recvmsg.obj
 0002:0003f250       ??_G?$CHS_HASH@V?$basic_string@DU?$char_traits@D@std@@V?$allocator@D@2@@std@@UtagStadiumPlayer@@@@UAEPAXI@Z 00512250 f i recvmsg.obj
 0002:0003f2c0       ??1?$map@V?$basic_string@DU?$char_traits@D@std@@V?$allocator@D@2@@std@@UtagStadiumPlayer@@U?$less@V?$basic_string@DU?$char_traits@D@std@@V?$allocator@D@2@@std@@@2@V?$allocator@U?$pair@$$CBV?$basic_string@DU?$char_traits@D@std@@V?$allocator@D@2@@std@@UtagStadiumPlayer@@@std@@@2@@std@@QAE@XZ 005122c0 f i recvmsg.obj
 0002:0003f310       ??1?$pair@V?$basic_string@DU?$char_traits@D@std@@V?$allocator@D@2@@std@@UtagStadiumPlayer@@@std@@QAE@XZ 00512310 f i recvmsg.obj
 0002:0003f360       ??1?$pair@$$CBV?$basic_string@DU?$char_traits@D@std@@V?$allocator@D@2@@std@@UtagStadiumPlayer@@@std@@QAE@XZ 00512360 f i recvmsg.obj
 0002:0003f3b0       ??1?$pair@$$CBIUtagTeamData@@@std@@QAE@XZ 005123b0 f i recvmsg.obj
 0002:0003f410       ??0?$CHS_HASH@V?$basic_string@DU?$char_traits@D@std@@V?$allocator@D@2@@std@@UtagStadiumPlayer@@@@QAE@ABV0@@Z 00512410 f i recvmsg.obj
 0002:0003f4b0       ??0?$map@V?$basic_string@DU?$char_traits@D@std@@V?$allocator@D@2@@std@@UtagStadiumPlayer@@U?$less@V?$basic_string@DU?$char_traits@D@std@@V?$allocator@D@2@@std@@@2@V?$allocator@U?$pair@$$CBV?$basic_string@DU?$char_traits@D@std@@V?$allocator@D@2@@std@@UtagStadiumPlayer@@@std@@@2@@std@@QAE@ABV01@@Z 005124b0 f i recvmsg.obj
 0002:0003f510       ?_Color@?$_Tree@V?$_Tmap_traits@V?$basic_string@DU?$char_traits@D@std@@V?$allocator@D@2@@std@@UtagStadiumPlayer@@U?$less@V?$basic_string@DU?$char_traits@D@std@@V?$allocator@D@2@@std@@@2@V?$allocator@U?$pair@$$CBV?$basic_string@DU?$char_traits@D@std@@V?$allocator@D@2@@std@@UtagStadiumPlayer@@@std@@@2@$0A@@std@@@std@@KAAADPAU_Node@?$_Tree_nod@V?$_Tmap_traits@V?$basic_string@DU?$char_traits@D@std@@V?$allocator@D@2@@std@@UtagStadiumPlayer@@U?$less@V?$basic_string@DU?$char_traits@D@std@@V?$allocator@D@2@@std@@@2@V?$allocator@U?$pair@$$CBV?$basic_string@DU?$char_traits@D@std@@V?$allocator@D@2@@std@@UtagStadiumPlayer@@@std@@@2@$0A@@std@@@2@@Z 00512510 f i recvmsg.obj
 0002:0003f550       ?_Isnil@?$_Tree@V?$_Tmap_traits@V?$basic_string@DU?$char_traits@D@std@@V?$allocator@D@2@@std@@UtagStadiumPlayer@@U?$less@V?$basic_string@DU?$char_traits@D@std@@V?$allocator@D@2@@std@@@2@V?$allocator@U?$pair@$$CBV?$basic_string@DU?$char_traits@D@std@@V?$allocator@D@2@@std@@UtagStadiumPlayer@@@std@@@2@$0A@@std@@@std@@KAAADPAU_Node@?$_Tree_nod@V?$_Tmap_traits@V?$basic_string@DU?$char_traits@D@std@@V?$allocator@D@2@@std@@UtagStadiumPlayer@@U?$less@V?$basic_string@DU?$char_traits@D@std@@V?$allocator@D@2@@std@@@2@V?$allocator@U?$pair@$$CBV?$basic_string@DU?$char_traits@D@std@@V?$allocator@D@2@@std@@UtagStadiumPlayer@@@std@@@2@$0A@@std@@@2@@Z 00512550 f i recvmsg.obj
 0002:0003f590       ?_Left@?$_Tree@V?$_Tmap_traits@V?$basic_string@DU?$char_traits@D@std@@V?$allocator@D@2@@std@@UtagStadiumPlayer@@U?$less@V?$basic_string@DU?$char_traits@D@std@@V?$allocator@D@2@@std@@@2@V?$allocator@U?$pair@$$CBV?$basic_string@DU?$char_traits@D@std@@V?$allocator@D@2@@std@@UtagStadiumPlayer@@@std@@@2@$0A@@std@@@std@@KAAAPAU_Node@?$_Tree_nod@V?$_Tmap_traits@V?$basic_string@DU?$char_traits@D@std@@V?$allocator@D@2@@std@@UtagStadiumPlayer@@U?$less@V?$basic_string@DU?$char_traits@D@std@@V?$allocator@D@2@@std@@@2@V?$allocator@U?$pair@$$CBV?$basic_string@DU?$char_traits@D@std@@V?$allocator@D@2@@std@@UtagStadiumPlayer@@@std@@@2@$0A@@std@@@2@PAU342@@Z 00512590 f i recvmsg.obj
 0002:0003f5d0       ?_Parent@?$_Tree@V?$_Tmap_traits@V?$basic_string@DU?$char_traits@D@std@@V?$allocator@D@2@@std@@UtagStadiumPlayer@@U?$less@V?$basic_string@DU?$char_traits@D@std@@V?$allocator@D@2@@std@@@2@V?$allocator@U?$pair@$$CBV?$basic_string@DU?$char_traits@D@std@@V?$allocator@D@2@@std@@UtagStadiumPlayer@@@std@@@2@$0A@@std@@@std@@KAAAPAU_Node@?$_Tree_nod@V?$_Tmap_traits@V?$basic_string@DU?$char_traits@D@std@@V?$allocator@D@2@@std@@UtagStadiumPlayer@@U?$less@V?$basic_string@DU?$char_traits@D@std@@V?$allocator@D@2@@std@@@2@V?$allocator@U?$pair@$$CBV?$basic_string@DU?$char_traits@D@std@@V?$allocator@D@2@@std@@UtagStadiumPlayer@@@std@@@2@$0A@@std@@@2@PAU342@@Z 005125d0 f i recvmsg.obj
 0002:0003f610       ?_Right@?$_Tree@V?$_Tmap_traits@V?$basic_string@DU?$char_traits@D@std@@V?$allocator@D@2@@std@@UtagStadiumPlayer@@U?$less@V?$basic_string@DU?$char_traits@D@std@@V?$allocator@D@2@@std@@@2@V?$allocator@U?$pair@$$CBV?$basic_string@DU?$char_traits@D@std@@V?$allocator@D@2@@std@@UtagStadiumPlayer@@@std@@@2@$0A@@std@@@std@@KAAAPAU_Node@?$_Tree_nod@V?$_Tmap_traits@V?$basic_string@DU?$char_traits@D@std@@V?$allocator@D@2@@std@@UtagStadiumPlayer@@U?$less@V?$basic_string@DU?$char_traits@D@std@@V?$allocator@D@2@@std@@@2@V?$allocator@U?$pair@$$CBV?$basic_string@DU?$char_traits@D@std@@V?$allocator@D@2@@std@@UtagStadiumPlayer@@@std@@@2@$0A@@std@@@2@PAU342@@Z 00512610 f i recvmsg.obj
 0002:0003f650       ??0?$_Tree@V?$_Tmap_traits@V?$basic_string@DU?$char_traits@D@std@@V?$allocator@D@2@@std@@UtagStadiumPlayer@@U?$less@V?$basic_string@DU?$char_traits@D@std@@V?$allocator@D@2@@std@@@2@V?$allocator@U?$pair@$$CBV?$basic_string@DU?$char_traits@D@std@@V?$allocator@D@2@@std@@UtagStadiumPlayer@@@std@@@2@$0A@@std@@@std@@QAE@ABV01@@Z 00512650 f i recvmsg.obj
 0002:0003f740       ??1?$_Tree@V?$_Tmap_traits@V?$basic_string@DU?$char_traits@D@std@@V?$allocator@D@2@@std@@UtagStadiumPlayer@@U?$less@V?$basic_string@DU?$char_traits@D@std@@V?$allocator@D@2@@std@@@2@V?$allocator@U?$pair@$$CBV?$basic_string@DU?$char_traits@D@std@@V?$allocator@D@2@@std@@UtagStadiumPlayer@@@std@@@2@$0A@@std@@@std@@QAE@XZ 00512740 f i recvmsg.obj
 0002:0003f790       ?insert@?$_Tree@V?$_Tmap_traits@V?$basic_string@DU?$char_traits@D@std@@V?$allocator@D@2@@std@@UtagStadiumPlayer@@U?$less@V?$basic_string@DU?$char_traits@D@std@@V?$allocator@D@2@@std@@@2@V?$allocator@U?$pair@$$CBV?$basic_string@DU?$char_traits@D@std@@V?$allocator@D@2@@std@@UtagStadiumPlayer@@@std@@@2@$0A@@std@@@std@@QAE?AU?$pair@Viterator@?$_Tree@V?$_Tmap_traits@V?$basic_string@DU?$char_traits@D@std@@V?$allocator@D@2@@std@@UtagStadiumPlayer@@U?$less@V?$basic_string@DU?$char_traits@D@std@@V?$allocator@D@2@@std@@@2@V?$allocator@U?$pair@$$CBV?$basic_string@DU?$char_traits@D@std@@V?$allocator@D@2@@std@@UtagStadiumPlayer@@@std@@@2@$0A@@std@@@std@@_N@2@ABU?$pair@$$CBV?$basic_string@DU?$char_traits@D@std@@V?$allocator@D@2@@std@@UtagStadiumPlayer@@@2@@Z 00512790 f i recvmsg.obj
 0002:0003fa50       ?begin@?$_Tree@V?$_Tmap_traits@V?$basic_string@DU?$char_traits@D@std@@V?$allocator@D@2@@std@@UtagStadiumPlayer@@U?$less@V?$basic_string@DU?$char_traits@D@std@@V?$allocator@D@2@@std@@@2@V?$allocator@U?$pair@$$CBV?$basic_string@DU?$char_traits@D@std@@V?$allocator@D@2@@std@@UtagStadiumPlayer@@@std@@@2@$0A@@std@@@std@@QAE?AViterator@12@XZ 00512a50 f i recvmsg.obj
 0002:0003fac0       ?find@?$_Tree@V?$_Tmap_traits@V?$basic_string@DU?$char_traits@D@std@@V?$allocator@D@2@@std@@UtagStadiumPlayer@@U?$less@V?$basic_string@DU?$char_traits@D@std@@V?$allocator@D@2@@std@@@2@V?$allocator@U?$pair@$$CBV?$basic_string@DU?$char_traits@D@std@@V?$allocator@D@2@@std@@UtagStadiumPlayer@@@std@@@2@$0A@@std@@@std@@QAE?AViterator@12@ABV?$basic_string@DU?$char_traits@D@std@@V?$allocator@D@2@@2@@Z 00512ac0 f i recvmsg.obj
 0002:0003fc00       ?_Lmost@?$_Tree@V?$_Tmap_traits@V?$basic_string@DU?$char_traits@D@std@@V?$allocator@D@2@@std@@UtagStadiumPlayer@@U?$less@V?$basic_string@DU?$char_traits@D@std@@V?$allocator@D@2@@std@@@2@V?$allocator@U?$pair@$$CBV?$basic_string@DU?$char_traits@D@std@@V?$allocator@D@2@@std@@UtagStadiumPlayer@@@std@@@2@$0A@@std@@@std@@IAEAAPAU_Node@?$_Tree_nod@V?$_Tmap_traits@V?$basic_string@DU?$char_traits@D@std@@V?$allocator@D@2@@std@@UtagStadiumPlayer@@U?$less@V?$basic_string@DU?$char_traits@D@std@@V?$allocator@D@2@@std@@@2@V?$allocator@U?$pair@$$CBV?$basic_string@DU?$char_traits@D@std@@V?$allocator@D@2@@std@@UtagStadiumPlayer@@@std@@@2@$0A@@std@@@2@XZ 00512c00 f i recvmsg.obj
 0002:0003fc60       ?_Lrotate@?$_Tree@V?$_Tmap_traits@V?$basic_string@DU?$char_traits@D@std@@V?$allocator@D@2@@std@@UtagStadiumPlayer@@U?$less@V?$basic_string@DU?$char_traits@D@std@@V?$allocator@D@2@@std@@@2@V?$allocator@U?$pair@$$CBV?$basic_string@DU?$char_traits@D@std@@V?$allocator@D@2@@std@@UtagStadiumPlayer@@@std@@@2@$0A@@std@@@std@@IAEXPAU_Node@?$_Tree_nod@V?$_Tmap_traits@V?$basic_string@DU?$char_traits@D@std@@V?$allocator@D@2@@std@@UtagStadiumPlayer@@U?$less@V?$basic_string@DU?$char_traits@D@std@@V?$allocator@D@2@@std@@@2@V?$allocator@U?$pair@$$CBV?$basic_string@DU?$char_traits@D@std@@V?$allocator@D@2@@std@@UtagStadiumPlayer@@@std@@@2@$0A@@std@@@2@@Z 00512c60 f i recvmsg.obj
 0002:0003fe10       ?_Max@?$_Tree@V?$_Tmap_traits@V?$basic_string@DU?$char_traits@D@std@@V?$allocator@D@2@@std@@UtagStadiumPlayer@@U?$less@V?$basic_string@DU?$char_traits@D@std@@V?$allocator@D@2@@std@@@2@V?$allocator@U?$pair@$$CBV?$basic_string@DU?$char_traits@D@std@@V?$allocator@D@2@@std@@UtagStadiumPlayer@@@std@@@2@$0A@@std@@@std@@KAPAU_Node@?$_Tree_nod@V?$_Tmap_traits@V?$basic_string@DU?$char_traits@D@std@@V?$allocator@D@2@@std@@UtagStadiumPlayer@@U?$less@V?$basic_string@DU?$char_traits@D@std@@V?$allocator@D@2@@std@@@2@V?$allocator@U?$pair@$$CBV?$basic_string@DU?$char_traits@D@std@@V?$allocator@D@2@@std@@UtagStadiumPlayer@@@std@@@2@$0A@@std@@@2@PAU342@@Z 00512e10 f i recvmsg.obj
 0002:0003fe90       ?_Min@?$_Tree@V?$_Tmap_traits@V?$basic_string@DU?$char_traits@D@std@@V?$allocator@D@2@@std@@UtagStadiumPlayer@@U?$less@V?$basic_string@DU?$char_traits@D@std@@V?$allocator@D@2@@std@@@2@V?$allocator@U?$pair@$$CBV?$basic_string@DU?$char_traits@D@std@@V?$allocator@D@2@@std@@UtagStadiumPlayer@@@std@@@2@$0A@@std@@@std@@KAPAU_Node@?$_Tree_nod@V?$_Tmap_traits@V?$basic_string@DU?$char_traits@D@std@@V?$allocator@D@2@@std@@UtagStadiumPlayer@@U?$less@V?$basic_string@DU?$char_traits@D@std@@V?$allocator@D@2@@std@@@2@V?$allocator@U?$pair@$$CBV?$basic_string@DU?$char_traits@D@std@@V?$allocator@D@2@@std@@UtagStadiumPlayer@@@std@@@2@$0A@@std@@@2@PAU342@@Z 00512e90 f i recvmsg.obj
 0002:0003ff10       ?_Rmost@?$_Tree@V?$_Tmap_traits@V?$basic_string@DU?$char_traits@D@std@@V?$allocator@D@2@@std@@UtagStadiumPlayer@@U?$less@V?$basic_string@DU?$char_traits@D@std@@V?$allocator@D@2@@std@@@2@V?$allocator@U?$pair@$$CBV?$basic_string@DU?$char_traits@D@std@@V?$allocator@D@2@@std@@UtagStadiumPlayer@@@std@@@2@$0A@@std@@@std@@IAEAAPAU_Node@?$_Tree_nod@V?$_Tmap_traits@V?$basic_string@DU?$char_traits@D@std@@V?$allocator@D@2@@std@@UtagStadiumPlayer@@U?$less@V?$basic_string@DU?$char_traits@D@std@@V?$allocator@D@2@@std@@@2@V?$allocator@U?$pair@$$CBV?$basic_string@DU?$char_traits@D@std@@V?$allocator@D@2@@std@@UtagStadiumPlayer@@@std@@@2@$0A@@std@@@2@XZ 00512f10 f i recvmsg.obj
 0002:0003ff70       ?_Root@?$_Tree@V?$_Tmap_traits@V?$basic_string@DU?$char_traits@D@std@@V?$allocator@D@2@@std@@UtagStadiumPlayer@@U?$less@V?$basic_string@DU?$char_traits@D@std@@V?$allocator@D@2@@std@@@2@V?$allocator@U?$pair@$$CBV?$basic_string@DU?$char_traits@D@std@@V?$allocator@D@2@@std@@UtagStadiumPlayer@@@std@@@2@$0A@@std@@@std@@IAEAAPAU_Node@?$_Tree_nod@V?$_Tmap_traits@V?$basic_string@DU?$char_traits@D@std@@V?$allocator@D@2@@std@@UtagStadiumPlayer@@U?$less@V?$basic_string@DU?$char_traits@D@std@@V?$allocator@D@2@@std@@@2@V?$allocator@U?$pair@$$CBV?$basic_string@DU?$char_traits@D@std@@V?$allocator@D@2@@std@@UtagStadiumPlayer@@@std@@@2@$0A@@std@@@2@XZ 00512f70 f i recvmsg.obj
 0002:0003ffd0       ?_Rrotate@?$_Tree@V?$_Tmap_traits@V?$basic_string@DU?$char_traits@D@std@@V?$allocator@D@2@@std@@UtagStadiumPlayer@@U?$less@V?$basic_string@DU?$char_traits@D@std@@V?$allocator@D@2@@std@@@2@V?$allocator@U?$pair@$$CBV?$basic_string@DU?$char_traits@D@std@@V?$allocator@D@2@@std@@UtagStadiumPlayer@@@std@@@2@$0A@@std@@@std@@IAEXPAU_Node@?$_Tree_nod@V?$_Tmap_traits@V?$basic_string@DU?$char_traits@D@std@@V?$allocator@D@2@@std@@UtagStadiumPlayer@@U?$less@V?$basic_string@DU?$char_traits@D@std@@V?$allocator@D@2@@std@@@2@V?$allocator@U?$pair@$$CBV?$basic_string@DU?$char_traits@D@std@@V?$allocator@D@2@@std@@UtagStadiumPlayer@@@std@@@2@$0A@@std@@@2@@Z 00512fd0 f i recvmsg.obj
 0002:00040180       ?deallocate@?$allocator@U_Node@?$_Tree_nod@V?$_Tmap_traits@V?$basic_string@DU?$char_traits@D@std@@V?$allocator@D@2@@std@@UtagStadiumPlayer@@U?$less@V?$basic_string@DU?$char_traits@D@std@@V?$allocator@D@2@@std@@@2@V?$allocator@U?$pair@$$CBV?$basic_string@DU?$char_traits@D@std@@V?$allocator@D@2@@std@@UtagStadiumPlayer@@@std@@@2@$0A@@std@@@std@@@std@@QAEXPAU_Node@?$_Tree_nod@V?$_Tmap_traits@V?$basic_string@DU?$char_traits@D@std@@V?$allocator@D@2@@std@@UtagStadiumPlayer@@U?$less@V?$basic_string@DU?$char_traits@D@std@@V?$allocator@D@2@@std@@@2@V?$allocator@U?$pair@$$CBV?$basic_string@DU?$char_traits@D@std@@V?$allocator@D@2@@std@@UtagStadiumPlayer@@@std@@@2@$0A@@std@@@2@I@Z 00513180 f i recvmsg.obj
 0002:000401e0       ?destroy@?$allocator@U_Node@?$_Tree_nod@V?$_Tmap_traits@V?$basic_string@DU?$char_traits@D@std@@V?$allocator@D@2@@std@@UtagStadiumPlayer@@U?$less@V?$basic_string@DU?$char_traits@D@std@@V?$allocator@D@2@@std@@@2@V?$allocator@U?$pair@$$CBV?$basic_string@DU?$char_traits@D@std@@V?$allocator@D@2@@std@@UtagStadiumPlayer@@@std@@@2@$0A@@std@@@std@@@std@@QAEXPAU_Node@?$_Tree_nod@V?$_Tmap_traits@V?$basic_string@DU?$char_traits@D@std@@V?$allocator@D@2@@std@@UtagStadiumPlayer@@U?$less@V?$basic_string@DU?$char_traits@D@std@@V?$allocator@D@2@@std@@@2@V?$allocator@U?$pair@$$CBV?$basic_string@DU?$char_traits@D@std@@V?$allocator@D@2@@std@@UtagStadiumPlayer@@@std@@@2@$0A@@std@@@2@@Z 005131e0 f i recvmsg.obj
 0002:00040240       ??1?$_Tree@V?$_Tmap_traits@IUtagTeamData@@U?$less@I@std@@V?$allocator@U?$pair@$$CBIUtagTeamData@@@std@@@3@$0A@@std@@@std@@QAE@XZ 00513240 f i recvmsg.obj
 0002:00040290       ?insert@?$_Tree@V?$_Tmap_traits@IUtagTeamData@@U?$less@I@std@@V?$allocator@U?$pair@$$CBIUtagTeamData@@@std@@@3@$0A@@std@@@std@@QAE?AU?$pair@Viterator@?$_Tree@V?$_Tmap_traits@IUtagTeamData@@U?$less@I@std@@V?$allocator@U?$pair@$$CBIUtagTeamData@@@std@@@3@$0A@@std@@@std@@_N@2@ABU?$pair@$$CBIUtagTeamData@@@2@@Z 00513290 f i recvmsg.obj
 0002:00040550       ?begin@?$_Tree@V?$_Tmap_traits@IUtagTeamData@@U?$less@I@std@@V?$allocator@U?$pair@$$CBIUtagTeamData@@@std@@@3@$0A@@std@@@std@@QAE?AViterator@12@XZ 00513550 f i recvmsg.obj
 0002:000405c0       ?erase@?$_Tree@V?$_Tmap_traits@IUtagTeamData@@U?$less@I@std@@V?$allocator@U?$pair@$$CBIUtagTeamData@@@std@@@3@$0A@@std@@@std@@QAE?AViterator@12@V312@@Z 005135c0 f i recvmsg.obj
 0002:00040fb0       ??Eiterator@?$_Tree@V?$_Tmap_traits@IUtagTeamData@@U?$less@I@std@@V?$allocator@U?$pair@$$CBIUtagTeamData@@@std@@@3@$0A@@std@@@std@@QAEAAV012@XZ 00513fb0 f i recvmsg.obj
 0002:00041010       ?find@?$_Tree@V?$_Tmap_traits@IUtagTeamData@@U?$less@I@std@@V?$allocator@U?$pair@$$CBIUtagTeamData@@@std@@@3@$0A@@std@@@std@@QAE?AViterator@12@ABI@Z 00514010 f i recvmsg.obj
 0002:00041150       ?_Lmost@?$_Tree@V?$_Tmap_traits@IUtagTeamData@@U?$less@I@std@@V?$allocator@U?$pair@$$CBIUtagTeamData@@@std@@@3@$0A@@std@@@std@@IAEAAPAU_Node@?$_Tree_nod@V?$_Tmap_traits@IUtagTeamData@@U?$less@I@std@@V?$allocator@U?$pair@$$CBIUtagTeamData@@@std@@@3@$0A@@std@@@2@XZ 00514150 f i recvmsg.obj
 0002:000411b0       ?_Rmost@?$_Tree@V?$_Tmap_traits@IUtagTeamData@@U?$less@I@std@@V?$allocator@U?$pair@$$CBIUtagTeamData@@@std@@@3@$0A@@std@@@std@@IAEAAPAU_Node@?$_Tree_nod@V?$_Tmap_traits@IUtagTeamData@@U?$less@I@std@@V?$allocator@U?$pair@$$CBIUtagTeamData@@@std@@@3@$0A@@std@@@2@XZ 005141b0 f i recvmsg.obj
 0002:00041210       ?_Root@?$_Tree@V?$_Tmap_traits@IUtagTeamData@@U?$less@I@std@@V?$allocator@U?$pair@$$CBIUtagTeamData@@@std@@@3@$0A@@std@@@std@@IAEAAPAU_Node@?$_Tree_nod@V?$_Tmap_traits@IUtagTeamData@@U?$less@I@std@@V?$allocator@U?$pair@$$CBIUtagTeamData@@@std@@@3@$0A@@std@@@2@XZ 00514210 f i recvmsg.obj
 0002:00041270       ??0iterator@?$_Tree@V?$_Tmap_traits@IUtagTeamData@@U?$less@I@std@@V?$allocator@U?$pair@$$CBIUtagTeamData@@@std@@@3@$0A@@std@@@std@@QAE@PAU_Node@?$_Tree_nod@V?$_Tmap_traits@IUtagTeamData@@U?$less@I@std@@V?$allocator@U?$pair@$$CBIUtagTeamData@@@std@@@3@$0A@@std@@@2@@Z 00514270 f i recvmsg.obj
 0002:000412d0       ??Dconst_iterator@?$_Tree@V?$_Tmap_traits@IUtagTeamData@@U?$less@I@std@@V?$allocator@U?$pair@$$CBIUtagTeamData@@@std@@@3@$0A@@std@@@std@@QBEABU?$pair@$$CBIUtagTeamData@@@2@XZ 005142d0 f i recvmsg.obj
 0002:00041330       ??Econst_iterator@?$_Tree@V?$_Tmap_traits@IUtagTeamData@@U?$less@I@std@@V?$allocator@U?$pair@$$CBIUtagTeamData@@@std@@@3@$0A@@std@@@std@@QAEAAV012@XZ 00514330 f i recvmsg.obj
 0002:00041390       ??8const_iterator@?$_Tree@V?$_Tmap_traits@IUtagTeamData@@U?$less@I@std@@V?$allocator@U?$pair@$$CBIUtagTeamData@@@std@@@3@$0A@@std@@@std@@QBE_NABV012@@Z 00514390 f i recvmsg.obj
 0002:000413e0       ??0iterator@?$_Tree@V?$_Tmap_traits@V?$basic_string@DU?$char_traits@D@std@@V?$allocator@D@2@@std@@UtagStadiumPlayer@@U?$less@V?$basic_string@DU?$char_traits@D@std@@V?$allocator@D@2@@std@@@2@V?$allocator@U?$pair@$$CBV?$basic_string@DU?$char_traits@D@std@@V?$allocator@D@2@@std@@UtagStadiumPlayer@@@std@@@2@$0A@@std@@@std@@QAE@PAU_Node@?$_Tree_nod@V?$_Tmap_traits@V?$basic_string@DU?$char_traits@D@std@@V?$allocator@D@2@@std@@UtagStadiumPlayer@@U?$less@V?$basic_string@DU?$char_traits@D@std@@V?$allocator@D@2@@std@@@2@V?$allocator@U?$pair@$$CBV?$basic_string@DU?$char_traits@D@std@@V?$allocator@D@2@@std@@UtagStadiumPlayer@@@std@@@2@$0A@@std@@@2@@Z 005143e0 f i recvmsg.obj
 0002:00041440       ??Dconst_iterator@?$_Tree@V?$_Tmap_traits@V?$basic_string@DU?$char_traits@D@std@@V?$allocator@D@2@@std@@UtagStadiumPlayer@@U?$less@V?$basic_string@DU?$char_traits@D@std@@V?$allocator@D@2@@std@@@2@V?$allocator@U?$pair@$$CBV?$basic_string@DU?$char_traits@D@std@@V?$allocator@D@2@@std@@UtagStadiumPlayer@@@std@@@2@$0A@@std@@@std@@QBEABU?$pair@$$CBV?$basic_string@DU?$char_traits@D@std@@V?$allocator@D@2@@std@@UtagStadiumPlayer@@@2@XZ 00514440 f i recvmsg.obj
 0002:000414a0       ??Econst_iterator@?$_Tree@V?$_Tmap_traits@V?$basic_string@DU?$char_traits@D@std@@V?$allocator@D@2@@std@@UtagStadiumPlayer@@U?$less@V?$basic_string@DU?$char_traits@D@std@@V?$allocator@D@2@@std@@@2@V?$allocator@U?$pair@$$CBV?$basic_string@DU?$char_traits@D@std@@V?$allocator@D@2@@std@@UtagStadiumPlayer@@@std@@@2@$0A@@std@@@std@@QAEAAV012@XZ 005144a0 f i recvmsg.obj
 0002:00041500       ??8const_iterator@?$_Tree@V?$_Tmap_traits@V?$basic_string@DU?$char_traits@D@std@@V?$allocator@D@2@@std@@UtagStadiumPlayer@@U?$less@V?$basic_string@DU?$char_traits@D@std@@V?$allocator@D@2@@std@@@2@V?$allocator@U?$pair@$$CBV?$basic_string@DU?$char_traits@D@std@@V?$allocator@D@2@@std@@UtagStadiumPlayer@@@std@@@2@$0A@@std@@@std@@QBE_NABV012@@Z 00514500 f i recvmsg.obj
 0002:00041550       ?_Mynode@const_iterator@?$_Tree@V?$_Tmap_traits@V?$basic_string@DU?$char_traits@D@std@@V?$allocator@D@2@@std@@UtagStadiumPlayer@@U?$less@V?$basic_string@DU?$char_traits@D@std@@V?$allocator@D@2@@std@@@2@V?$allocator@U?$pair@$$CBV?$basic_string@DU?$char_traits@D@std@@V?$allocator@D@2@@std@@UtagStadiumPlayer@@@std@@@2@$0A@@std@@@std@@QBEPAU_Node@?$_Tree_nod@V?$_Tmap_traits@V?$basic_string@DU?$char_traits@D@std@@V?$allocator@D@2@@std@@UtagStadiumPlayer@@U?$less@V?$basic_string@DU?$char_traits@D@std@@V?$allocator@D@2@@std@@@2@V?$allocator@U?$pair@$$CBV?$basic_string@DU?$char_traits@D@std@@V?$allocator@D@2@@std@@UtagStadiumPlayer@@@std@@@2@$0A@@std@@@3@XZ 00514550 f i recvmsg.obj
 0002:00041590       ?_Key@?$_Tree@V?$_Tmap_traits@V?$basic_string@DU?$char_traits@D@std@@V?$allocator@D@2@@std@@UtagStadiumPlayer@@U?$less@V?$basic_string@DU?$char_traits@D@std@@V?$allocator@D@2@@std@@@2@V?$allocator@U?$pair@$$CBV?$basic_string@DU?$char_traits@D@std@@V?$allocator@D@2@@std@@UtagStadiumPlayer@@@std@@@2@$0A@@std@@@std@@KAABV?$basic_string@DU?$char_traits@D@std@@V?$allocator@D@2@@2@PAU_Node@?$_Tree_nod@V?$_Tmap_traits@V?$basic_string@DU?$char_traits@D@std@@V?$allocator@D@2@@std@@UtagStadiumPlayer@@U?$less@V?$basic_string@DU?$char_traits@D@std@@V?$allocator@D@2@@std@@@2@V?$allocator@U?$pair@$$CBV?$basic_string@DU?$char_traits@D@std@@V?$allocator@D@2@@std@@UtagStadiumPlayer@@@std@@@2@$0A@@std@@@2@@Z 00514590 f i recvmsg.obj
 0002:000415f0       ?_Myval@?$_Tree@V?$_Tmap_traits@V?$basic_string@DU?$char_traits@D@std@@V?$allocator@D@2@@std@@UtagStadiumPlayer@@U?$less@V?$basic_string@DU?$char_traits@D@std@@V?$allocator@D@2@@std@@@2@V?$allocator@U?$pair@$$CBV?$basic_string@DU?$char_traits@D@std@@V?$allocator@D@2@@std@@UtagStadiumPlayer@@@std@@@2@$0A@@std@@@std@@KAAAU?$pair@$$CBV?$basic_string@DU?$char_traits@D@std@@V?$allocator@D@2@@std@@UtagStadiumPlayer@@@2@PAU_Node@?$_Tree_nod@V?$_Tmap_traits@V?$basic_string@DU?$char_traits@D@std@@V?$allocator@D@2@@std@@UtagStadiumPlayer@@U?$less@V?$basic_string@DU?$char_traits@D@std@@V?$allocator@D@2@@std@@@2@V?$allocator@U?$pair@$$CBV?$basic_string@DU?$char_traits@D@std@@V?$allocator@D@2@@std@@UtagStadiumPlayer@@@std@@@2@$0A@@std@@@2@@Z 005145f0 f i recvmsg.obj
 0002:00041630       ?get_allocator@?$_Tree@V?$_Tmap_traits@V?$basic_string@DU?$char_traits@D@std@@V?$allocator@D@2@@std@@UtagStadiumPlayer@@U?$less@V?$basic_string@DU?$char_traits@D@std@@V?$allocator@D@2@@std@@@2@V?$allocator@U?$pair@$$CBV?$basic_string@DU?$char_traits@D@std@@V?$allocator@D@2@@std@@UtagStadiumPlayer@@@std@@@2@$0A@@std@@@std@@QBE?AV?$allocator@U?$pair@$$CBV?$basic_string@DU?$char_traits@D@std@@V?$allocator@D@2@@std@@UtagStadiumPlayer@@@std@@@2@XZ 00514630 f i recvmsg.obj
 0002:00041690       ?key_comp@?$_Tree@V?$_Tmap_traits@V?$basic_string@DU?$char_traits@D@std@@V?$allocator@D@2@@std@@UtagStadiumPlayer@@U?$less@V?$basic_string@DU?$char_traits@D@std@@V?$allocator@D@2@@std@@@2@V?$allocator@U?$pair@$$CBV?$basic_string@DU?$char_traits@D@std@@V?$allocator@D@2@@std@@UtagStadiumPlayer@@@std@@@2@$0A@@std@@@std@@QBE?AU?$less@V?$basic_string@DU?$char_traits@D@std@@V?$allocator@D@2@@std@@@2@XZ 00514690 f i recvmsg.obj
 0002:000416d0       ?lower_bound@?$_Tree@V?$_Tmap_traits@V?$basic_string@DU?$char_traits@D@std@@V?$allocator@D@2@@std@@UtagStadiumPlayer@@U?$less@V?$basic_string@DU?$char_traits@D@std@@V?$allocator@D@2@@std@@@2@V?$allocator@U?$pair@$$CBV?$basic_string@DU?$char_traits@D@std@@V?$allocator@D@2@@std@@UtagStadiumPlayer@@@std@@@2@$0A@@std@@@std@@QAE?AViterator@12@ABV?$basic_string@DU?$char_traits@D@std@@V?$allocator@D@2@@2@@Z 005146d0 f i recvmsg.obj
 0002:00041740       ?_Copy@?$_Tree@V?$_Tmap_traits@V?$basic_string@DU?$char_traits@D@std@@V?$allocator@D@2@@std@@UtagStadiumPlayer@@U?$less@V?$basic_string@DU?$char_traits@D@std@@V?$allocator@D@2@@std@@@2@V?$allocator@U?$pair@$$CBV?$basic_string@DU?$char_traits@D@std@@V?$allocator@D@2@@std@@UtagStadiumPlayer@@@std@@@2@$0A@@std@@@std@@IAEXABV12@@Z 00514740 f i recvmsg.obj
 0002:00041860       ?size@?$_Tree@V?$_Tmap_traits@V?$basic_string@DU?$char_traits@D@std@@V?$allocator@D@2@@std@@UtagStadiumPlayer@@U?$less@V?$basic_string@DU?$char_traits@D@std@@V?$allocator@D@2@@std@@@2@V?$allocator@U?$pair@$$CBV?$basic_string@DU?$char_traits@D@std@@V?$allocator@D@2@@std@@UtagStadiumPlayer@@@std@@@2@$0A@@std@@@std@@QBEIXZ 00514860 f i recvmsg.obj
 0002:000418a0       ?_Init@?$_Tree@V?$_Tmap_traits@V?$basic_string@DU?$char_traits@D@std@@V?$allocator@D@2@@std@@UtagStadiumPlayer@@U?$less@V?$basic_string@DU?$char_traits@D@std@@V?$allocator@D@2@@std@@@2@V?$allocator@U?$pair@$$CBV?$basic_string@DU?$char_traits@D@std@@V?$allocator@D@2@@std@@UtagStadiumPlayer@@@std@@@2@$0A@@std@@@std@@IAEXXZ 005148a0 f i recvmsg.obj
 0002:00041960       ?_Insert@?$_Tree@V?$_Tmap_traits@V?$basic_string@DU?$char_traits@D@std@@V?$allocator@D@2@@std@@UtagStadiumPlayer@@U?$less@V?$basic_string@DU?$char_traits@D@std@@V?$allocator@D@2@@std@@@2@V?$allocator@U?$pair@$$CBV?$basic_string@DU?$char_traits@D@std@@V?$allocator@D@2@@std@@UtagStadiumPlayer@@@std@@@2@$0A@@std@@@std@@IAE?AViterator@12@_NPAU_Node@?$_Tree_nod@V?$_Tmap_traits@V?$basic_string@DU?$char_traits@D@std@@V?$allocator@D@2@@std@@UtagStadiumPlayer@@U?$less@V?$basic_string@DU?$char_traits@D@std@@V?$allocator@D@2@@std@@@2@V?$allocator@U?$pair@$$CBV?$basic_string@DU?$char_traits@D@std@@V?$allocator@D@2@@std@@UtagStadiumPlayer@@@std@@@2@$0A@@std@@@2@ABU?$pair@$$CBV?$basic_string@DU?$char_traits@D@std@@V?$allocator@D@2@@std@@UtagStadiumPlayer@@@2@@Z 00514960 f i recvmsg.obj
 0002:00041f10       ?_Tidy@?$_Tree@V?$_Tmap_traits@V?$basic_string@DU?$char_traits@D@std@@V?$allocator@D@2@@std@@UtagStadiumPlayer@@U?$less@V?$basic_string@DU?$char_traits@D@std@@V?$allocator@D@2@@std@@@2@V?$allocator@U?$pair@$$CBV?$basic_string@DU?$char_traits@D@std@@V?$allocator@D@2@@std@@UtagStadiumPlayer@@@std@@@2@$0A@@std@@@std@@IAEXXZ 00514f10 f i recvmsg.obj
 0002:00042030       ??0?$_Tree_val@V?$_Tmap_traits@V?$basic_string@DU?$char_traits@D@std@@V?$allocator@D@2@@std@@UtagStadiumPlayer@@U?$less@V?$basic_string@DU?$char_traits@D@std@@V?$allocator@D@2@@std@@@2@V?$allocator@U?$pair@$$CBV?$basic_string@DU?$char_traits@D@std@@V?$allocator@D@2@@std@@UtagStadiumPlayer@@@std@@@2@$0A@@std@@@std@@IAE@ABU?$less@V?$basic_string@DU?$char_traits@D@std@@V?$allocator@D@2@@std@@@1@V?$allocator@U?$pair@$$CBV?$basic_string@DU?$char_traits@D@std@@V?$allocator@D@2@@std@@UtagStadiumPlayer@@@std@@@1@@Z 00515030 f i recvmsg.obj
 0002:000420b0       ?_Kfn@?$_Tmap_traits@V?$basic_string@DU?$char_traits@D@std@@V?$allocator@D@2@@std@@UtagStadiumPlayer@@U?$less@V?$basic_string@DU?$char_traits@D@std@@V?$allocator@D@2@@std@@@2@V?$allocator@U?$pair@$$CBV?$basic_string@DU?$char_traits@D@std@@V?$allocator@D@2@@std@@UtagStadiumPlayer@@@std@@@2@$0A@@std@@SAABV?$basic_string@DU?$char_traits@D@std@@V?$allocator@D@2@@2@ABU?$pair@$$CBV?$basic_string@DU?$char_traits@D@std@@V?$allocator@D@2@@std@@UtagStadiumPlayer@@@2@@Z 005150b0 f i recvmsg.obj
 0002:000420f0       ??R?$less@V?$basic_string@DU?$char_traits@D@std@@V?$allocator@D@2@@std@@@std@@QBE_NABV?$basic_string@DU?$char_traits@D@std@@V?$allocator@D@2@@1@0@Z 005150f0 f i recvmsg.obj
 0002:00042150       ?_Color@?$_Tree@V?$_Tmap_traits@IUtagTeamData@@U?$less@I@std@@V?$allocator@U?$pair@$$CBIUtagTeamData@@@std@@@3@$0A@@std@@@std@@KAAADPAU_Node@?$_Tree_nod@V?$_Tmap_traits@IUtagTeamData@@U?$less@I@std@@V?$allocator@U?$pair@$$CBIUtagTeamData@@@std@@@3@$0A@@std@@@2@@Z 00515150 f i recvmsg.obj
 0002:00042190       ?_Isnil@?$_Tree@V?$_Tmap_traits@IUtagTeamData@@U?$less@I@std@@V?$allocator@U?$pair@$$CBIUtagTeamData@@@std@@@3@$0A@@std@@@std@@KAAADPAU_Node@?$_Tree_nod@V?$_Tmap_traits@IUtagTeamData@@U?$less@I@std@@V?$allocator@U?$pair@$$CBIUtagTeamData@@@std@@@3@$0A@@std@@@2@@Z 00515190 f i recvmsg.obj
 0002:000421d0       ?_Key@?$_Tree@V?$_Tmap_traits@IUtagTeamData@@U?$less@I@std@@V?$allocator@U?$pair@$$CBIUtagTeamData@@@std@@@3@$0A@@std@@@std@@KAABIPAU_Node@?$_Tree_nod@V?$_Tmap_traits@IUtagTeamData@@U?$less@I@std@@V?$allocator@U?$pair@$$CBIUtagTeamData@@@std@@@3@$0A@@std@@@2@@Z 005151d0 f i recvmsg.obj
 0002:00042230       ?_Left@?$_Tree@V?$_Tmap_traits@IUtagTeamData@@U?$less@I@std@@V?$allocator@U?$pair@$$CBIUtagTeamData@@@std@@@3@$0A@@std@@@std@@KAAAPAU_Node@?$_Tree_nod@V?$_Tmap_traits@IUtagTeamData@@U?$less@I@std@@V?$allocator@U?$pair@$$CBIUtagTeamData@@@std@@@3@$0A@@std@@@2@PAU342@@Z 00515230 f i recvmsg.obj
 0002:00042270       ?_Parent@?$_Tree@V?$_Tmap_traits@IUtagTeamData@@U?$less@I@std@@V?$allocator@U?$pair@$$CBIUtagTeamData@@@std@@@3@$0A@@std@@@std@@KAAAPAU_Node@?$_Tree_nod@V?$_Tmap_traits@IUtagTeamData@@U?$less@I@std@@V?$allocator@U?$pair@$$CBIUtagTeamData@@@std@@@3@$0A@@std@@@2@PAU342@@Z 00515270 f i recvmsg.obj
 0002:000422b0       ?_Right@?$_Tree@V?$_Tmap_traits@IUtagTeamData@@U?$less@I@std@@V?$allocator@U?$pair@$$CBIUtagTeamData@@@std@@@3@$0A@@std@@@std@@KAAAPAU_Node@?$_Tree_nod@V?$_Tmap_traits@IUtagTeamData@@U?$less@I@std@@V?$allocator@U?$pair@$$CBIUtagTeamData@@@std@@@3@$0A@@std@@@2@PAU342@@Z 005152b0 f i recvmsg.obj
 0002:000422f0       ?_Myval@?$_Tree@V?$_Tmap_traits@IUtagTeamData@@U?$less@I@std@@V?$allocator@U?$pair@$$CBIUtagTeamData@@@std@@@3@$0A@@std@@@std@@KAAAU?$pair@$$CBIUtagTeamData@@@2@PAU_Node@?$_Tree_nod@V?$_Tmap_traits@IUtagTeamData@@U?$less@I@std@@V?$allocator@U?$pair@$$CBIUtagTeamData@@@std@@@3@$0A@@std@@@2@@Z 005152f0 f i recvmsg.obj
 0002:00042330       ?lower_bound@?$_Tree@V?$_Tmap_traits@IUtagTeamData@@U?$less@I@std@@V?$allocator@U?$pair@$$CBIUtagTeamData@@@std@@@3@$0A@@std@@@std@@QAE?AViterator@12@ABI@Z 00515330 f i recvmsg.obj
 0002:000423a0       ?_Insert@?$_Tree@V?$_Tmap_traits@IUtagTeamData@@U?$less@I@std@@V?$allocator@U?$pair@$$CBIUtagTeamData@@@std@@@3@$0A@@std@@@std@@IAE?AViterator@12@_NPAU_Node@?$_Tree_nod@V?$_Tmap_traits@IUtagTeamData@@U?$less@I@std@@V?$allocator@U?$pair@$$CBIUtagTeamData@@@std@@@3@$0A@@std@@@2@ABU?$pair@$$CBIUtagTeamData@@@2@@Z 005153a0 f i recvmsg.obj
 0002:00042950       ?_Lrotate@?$_Tree@V?$_Tmap_traits@IUtagTeamData@@U?$less@I@std@@V?$allocator@U?$pair@$$CBIUtagTeamData@@@std@@@3@$0A@@std@@@std@@IAEXPAU_Node@?$_Tree_nod@V?$_Tmap_traits@IUtagTeamData@@U?$less@I@std@@V?$allocator@U?$pair@$$CBIUtagTeamData@@@std@@@3@$0A@@std@@@2@@Z 00515950 f i recvmsg.obj
 0002:00042b00       ?_Max@?$_Tree@V?$_Tmap_traits@IUtagTeamData@@U?$less@I@std@@V?$allocator@U?$pair@$$CBIUtagTeamData@@@std@@@3@$0A@@std@@@std@@KAPAU_Node@?$_Tree_nod@V?$_Tmap_traits@IUtagTeamData@@U?$less@I@std@@V?$allocator@U?$pair@$$CBIUtagTeamData@@@std@@@3@$0A@@std@@@2@PAU342@@Z 00515b00 f i recvmsg.obj
 0002:00042b80       ?_Min@?$_Tree@V?$_Tmap_traits@IUtagTeamData@@U?$less@I@std@@V?$allocator@U?$pair@$$CBIUtagTeamData@@@std@@@3@$0A@@std@@@std@@KAPAU_Node@?$_Tree_nod@V?$_Tmap_traits@IUtagTeamData@@U?$less@I@std@@V?$allocator@U?$pair@$$CBIUtagTeamData@@@std@@@3@$0A@@std@@@2@PAU342@@Z 00515b80 f i recvmsg.obj
 0002:00042c00       ?_Rrotate@?$_Tree@V?$_Tmap_traits@IUtagTeamData@@U?$less@I@std@@V?$allocator@U?$pair@$$CBIUtagTeamData@@@std@@@3@$0A@@std@@@std@@IAEXPAU_Node@?$_Tree_nod@V?$_Tmap_traits@IUtagTeamData@@U?$less@I@std@@V?$allocator@U?$pair@$$CBIUtagTeamData@@@std@@@3@$0A@@std@@@2@@Z 00515c00 f i recvmsg.obj
 0002:00042db0       ?_Tidy@?$_Tree@V?$_Tmap_traits@IUtagTeamData@@U?$less@I@std@@V?$allocator@U?$pair@$$CBIUtagTeamData@@@std@@@3@$0A@@std@@@std@@IAEXXZ 00515db0 f i recvmsg.obj
 0002:00042ed0       ?_Kfn@?$_Tmap_traits@IUtagTeamData@@U?$less@I@std@@V?$allocator@U?$pair@$$CBIUtagTeamData@@@std@@@3@$0A@@std@@SAABIABU?$pair@$$CBIUtagTeamData@@@2@@Z 00515ed0 f i recvmsg.obj
 0002:00042f10       ??R?$less@I@std@@QBE_NABI0@Z 00515f10 f i recvmsg.obj
 0002:00042f60       ?deallocate@?$allocator@U_Node@?$_Tree_nod@V?$_Tmap_traits@IUtagTeamData@@U?$less@I@std@@V?$allocator@U?$pair@$$CBIUtagTeamData@@@std@@@3@$0A@@std@@@std@@@std@@QAEXPAU_Node@?$_Tree_nod@V?$_Tmap_traits@IUtagTeamData@@U?$less@I@std@@V?$allocator@U?$pair@$$CBIUtagTeamData@@@std@@@3@$0A@@std@@@2@I@Z 00515f60 f i recvmsg.obj
 0002:00042fc0       ?destroy@?$allocator@U_Node@?$_Tree_nod@V?$_Tmap_traits@IUtagTeamData@@U?$less@I@std@@V?$allocator@U?$pair@$$CBIUtagTeamData@@@std@@@3@$0A@@std@@@std@@@std@@QAEXPAU_Node@?$_Tree_nod@V?$_Tmap_traits@IUtagTeamData@@U?$less@I@std@@V?$allocator@U?$pair@$$CBIUtagTeamData@@@std@@@3@$0A@@std@@@2@@Z 00515fc0 f i recvmsg.obj
 0002:00043020       ??Fiterator@?$_Tree@V?$_Tmap_traits@IUtagTeamData@@U?$less@I@std@@V?$allocator@U?$pair@$$CBIUtagTeamData@@@std@@@3@$0A@@std@@@std@@QAEAAV012@XZ 00516020 f i recvmsg.obj
 0002:00043080       ??0const_iterator@?$_Tree@V?$_Tmap_traits@IUtagTeamData@@U?$less@I@std@@V?$allocator@U?$pair@$$CBIUtagTeamData@@@std@@@3@$0A@@std@@@std@@QAE@PAU_Node@?$_Tree_nod@V?$_Tmap_traits@IUtagTeamData@@U?$less@I@std@@V?$allocator@U?$pair@$$CBIUtagTeamData@@@std@@@3@$0A@@std@@@2@@Z 00516080 f i recvmsg.obj
 0002:000430d0       ?_Inc@const_iterator@?$_Tree@V?$_Tmap_traits@IUtagTeamData@@U?$less@I@std@@V?$allocator@U?$pair@$$CBIUtagTeamData@@@std@@@3@$0A@@std@@@std@@QAEXXZ 005160d0 f i recvmsg.obj
 0002:000431f0       ?_Mynode@const_iterator@?$_Tree@V?$_Tmap_traits@IUtagTeamData@@U?$less@I@std@@V?$allocator@U?$pair@$$CBIUtagTeamData@@@std@@@3@$0A@@std@@@std@@QBEPAU_Node@?$_Tree_nod@V?$_Tmap_traits@IUtagTeamData@@U?$less@I@std@@V?$allocator@U?$pair@$$CBIUtagTeamData@@@std@@@3@$0A@@std@@@3@XZ 005161f0 f i recvmsg.obj
 0002:00043230       ??Fiterator@?$_Tree@V?$_Tmap_traits@V?$basic_string@DU?$char_traits@D@std@@V?$allocator@D@2@@std@@UtagStadiumPlayer@@U?$less@V?$basic_string@DU?$char_traits@D@std@@V?$allocator@D@2@@std@@@2@V?$allocator@U?$pair@$$CBV?$basic_string@DU?$char_traits@D@std@@V?$allocator@D@2@@std@@UtagStadiumPlayer@@@std@@@2@$0A@@std@@@std@@QAEAAV012@XZ 00516230 f i recvmsg.obj
 0002:00043290       ??0const_iterator@?$_Tree@V?$_Tmap_traits@V?$basic_string@DU?$char_traits@D@std@@V?$allocator@D@2@@std@@UtagStadiumPlayer@@U?$less@V?$basic_string@DU?$char_traits@D@std@@V?$allocator@D@2@@std@@@2@V?$allocator@U?$pair@$$CBV?$basic_string@DU?$char_traits@D@std@@V?$allocator@D@2@@std@@UtagStadiumPlayer@@@std@@@2@$0A@@std@@@std@@QAE@PAU_Node@?$_Tree_nod@V?$_Tmap_traits@V?$basic_string@DU?$char_traits@D@std@@V?$allocator@D@2@@std@@UtagStadiumPlayer@@U?$less@V?$basic_string@DU?$char_traits@D@std@@V?$allocator@D@2@@std@@@2@V?$allocator@U?$pair@$$CBV?$basic_string@DU?$char_traits@D@std@@V?$allocator@D@2@@std@@UtagStadiumPlayer@@@std@@@2@$0A@@std@@@2@@Z 00516290 f i recvmsg.obj
 0002:000432e0       ?_Inc@const_iterator@?$_Tree@V?$_Tmap_traits@V?$basic_string@DU?$char_traits@D@std@@V?$allocator@D@2@@std@@UtagStadiumPlayer@@U?$less@V?$basic_string@DU?$char_traits@D@std@@V?$allocator@D@2@@std@@@2@V?$allocator@U?$pair@$$CBV?$basic_string@DU?$char_traits@D@std@@V?$allocator@D@2@@std@@UtagStadiumPlayer@@@std@@@2@$0A@@std@@@std@@QAEXXZ 005162e0 f i recvmsg.obj
 0002:00043400       ??0?$pair@Viterator@?$_Tree@V?$_Tmap_traits@V?$basic_string@DU?$char_traits@D@std@@V?$allocator@D@2@@std@@UtagStadiumPlayer@@U?$less@V?$basic_string@DU?$char_traits@D@std@@V?$allocator@D@2@@std@@@2@V?$allocator@U?$pair@$$CBV?$basic_string@DU?$char_traits@D@std@@V?$allocator@D@2@@std@@UtagStadiumPlayer@@@std@@@2@$0A@@std@@@std@@_N@std@@QAE@ABViterator@?$_Tree@V?$_Tmap_traits@V?$basic_string@DU?$char_traits@D@std@@V?$allocator@D@2@@std@@UtagStadiumPlayer@@U?$less@V?$basic_string@DU?$char_traits@D@std@@V?$allocator@D@2@@std@@@2@V?$allocator@U?$pair@$$CBV?$basic_string@DU?$char_traits@D@std@@V?$allocator@D@2@@std@@UtagStadiumPlayer@@@std@@@2@$0A@@std@@@1@AB_N@Z 00516400 f i recvmsg.obj
 0002:00043460       ??0?$pair@Viterator@?$_Tree@V?$_Tmap_traits@IUtagTeamData@@U?$less@I@std@@V?$allocator@U?$pair@$$CBIUtagTeamData@@@std@@@3@$0A@@std@@@std@@_N@std@@QAE@ABViterator@?$_Tree@V?$_Tmap_traits@IUtagTeamData@@U?$less@I@std@@V?$allocator@U?$pair@$$CBIUtagTeamData@@@std@@@3@$0A@@std@@@1@AB_N@Z 00516460 f i recvmsg.obj
 0002:000434c0       ?max_size@?$_Tree@V?$_Tmap_traits@V?$basic_string@DU?$char_traits@D@std@@V?$allocator@D@2@@std@@UtagStadiumPlayer@@U?$less@V?$basic_string@DU?$char_traits@D@std@@V?$allocator@D@2@@std@@@2@V?$allocator@U?$pair@$$CBV?$basic_string@DU?$char_traits@D@std@@V?$allocator@D@2@@std@@UtagStadiumPlayer@@@std@@@2@$0A@@std@@@std@@QBEIXZ 005164c0 f i recvmsg.obj
 0002:00043520       ?erase@?$_Tree@V?$_Tmap_traits@V?$basic_string@DU?$char_traits@D@std@@V?$allocator@D@2@@std@@UtagStadiumPlayer@@U?$less@V?$basic_string@DU?$char_traits@D@std@@V?$allocator@D@2@@std@@@2@V?$allocator@U?$pair@$$CBV?$basic_string@DU?$char_traits@D@std@@V?$allocator@D@2@@std@@UtagStadiumPlayer@@@std@@@2@$0A@@std@@@std@@QAE?AViterator@12@V312@0@Z 00516520 f i recvmsg.obj
 0002:00043630       ??Eiterator@?$_Tree@V?$_Tmap_traits@V?$basic_string@DU?$char_traits@D@std@@V?$allocator@D@2@@std@@UtagStadiumPlayer@@U?$less@V?$basic_string@DU?$char_traits@D@std@@V?$allocator@D@2@@std@@@2@V?$allocator@U?$pair@$$CBV?$basic_string@DU?$char_traits@D@std@@V?$allocator@D@2@@std@@UtagStadiumPlayer@@@std@@@2@$0A@@std@@@std@@QAE?AV012@H@Z 00516630 f i recvmsg.obj
 0002:000436d0       ?_Copy@?$_Tree@V?$_Tmap_traits@V?$basic_string@DU?$char_traits@D@std@@V?$allocator@D@2@@std@@UtagStadiumPlayer@@U?$less@V?$basic_string@DU?$char_traits@D@std@@V?$allocator@D@2@@std@@@2@V?$allocator@U?$pair@$$CBV?$basic_string@DU?$char_traits@D@std@@V?$allocator@D@2@@std@@UtagStadiumPlayer@@@std@@@2@$0A@@std@@@std@@IAEPAU_Node@?$_Tree_nod@V?$_Tmap_traits@V?$basic_string@DU?$char_traits@D@std@@V?$allocator@D@2@@std@@UtagStadiumPlayer@@U?$less@V?$basic_string@DU?$char_traits@D@std@@V?$allocator@D@2@@std@@@2@V?$allocator@U?$pair@$$CBV?$basic_string@DU?$char_traits@D@std@@V?$allocator@D@2@@std@@UtagStadiumPlayer@@@std@@@2@$0A@@std@@@2@PAU342@0@Z 005166d0 f i recvmsg.obj
 0002:000438d0       ?_Lbound@?$_Tree@V?$_Tmap_traits@V?$basic_string@DU?$char_traits@D@std@@V?$allocator@D@2@@std@@UtagStadiumPlayer@@U?$less@V?$basic_string@DU?$char_traits@D@std@@V?$allocator@D@2@@std@@@2@V?$allocator@U?$pair@$$CBV?$basic_string@DU?$char_traits@D@std@@V?$allocator@D@2@@std@@UtagStadiumPlayer@@@std@@@2@$0A@@std@@@std@@IBEPAU_Node@?$_Tree_nod@V?$_Tmap_traits@V?$basic_string@DU?$char_traits@D@std@@V?$allocator@D@2@@std@@UtagStadiumPlayer@@U?$less@V?$basic_string@DU?$char_traits@D@std@@V?$allocator@D@2@@std@@@2@V?$allocator@U?$pair@$$CBV?$basic_string@DU?$char_traits@D@std@@V?$allocator@D@2@@std@@UtagStadiumPlayer@@@std@@@2@$0A@@std@@@2@ABV?$basic_string@DU?$char_traits@D@std@@V?$allocator@D@2@@2@@Z 005168d0 f i recvmsg.obj
 0002:000439b0       ?_Root@?$_Tree@V?$_Tmap_traits@V?$basic_string@DU?$char_traits@D@std@@V?$allocator@D@2@@std@@UtagStadiumPlayer@@U?$less@V?$basic_string@DU?$char_traits@D@std@@V?$allocator@D@2@@std@@@2@V?$allocator@U?$pair@$$CBV?$basic_string@DU?$char_traits@D@std@@V?$allocator@D@2@@std@@UtagStadiumPlayer@@@std@@@2@$0A@@std@@@std@@IBEAAPAU_Node@?$_Tree_nod@V?$_Tmap_traits@V?$basic_string@DU?$char_traits@D@std@@V?$allocator@D@2@@std@@UtagStadiumPlayer@@U?$less@V?$basic_string@DU?$char_traits@D@std@@V?$allocator@D@2@@std@@@2@V?$allocator@U?$pair@$$CBV?$basic_string@DU?$char_traits@D@std@@V?$allocator@D@2@@std@@UtagStadiumPlayer@@@std@@@2@$0A@@std@@@2@XZ 005169b0 f i recvmsg.obj
 0002:00043a10       ?_Buynode@?$_Tree@V?$_Tmap_traits@V?$basic_string@DU?$char_traits@D@std@@V?$allocator@D@2@@std@@UtagStadiumPlayer@@U?$less@V?$basic_string@DU?$char_traits@D@std@@V?$allocator@D@2@@std@@@2@V?$allocator@U?$pair@$$CBV?$basic_string@DU?$char_traits@D@std@@V?$allocator@D@2@@std@@UtagStadiumPlayer@@@std@@@2@$0A@@std@@@std@@IAEPAU_Node@?$_Tree_nod@V?$_Tmap_traits@V?$basic_string@DU?$char_traits@D@std@@V?$allocator@D@2@@std@@UtagStadiumPlayer@@U?$less@V?$basic_string@DU?$char_traits@D@std@@V?$allocator@D@2@@std@@@2@V?$allocator@U?$pair@$$CBV?$basic_string@DU?$char_traits@D@std@@V?$allocator@D@2@@std@@UtagStadiumPlayer@@@std@@@2@$0A@@std@@@2@XZ 00516a10 f i recvmsg.obj
 0002:00043c30       ?_Buynode@?$_Tree@V?$_Tmap_traits@V?$basic_string@DU?$char_traits@D@std@@V?$allocator@D@2@@std@@UtagStadiumPlayer@@U?$less@V?$basic_string@DU?$char_traits@D@std@@V?$allocator@D@2@@std@@@2@V?$allocator@U?$pair@$$CBV?$basic_string@DU?$char_traits@D@std@@V?$allocator@D@2@@std@@UtagStadiumPlayer@@@std@@@2@$0A@@std@@@std@@IAEPAU_Node@?$_Tree_nod@V?$_Tmap_traits@V?$basic_string@DU?$char_traits@D@std@@V?$allocator@D@2@@std@@UtagStadiumPlayer@@U?$less@V?$basic_string@DU?$char_traits@D@std@@V?$allocator@D@2@@std@@@2@V?$allocator@U?$pair@$$CBV?$basic_string@DU?$char_traits@D@std@@V?$allocator@D@2@@std@@UtagStadiumPlayer@@@std@@@2@$0A@@std@@@2@PAU342@00ABU?$pair@$$CBV?$basic_string@DU?$char_traits@D@std@@V?$allocator@D@2@@std@@UtagStadiumPlayer@@@2@D@Z 00516c30 f i recvmsg.obj
 0002:00043d90       ??0?$_Tree_ptr@V?$_Tmap_traits@V?$basic_string@DU?$char_traits@D@std@@V?$allocator@D@2@@std@@UtagStadiumPlayer@@U?$less@V?$basic_string@DU?$char_traits@D@std@@V?$allocator@D@2@@std@@@2@V?$allocator@U?$pair@$$CBV?$basic_string@DU?$char_traits@D@std@@V?$allocator@D@2@@std@@UtagStadiumPlayer@@@std@@@2@$0A@@std@@@std@@IAE@ABU?$less@V?$basic_string@DU?$char_traits@D@std@@V?$allocator@D@2@@std@@@1@V?$allocator@U?$pair@$$CBV?$basic_string@DU?$char_traits@D@std@@V?$allocator@D@2@@std@@UtagStadiumPlayer@@@std@@@1@@Z 00516d90 f i recvmsg.obj
 0002:00043e10       ??0?$allocator@U?$pair@$$CBV?$basic_string@DU?$char_traits@D@std@@V?$allocator@D@2@@std@@UtagStadiumPlayer@@@std@@@std@@QAE@ABV01@@Z 00516e10 f i recvmsg.obj
 0002:00043e50       ?destroy@?$allocator@PAU_Node@?$_Tree_nod@V?$_Tmap_traits@V?$basic_string@DU?$char_traits@D@std@@V?$allocator@D@2@@std@@UtagStadiumPlayer@@U?$less@V?$basic_string@DU?$char_traits@D@std@@V?$allocator@D@2@@std@@@2@V?$allocator@U?$pair@$$CBV?$basic_string@DU?$char_traits@D@std@@V?$allocator@D@2@@std@@UtagStadiumPlayer@@@std@@@2@$0A@@std@@@std@@@std@@QAEXPAPAU_Node@?$_Tree_nod@V?$_Tmap_traits@V?$basic_string@DU?$char_traits@D@std@@V?$allocator@D@2@@std@@UtagStadiumPlayer@@U?$less@V?$basic_string@DU?$char_traits@D@std@@V?$allocator@D@2@@std@@@2@V?$allocator@U?$pair@$$CBV?$basic_string@DU?$char_traits@D@std@@V?$allocator@D@2@@std@@UtagStadiumPlayer@@@std@@@2@$0A@@std@@@2@@Z 00516e50 f i recvmsg.obj
 0002:00043eb0       ?max_size@?$_Tree@V?$_Tmap_traits@IUtagTeamData@@U?$less@I@std@@V?$allocator@U?$pair@$$CBIUtagTeamData@@@std@@@3@$0A@@std@@@std@@QBEIXZ 00516eb0 f i recvmsg.obj
 0002:00043f10       ?erase@?$_Tree@V?$_Tmap_traits@IUtagTeamData@@U?$less@I@std@@V?$allocator@U?$pair@$$CBIUtagTeamData@@@std@@@3@$0A@@std@@@std@@QAE?AViterator@12@V312@0@Z 00516f10 f i recvmsg.obj
 0002:00044020       ?clear@?$_Tree@V?$_Tmap_traits@IUtagTeamData@@U?$less@I@std@@V?$allocator@U?$pair@$$CBIUtagTeamData@@@std@@@3@$0A@@std@@@std@@QAEXXZ 00517020 f i recvmsg.obj
 0002:000440d0       ?_Erase@?$_Tree@V?$_Tmap_traits@IUtagTeamData@@U?$less@I@std@@V?$allocator@U?$pair@$$CBIUtagTeamData@@@std@@@3@$0A@@std@@@std@@IAEXPAU_Node@?$_Tree_nod@V?$_Tmap_traits@IUtagTeamData@@U?$less@I@std@@V?$allocator@U?$pair@$$CBIUtagTeamData@@@std@@@3@$0A@@std@@@2@@Z 005170d0 f i recvmsg.obj
 0002:000441a0       ?_Lbound@?$_Tree@V?$_Tmap_traits@IUtagTeamData@@U?$less@I@std@@V?$allocator@U?$pair@$$CBIUtagTeamData@@@std@@@3@$0A@@std@@@std@@IBEPAU_Node@?$_Tree_nod@V?$_Tmap_traits@IUtagTeamData@@U?$less@I@std@@V?$allocator@U?$pair@$$CBIUtagTeamData@@@std@@@3@$0A@@std@@@2@ABI@Z 005171a0 f i recvmsg.obj
 0002:00044280       ?_Buynode@?$_Tree@V?$_Tmap_traits@IUtagTeamData@@U?$less@I@std@@V?$allocator@U?$pair@$$CBIUtagTeamData@@@std@@@3@$0A@@std@@@std@@IAEPAU_Node@?$_Tree_nod@V?$_Tmap_traits@IUtagTeamData@@U?$less@I@std@@V?$allocator@U?$pair@$$CBIUtagTeamData@@@std@@@3@$0A@@std@@@2@PAU342@00ABU?$pair@$$CBIUtagTeamData@@@2@D@Z 00517280 f i recvmsg.obj
 0002:000443e0       ?destroy@?$allocator@PAU_Node@?$_Tree_nod@V?$_Tmap_traits@IUtagTeamData@@U?$less@I@std@@V?$allocator@U?$pair@$$CBIUtagTeamData@@@std@@@3@$0A@@std@@@std@@@std@@QAEXPAPAU_Node@?$_Tree_nod@V?$_Tmap_traits@IUtagTeamData@@U?$less@I@std@@V?$allocator@U?$pair@$$CBIUtagTeamData@@@std@@@3@$0A@@std@@@2@@Z 005173e0 f i recvmsg.obj
 0002:00044440       ??Fconst_iterator@?$_Tree@V?$_Tmap_traits@IUtagTeamData@@U?$less@I@std@@V?$allocator@U?$pair@$$CBIUtagTeamData@@@std@@@3@$0A@@std@@@std@@QAEAAV012@XZ 00517440 f i recvmsg.obj
 0002:000444a0       ??Fconst_iterator@?$_Tree@V?$_Tmap_traits@V?$basic_string@DU?$char_traits@D@std@@V?$allocator@D@2@@std@@UtagStadiumPlayer@@U?$less@V?$basic_string@DU?$char_traits@D@std@@V?$allocator@D@2@@std@@@2@V?$allocator@U?$pair@$$CBV?$basic_string@DU?$char_traits@D@std@@V?$allocator@D@2@@std@@UtagStadiumPlayer@@@std@@@2@$0A@@std@@@std@@QAEAAV012@XZ 005174a0 f i recvmsg.obj
 0002:00044500       ?clear@?$_Tree@V?$_Tmap_traits@V?$basic_string@DU?$char_traits@D@std@@V?$allocator@D@2@@std@@UtagStadiumPlayer@@U?$less@V?$basic_string@DU?$char_traits@D@std@@V?$allocator@D@2@@std@@@2@V?$allocator@U?$pair@$$CBV?$basic_string@DU?$char_traits@D@std@@V?$allocator@D@2@@std@@UtagStadiumPlayer@@@std@@@2@$0A@@std@@@std@@QAEXXZ 00517500 f i recvmsg.obj
 0002:000445b0       ?_Erase@?$_Tree@V?$_Tmap_traits@V?$basic_string@DU?$char_traits@D@std@@V?$allocator@D@2@@std@@UtagStadiumPlayer@@U?$less@V?$basic_string@DU?$char_traits@D@std@@V?$allocator@D@2@@std@@@2@V?$allocator@U?$pair@$$CBV?$basic_string@DU?$char_traits@D@std@@V?$allocator@D@2@@std@@UtagStadiumPlayer@@@std@@@2@$0A@@std@@@std@@IAEXPAU_Node@?$_Tree_nod@V?$_Tmap_traits@V?$basic_string@DU?$char_traits@D@std@@V?$allocator@D@2@@std@@UtagStadiumPlayer@@U?$less@V?$basic_string@DU?$char_traits@D@std@@V?$allocator@D@2@@std@@@2@V?$allocator@U?$pair@$$CBV?$basic_string@DU?$char_traits@D@std@@V?$allocator@D@2@@std@@UtagStadiumPlayer@@@std@@@2@$0A@@std@@@2@@Z 005175b0 f i recvmsg.obj
 0002:00044680       ??0?$_Tree_nod@V?$_Tmap_traits@V?$basic_string@DU?$char_traits@D@std@@V?$allocator@D@2@@std@@UtagStadiumPlayer@@U?$less@V?$basic_string@DU?$char_traits@D@std@@V?$allocator@D@2@@std@@@2@V?$allocator@U?$pair@$$CBV?$basic_string@DU?$char_traits@D@std@@V?$allocator@D@2@@std@@UtagStadiumPlayer@@@std@@@2@$0A@@std@@@std@@IAE@ABU?$less@V?$basic_string@DU?$char_traits@D@std@@V?$allocator@D@2@@std@@@1@V?$allocator@U?$pair@$$CBV?$basic_string@DU?$char_traits@D@std@@V?$allocator@D@2@@std@@UtagStadiumPlayer@@@std@@@1@@Z 00517680 f i recvmsg.obj
 0002:000446f0       ?max_size@?$allocator@U?$pair@$$CBV?$basic_string@DU?$char_traits@D@std@@V?$allocator@D@2@@std@@UtagStadiumPlayer@@@std@@@std@@QBEIXZ 005176f0 f i recvmsg.obj
 0002:00044760       ?allocate@?$allocator@U_Node@?$_Tree_nod@V?$_Tmap_traits@V?$basic_string@DU?$char_traits@D@std@@V?$allocator@D@2@@std@@UtagStadiumPlayer@@U?$less@V?$basic_string@DU?$char_traits@D@std@@V?$allocator@D@2@@std@@@2@V?$allocator@U?$pair@$$CBV?$basic_string@DU?$char_traits@D@std@@V?$allocator@D@2@@std@@UtagStadiumPlayer@@@std@@@2@$0A@@std@@@std@@@std@@QAEPAU_Node@?$_Tree_nod@V?$_Tmap_traits@V?$basic_string@DU?$char_traits@D@std@@V?$allocator@D@2@@std@@UtagStadiumPlayer@@U?$less@V?$basic_string@DU?$char_traits@D@std@@V?$allocator@D@2@@std@@@2@V?$allocator@U?$pair@$$CBV?$basic_string@DU?$char_traits@D@std@@V?$allocator@D@2@@std@@UtagStadiumPlayer@@@std@@@2@$0A@@std@@@2@I@Z 00517760 f i recvmsg.obj
 0002:000447c0       ?construct@?$allocator@PAU_Node@?$_Tree_nod@V?$_Tmap_traits@V?$basic_string@DU?$char_traits@D@std@@V?$allocator@D@2@@std@@UtagStadiumPlayer@@U?$less@V?$basic_string@DU?$char_traits@D@std@@V?$allocator@D@2@@std@@@2@V?$allocator@U?$pair@$$CBV?$basic_string@DU?$char_traits@D@std@@V?$allocator@D@2@@std@@UtagStadiumPlayer@@@std@@@2@$0A@@std@@@std@@@std@@QAEXPAPAU_Node@?$_Tree_nod@V?$_Tmap_traits@V?$basic_string@DU?$char_traits@D@std@@V?$allocator@D@2@@std@@UtagStadiumPlayer@@U?$less@V?$basic_string@DU?$char_traits@D@std@@V?$allocator@D@2@@std@@@2@V?$allocator@U?$pair@$$CBV?$basic_string@DU?$char_traits@D@std@@V?$allocator@D@2@@std@@UtagStadiumPlayer@@@std@@@2@$0A@@std@@@2@ABQAU342@@Z 005177c0 f i recvmsg.obj
 0002:00044820       ?_Root@?$_Tree@V?$_Tmap_traits@IUtagTeamData@@U?$less@I@std@@V?$allocator@U?$pair@$$CBIUtagTeamData@@@std@@@3@$0A@@std@@@std@@IBEAAPAU_Node@?$_Tree_nod@V?$_Tmap_traits@IUtagTeamData@@U?$less@I@std@@V?$allocator@U?$pair@$$CBIUtagTeamData@@@std@@@3@$0A@@std@@@2@XZ 00517820 f i recvmsg.obj
 0002:00044880       ?max_size@?$allocator@U?$pair@$$CBIUtagTeamData@@@std@@@std@@QBEIXZ 00517880 f i recvmsg.obj
 0002:000448f0       ?allocate@?$allocator@U_Node@?$_Tree_nod@V?$_Tmap_traits@IUtagTeamData@@U?$less@I@std@@V?$allocator@U?$pair@$$CBIUtagTeamData@@@std@@@3@$0A@@std@@@std@@@std@@QAEPAU_Node@?$_Tree_nod@V?$_Tmap_traits@IUtagTeamData@@U?$less@I@std@@V?$allocator@U?$pair@$$CBIUtagTeamData@@@std@@@3@$0A@@std@@@2@I@Z 005178f0 f i recvmsg.obj
 0002:00044950       ??Eiterator@?$_Tree@V?$_Tmap_traits@IUtagTeamData@@U?$less@I@std@@V?$allocator@U?$pair@$$CBIUtagTeamData@@@std@@@3@$0A@@std@@@std@@QAE?AV012@H@Z 00517950 f i recvmsg.obj
 0002:000449f0       ?_Dec@const_iterator@?$_Tree@V?$_Tmap_traits@IUtagTeamData@@U?$less@I@std@@V?$allocator@U?$pair@$$CBIUtagTeamData@@@std@@@3@$0A@@std@@@std@@QAEXXZ 005179f0 f i recvmsg.obj
 0002:00044b40       ?_Dec@const_iterator@?$_Tree@V?$_Tmap_traits@V?$basic_string@DU?$char_traits@D@std@@V?$allocator@D@2@@std@@UtagStadiumPlayer@@U?$less@V?$basic_string@DU?$char_traits@D@std@@V?$allocator@D@2@@std@@@2@V?$allocator@U?$pair@$$CBV?$basic_string@DU?$char_traits@D@std@@V?$allocator@D@2@@std@@UtagStadiumPlayer@@@std@@@2@$0A@@std@@@std@@QAEXXZ 00517b40 f i recvmsg.obj
 0002:00044c90       ??0_Node@?$_Tree_nod@V?$_Tmap_traits@V?$basic_string@DU?$char_traits@D@std@@V?$allocator@D@2@@std@@UtagStadiumPlayer@@U?$less@V?$basic_string@DU?$char_traits@D@std@@V?$allocator@D@2@@std@@@2@V?$allocator@U?$pair@$$CBV?$basic_string@DU?$char_traits@D@std@@V?$allocator@D@2@@std@@UtagStadiumPlayer@@@std@@@2@$0A@@std@@@std@@QAE@PAU012@00ABU?$pair@$$CBV?$basic_string@DU?$char_traits@D@std@@V?$allocator@D@2@@std@@UtagStadiumPlayer@@@2@D@Z 00517c90 f i recvmsg.obj
 0002:00044d30       ??0_Node@?$_Tree_nod@V?$_Tmap_traits@IUtagTeamData@@U?$less@I@std@@V?$allocator@U?$pair@$$CBIUtagTeamData@@@std@@@3@$0A@@std@@@std@@QAE@PAU012@00ABU?$pair@$$CBIUtagTeamData@@@2@D@Z 00517d30 f i recvmsg.obj
 0002:00044dd0       ??0?$pair@$$CBV?$basic_string@DU?$char_traits@D@std@@V?$allocator@D@2@@std@@UtagStadiumPlayer@@@std@@QAE@ABU01@@Z 00517dd0 f i recvmsg.obj
 0002:00044e50       ??0?$pair@$$CBIUtagTeamData@@@std@@QAE@ABU01@@Z 00517e50 f i recvmsg.obj
 0002:00044ec0       ??0?$_Tmap_traits@V?$basic_string@DU?$char_traits@D@std@@V?$allocator@D@2@@std@@UtagStadiumPlayer@@U?$less@V?$basic_string@DU?$char_traits@D@std@@V?$allocator@D@2@@std@@@2@V?$allocator@U?$pair@$$CBV?$basic_string@DU?$char_traits@D@std@@V?$allocator@D@2@@std@@UtagStadiumPlayer@@@std@@@2@$0A@@std@@QAE@U?$less@V?$basic_string@DU?$char_traits@D@std@@V?$allocator@D@2@@std@@@1@@Z 00517ec0 f i recvmsg.obj
 0002:00044f00       ??$make_pair@V?$basic_string@DU?$char_traits@D@std@@V?$allocator@D@2@@std@@UtagStadiumPlayer@@@std@@YA?AU?$pair@V?$basic_string@DU?$char_traits@D@std@@V?$allocator@D@2@@std@@UtagStadiumPlayer@@@0@V?$basic_string@DU?$char_traits@D@std@@V?$allocator@D@2@@0@UtagStadiumPlayer@@@Z 00517f00 f i recvmsg.obj
 0002:00044fc0       ??$?0V?$basic_string@DU?$char_traits@D@std@@V?$allocator@D@2@@std@@UtagStadiumPlayer@@@?$pair@$$CBV?$basic_string@DU?$char_traits@D@std@@V?$allocator@D@2@@std@@UtagStadiumPlayer@@@std@@QAE@ABU?$pair@V?$basic_string@DU?$char_traits@D@std@@V?$allocator@D@2@@std@@UtagStadiumPlayer@@@1@@Z 00517fc0 f i recvmsg.obj
 0002:00045040       ??$make_pair@IUtagTeamData@@@std@@YA?AU?$pair@IUtagTeamData@@@0@IUtagTeamData@@@Z 00518040 f i recvmsg.obj
 0002:00045100       ??$?0IUtagTeamData@@@?$pair@$$CBIUtagTeamData@@@std@@QAE@ABU?$pair@IUtagTeamData@@@1@@Z 00518100 f i recvmsg.obj
 0002:00045170       ??$_Destroy@U_Node@?$_Tree_nod@V?$_Tmap_traits@V?$basic_string@DU?$char_traits@D@std@@V?$allocator@D@2@@std@@UtagStadiumPlayer@@U?$less@V?$basic_string@DU?$char_traits@D@std@@V?$allocator@D@2@@std@@@2@V?$allocator@U?$pair@$$CBV?$basic_string@DU?$char_traits@D@std@@V?$allocator@D@2@@std@@UtagStadiumPlayer@@@std@@@2@$0A@@std@@@std@@@std@@YAXPAU_Node@?$_Tree_nod@V?$_Tmap_traits@V?$basic_string@DU?$char_traits@D@std@@V?$allocator@D@2@@std@@UtagStadiumPlayer@@U?$less@V?$basic_string@DU?$char_traits@D@std@@V?$allocator@D@2@@std@@@2@V?$allocator@U?$pair@$$CBV?$basic_string@DU?$char_traits@D@std@@V?$allocator@D@2@@std@@UtagStadiumPlayer@@@std@@@2@$0A@@std@@@0@@Z 00518170 f i recvmsg.obj
 0002:000451c0       ??$?MDU?$char_traits@D@std@@V?$allocator@D@1@@std@@YA_NABV?$basic_string@DU?$char_traits@D@std@@V?$allocator@D@2@@0@0@Z 005181c0 f i recvmsg.obj
 0002:00045220       ??$_Destroy@U_Node@?$_Tree_nod@V?$_Tmap_traits@IUtagTeamData@@U?$less@I@std@@V?$allocator@U?$pair@$$CBIUtagTeamData@@@std@@@3@$0A@@std@@@std@@@std@@YAXPAU_Node@?$_Tree_nod@V?$_Tmap_traits@IUtagTeamData@@U?$less@I@std@@V?$allocator@U?$pair@$$CBIUtagTeamData@@@std@@@3@$0A@@std@@@0@@Z 00518220 f i recvmsg.obj
 0002:00045270       ??$?0U?$pair@$$CBV?$basic_string@DU?$char_traits@D@std@@V?$allocator@D@2@@std@@UtagStadiumPlayer@@@std@@@?$allocator@PAU_Node@?$_Tree_nod@V?$_Tmap_traits@V?$basic_string@DU?$char_traits@D@std@@V?$allocator@D@2@@std@@UtagStadiumPlayer@@U?$less@V?$basic_string@DU?$char_traits@D@std@@V?$allocator@D@2@@std@@@2@V?$allocator@U?$pair@$$CBV?$basic_string@DU?$char_traits@D@std@@V?$allocator@D@2@@std@@UtagStadiumPlayer@@@std@@@2@$0A@@std@@@std@@@std@@QAE@ABV?$allocator@U?$pair@$$CBV?$basic_string@DU?$char_traits@D@std@@V?$allocator@D@2@@std@@UtagStadiumPlayer@@@std@@@1@@Z 00518270 f i recvmsg.obj
 0002:000452b0       ??$_Destroy@PAU_Node@?$_Tree_nod@V?$_Tmap_traits@V?$basic_string@DU?$char_traits@D@std@@V?$allocator@D@2@@std@@UtagStadiumPlayer@@U?$less@V?$basic_string@DU?$char_traits@D@std@@V?$allocator@D@2@@std@@@2@V?$allocator@U?$pair@$$CBV?$basic_string@DU?$char_traits@D@std@@V?$allocator@D@2@@std@@UtagStadiumPlayer@@@std@@@2@$0A@@std@@@std@@@std@@YAXPAPAU_Node@?$_Tree_nod@V?$_Tmap_traits@V?$basic_string@DU?$char_traits@D@std@@V?$allocator@D@2@@std@@UtagStadiumPlayer@@U?$less@V?$basic_string@DU?$char_traits@D@std@@V?$allocator@D@2@@std@@@2@V?$allocator@U?$pair@$$CBV?$basic_string@DU?$char_traits@D@std@@V?$allocator@D@2@@std@@UtagStadiumPlayer@@@std@@@2@$0A@@std@@@0@@Z 005182b0 f i recvmsg.obj
 0002:000452e0       ??$_Destroy@PAU_Node@?$_Tree_nod@V?$_Tmap_traits@IUtagTeamData@@U?$less@I@std@@V?$allocator@U?$pair@$$CBIUtagTeamData@@@std@@@3@$0A@@std@@@std@@@std@@YAXPAPAU_Node@?$_Tree_nod@V?$_Tmap_traits@IUtagTeamData@@U?$less@I@std@@V?$allocator@U?$pair@$$CBIUtagTeamData@@@std@@@3@$0A@@std@@@0@@Z 005182e0 f i recvmsg.obj
 0002:00045310       ??$?0U?$pair@$$CBV?$basic_string@DU?$char_traits@D@std@@V?$allocator@D@2@@std@@UtagStadiumPlayer@@@std@@@?$allocator@U_Node@?$_Tree_nod@V?$_Tmap_traits@V?$basic_string@DU?$char_traits@D@std@@V?$allocator@D@2@@std@@UtagStadiumPlayer@@U?$less@V?$basic_string@DU?$char_traits@D@std@@V?$allocator@D@2@@std@@@2@V?$allocator@U?$pair@$$CBV?$basic_string@DU?$char_traits@D@std@@V?$allocator@D@2@@std@@UtagStadiumPlayer@@@std@@@2@$0A@@std@@@std@@@std@@QAE@ABV?$allocator@U?$pair@$$CBV?$basic_string@DU?$char_traits@D@std@@V?$allocator@D@2@@std@@UtagStadiumPlayer@@@std@@@1@@Z 00518310 f i recvmsg.obj
 0002:00045350       ??$_Allocate@U_Node@?$_Tree_nod@V?$_Tmap_traits@V?$basic_string@DU?$char_traits@D@std@@V?$allocator@D@2@@std@@UtagStadiumPlayer@@U?$less@V?$basic_string@DU?$char_traits@D@std@@V?$allocator@D@2@@std@@@2@V?$allocator@U?$pair@$$CBV?$basic_string@DU?$char_traits@D@std@@V?$allocator@D@2@@std@@UtagStadiumPlayer@@@std@@@2@$0A@@std@@@std@@@std@@YAPAU_Node@?$_Tree_nod@V?$_Tmap_traits@V?$basic_string@DU?$char_traits@D@std@@V?$allocator@D@2@@std@@UtagStadiumPlayer@@U?$less@V?$basic_string@DU?$char_traits@D@std@@V?$allocator@D@2@@std@@@2@V?$allocator@U?$pair@$$CBV?$basic_string@DU?$char_traits@D@std@@V?$allocator@D@2@@std@@UtagStadiumPlayer@@@std@@@2@$0A@@std@@@0@IPAU120@@Z 00518350 f i recvmsg.obj
 0002:000453b0       ??$_Construct@PAU_Node@?$_Tree_nod@V?$_Tmap_traits@V?$basic_string@DU?$char_traits@D@std@@V?$allocator@D@2@@std@@UtagStadiumPlayer@@U?$less@V?$basic_string@DU?$char_traits@D@std@@V?$allocator@D@2@@std@@@2@V?$allocator@U?$pair@$$CBV?$basic_string@DU?$char_traits@D@std@@V?$allocator@D@2@@std@@UtagStadiumPlayer@@@std@@@2@$0A@@std@@@std@@PAU123@@std@@YAXPAPAU_Node@?$_Tree_nod@V?$_Tmap_traits@V?$basic_string@DU?$char_traits@D@std@@V?$allocator@D@2@@std@@UtagStadiumPlayer@@U?$less@V?$basic_string@DU?$char_traits@D@std@@V?$allocator@D@2@@std@@@2@V?$allocator@U?$pair@$$CBV?$basic_string@DU?$char_traits@D@std@@V?$allocator@D@2@@std@@UtagStadiumPlayer@@@std@@@2@$0A@@std@@@0@ABQAU120@@Z 005183b0 f i recvmsg.obj
 0002:00045450       ??$_Allocate@U_Node@?$_Tree_nod@V?$_Tmap_traits@IUtagTeamData@@U?$less@I@std@@V?$allocator@U?$pair@$$CBIUtagTeamData@@@std@@@3@$0A@@std@@@std@@@std@@YAPAU_Node@?$_Tree_nod@V?$_Tmap_traits@IUtagTeamData@@U?$less@I@std@@V?$allocator@U?$pair@$$CBIUtagTeamData@@@std@@@3@$0A@@std@@@0@IPAU120@@Z 00518450 f i recvmsg.obj
 0002:000454b0       ??_G_Node@?$_Tree_nod@V?$_Tmap_traits@V?$basic_string@DU?$char_traits@D@std@@V?$allocator@D@2@@std@@UtagStadiumPlayer@@U?$less@V?$basic_string@DU?$char_traits@D@std@@V?$allocator@D@2@@std@@@2@V?$allocator@U?$pair@$$CBV?$basic_string@DU?$char_traits@D@std@@V?$allocator@D@2@@std@@UtagStadiumPlayer@@@std@@@2@$0A@@std@@@std@@QAEPAXI@Z 005184b0 f i recvmsg.obj
 0002:00045520       ??_G_Node@?$_Tree_nod@V?$_Tmap_traits@IUtagTeamData@@U?$less@I@std@@V?$allocator@U?$pair@$$CBIUtagTeamData@@@std@@@3@$0A@@std@@@std@@QAEPAXI@Z 00518520 f i recvmsg.obj
 0002:00045590       ??1_Node@?$_Tree_nod@V?$_Tmap_traits@V?$basic_string@DU?$char_traits@D@std@@V?$allocator@D@2@@std@@UtagStadiumPlayer@@U?$less@V?$basic_string@DU?$char_traits@D@std@@V?$allocator@D@2@@std@@@2@V?$allocator@U?$pair@$$CBV?$basic_string@DU?$char_traits@D@std@@V?$allocator@D@2@@std@@UtagStadiumPlayer@@@std@@@2@$0A@@std@@@std@@QAE@XZ 00518590 f i recvmsg.obj
 0002:000455f0       ??1_Node@?$_Tree_nod@V?$_Tmap_traits@IUtagTeamData@@U?$less@I@std@@V?$allocator@U?$pair@$$CBIUtagTeamData@@@std@@@3@$0A@@std@@@std@@QAE@XZ 005185f0 f i recvmsg.obj
 0002:00045650       ?compare@?$basic_string@DU?$char_traits@D@std@@V?$allocator@D@2@@std@@QBEHABV12@@Z 00518650 f i recvmsg.obj
 0002:000456d0       ??0?$pair@V?$basic_string@DU?$char_traits@D@std@@V?$allocator@D@2@@std@@UtagStadiumPlayer@@@std@@QAE@ABV?$basic_string@DU?$char_traits@D@std@@V?$allocator@D@2@@1@ABUtagStadiumPlayer@@@Z 005186d0 f i recvmsg.obj
 0002:00045750       ??0?$pair@IUtagTeamData@@@std@@QAE@ABIABUtagTeamData@@@Z 00518750 f i recvmsg.obj
 0002:000457c0       ?compare@?$basic_string@DU?$char_traits@D@std@@V?$allocator@D@2@@std@@QBEHIIPBDI@Z 005187c0 f i recvmsg.obj
 0002:00045910       ?RemoveAtList@?$CAbyssHash@U__tag_party_table__@@@@QAEXPAU?$ListNode@U__tag_party_table__@@@@@Z 00518910 f i recvmsg.obj
 0002:000459e0       ?RemoveAtList@?$CAbyssHash@U__tag_partyboard_table__@@@@QAEXPAU?$ListNode@U__tag_partyboard_table__@@@@@Z 005189e0 f i recvmsg.obj
 0002:00045ab0       ?AddList@?$CAbyssHash@UGUILD_OFFLINE_USER@@@@QAEPAU?$ListNode@UGUILD_OFFLINE_USER@@@@PAUGUILD_OFFLINE_USER@@@Z 00518ab0 f i recvmsg.obj
 0002:00045bb0       ?RemoveAtList@?$CAbyssHash@VCWorldUser@@@@QAEXPAU?$ListNode@VCWorldUser@@@@@Z 00518bb0 f i recvmsg.obj
 0002:00045c80       ?RemoveAtList@?$CAbyssHash@U__tag_messenger_table__@@@@QAEXPAU?$ListNode@U__tag_messenger_table__@@@@@Z 00518c80 f i recvmsg.obj
 0002:00045d50       ?compare@?$char_traits@D@std@@SAHPBD0I@Z 00518d50 f i recvmsg.obj
 0002:00045db0       ??0WSTDS_PARTY_MSG@@QAE@XZ 00518db0 f i recvmsg.obj
 0002:00045e00       ?GetPacketSize@WSTDS_PARTY_MSG@@QAEKXZ 00518e00 f i recvmsg.obj
 0002:00045e40       ??0WSTDS_PARTY_BOARD@@QAE@XZ 00518e40 f i recvmsg.obj
 0002:00045e90       ?GetPacketSize@WSTDS_PARTY_BOARD@@QAEKXZ 00518e90 f i recvmsg.obj
 0002:00045ed0       ??0WSTDS_PARTY_LEADER@@QAE@XZ 00518ed0 f i recvmsg.obj
 0002:00045f20       ?GetPacketSize@WSTDS_PARTY_LEADER@@QAEKXZ 00518f20 f i recvmsg.obj
 0002:00045f60       ??0WSTC_GUILD_USERINFODEL@@QAE@XZ 00518f60 f i recvmsg.obj
 0002:00045fb0       ?GetPacketSize@WSTC_GUILD_USERINFODEL@@QAEKXZ 00518fb0 f i recvmsg.obj
 0002:00045ff0       ??0WSTC_PARTY_LOGOUT@@QAE@XZ 00518ff0 f i recvmsg.obj
 0002:00046040       ?GetPacketSize@WSTC_PARTY_LOGOUT@@QAEKXZ 00519040 f i recvmsg.obj
 0002:00046080       ??0WSTC_PARTY_LEADER@@QAE@XZ 00519080 f i recvmsg.obj
 0002:000460d0       ?GetPacketSize@WSTC_PARTY_LEADER@@QAEKXZ 005190d0 f i recvmsg.obj
 0002:00046110       ?_AtlGetThreadACPThunk@ATL@@YGIXZ 00519110 f i ServerFunction.obj
 0002:00046210       ?InterlockedExchangePointer@@YGPAXPAPAXPAX@Z 00519210 f i ServerFunction.obj
 0002:00046270       ?_AtlGetThreadACPFake@ATL@@YGIXZ 00519270 f i ServerFunction.obj
 0002:00046390       ?_AtlGetThreadACPReal@ATL@@YGIXZ 00519390 f i ServerFunction.obj
 0002:000463d0       ?GetDBResult@@YGXK@Z       005193d0 f   ServerFunction.obj
 0002:00046440       ?DisplayDBMessage@@YAXPAD@Z 00519440 f   ServerFunction.obj
 0002:00046530       ?DisplayDBReport@@YAXPAD@Z 00519530 f   ServerFunction.obj
 0002:00046590       ?SendNoticeMessageProcess@@YAXXZ 00519590 f   ServerFunction.obj
 0002:00046880       ?InitOleDBThread@@YAXXZ    00519880 f   ServerFunction.obj
 0002:00046bf0       ?TerminateServer@@YAXXZ    00519bf0 f   ServerFunction.obj
 0002:00047960       ?GetPortForUser@COwnServer@@QAEGXZ 0051a960 f i ServerFunction.obj
 0002:000479b0       ?GetIPForUser@COwnServer@@QAEPADXZ 0051a9b0 f i ServerFunction.obj
 0002:000479f0       ??_GCAcceptTable@@QAEPAXI@Z 0051a9f0 f i ServerFunction.obj
 0002:00047a60       ??_GCDungeonTable@@QAEPAXI@Z 0051aa60 f i ServerFunction.obj
 0002:00047ad0       ??_GCEventDungeonManager@@QAEPAXI@Z 0051aad0 f i ServerFunction.obj
 0002:00047b40       ??_GCMap@@QAEPAXI@Z        0051ab40 f i ServerFunction.obj
 0002:00047bb0       ??_GCWorldUserTable@@QAEPAXI@Z 0051abb0 f i ServerFunction.obj
 0002:00047c20       ??_GCServerTable@@QAEPAXI@Z 0051ac20 f i ServerFunction.obj
 0002:00047c90       ??_GCOwnServer@@QAEPAXI@Z  0051ac90 f i ServerFunction.obj
 0002:00047d00       ?TimerPerSec@@YGXK@Z       0051ad00 f   ServerFunction.obj
 0002:00047f20       ?EnableDoubleExp@@YGXK@Z   0051af20 f   ServerFunction.obj
 0002:00047fd0       ?DisableDoubleExp@@YGXK@Z  0051afd0 f   ServerFunction.obj
 0002:00048080       ?IncreaseMagicDropRate@@YGXK@Z 0051b080 f   ServerFunction.obj
 0002:00048180       ?DecreaseMagicDropRate@@YGXK@Z 0051b180 f   ServerFunction.obj
 0002:00048290       ?IncreaseExpGain@@YGXK@Z   0051b290 f   ServerFunction.obj
 0002:00048390       ?DecreaseExpGain@@YGXK@Z   0051b390 f   ServerFunction.obj
 0002:000484a0       ?IncreasePartyBonusExpGain@@YGXK@Z 0051b4a0 f   ServerFunction.obj
 0002:000485a0       ?DecreasePartyBonusExpGain@@YGXK@Z 0051b5a0 f   ServerFunction.obj
 0002:000486b0       ?GuildMaster@@YGXK@Z       0051b6b0 f   ServerFunction.obj
 0002:000494c0       ?ShutDownServer@@YGXK@Z    0051c4c0 f   ServerFunction.obj
 0002:00049510       ?ConnectToLoginAgentServer@@YAXXZ 0051c510 f   ServerFunction.obj
 0002:000495a0       ?ListenForUserside@@YAXXZ  0051c5a0 f   ServerFunction.obj
 0002:00049700       ?ListenForServerside@@YAXXZ 0051c700 f   ServerFunction.obj
 0002:00049840       ?GetPortForServer@COwnServer@@QAEGXZ 0051c840 f i ServerFunction.obj
 0002:00049890       ?GetIPForServer@COwnServer@@QAEPADXZ 0051c890 f i ServerFunction.obj
 0002:000498d0       ?ConnectToDBServer@@YA_NXZ 0051c8d0 f   ServerFunction.obj
 0002:00049f00       ?GetIPForGameDB@COwnServer@@QAEPADXZ 0051cf00 f i ServerFunction.obj
 0002:00049f40       ?GetIPForTotalDB@COwnServer@@QAEPADXZ 0051cf40 f i ServerFunction.obj
 0002:00049f80       ?GetIPForMemberDB@COwnServer@@QAEPADXZ 0051cf80 f i ServerFunction.obj
 0002:00049fc0       ?GetIPForLogDB@COwnServer@@QAEPADXZ 0051cfc0 f i ServerFunction.obj
 0002:0004a000       ?KeyHelp@@YAXXZ            0051d000 f   ServerFunction.obj
 0002:0004a1a0       ?TerminateAllServer@@YGXK@Z 0051d1a0 f   ServerFunction.obj
 0002:0004a250       ?ShowAllServerStatus@@YGXK@Z 0051d250 f   ServerFunction.obj
 0002:0004a340       ?RefreshAllDungeonServerData@@YGXK@Z 0051d340 f   ServerFunction.obj
 0002:0004a410       ?IsDateExpired@@YAHPAUtagDBTIMESTAMP@@@Z 0051d410 f   ServerFunction.obj
 0002:0004a4a0       ?ChangeBillingType@@YAHPAVCWorldUser@@PAUBILLING_INFO@@@Z 0051d4a0 f   ServerFunction.obj
 0002:0004a6e0       ?BillingProcess@@YAXXZ     0051d6e0 f   ServerFunction.obj
 0002:0004ad70       ?TimerPer5Minute@@YGXK@Z   0051dd70 f   ServerFunction.obj
 0002:0004c880       ?GetPrev@CVoidList@@QBEPAXAAPAX@Z 0051f880 f i ServerFunction.obj
 0002:0004c8f0       ?SendKeepAlivePacket@@YGXK@Z 0051f8f0 f   ServerFunction.obj
 0002:0004ca20       ?CheckKeepAlive@@YGXK@Z    0051fa20 f   ServerFunction.obj
 0002:0004cb50       ?StartServerWithUserSide@@YGXK@Z 0051fb50 f   ServerFunction.obj
 0002:0004cba0       ?StartServerWithServerSide@@YGXK@Z 0051fba0 f   ServerFunction.obj
 0002:0004cbf0       ?ShowCurrentUserCount@@YGXK@Z 0051fbf0 f   ServerFunction.obj
 0002:0004cc80       ?GetCount@CWorldUserTable@@QAEKXZ 0051fc80 f i ServerFunction.obj
 0002:0004ccc0       ?CmdCheckConnection@@YAXPAVCWorldUser@@PADK@Z 0051fcc0 f   ServerFunction.obj
 0002:0004cdd0       ?SendServerAlive@@YGXK@Z   0051fdd0 f   ServerFunction.obj
 0002:0004ce00       ?CheckServerAlive@@YGXK@Z  0051fe00 f   ServerFunction.obj
 0002:0004ce30       ?InitNetwork@@YAXXZ        0051fe30 f   ServerFunction.obj
 0002:0004d640       ?QueryAllServer@@YAXXZ     00520640 f   ServerFunction.obj
 0002:0004dfb0       ?QueryWorldmapFormation@@YAHXZ 00520fb0 f   ServerFunction.obj
 0002:0004e2c0       ?GetPlayTime@@YAHKKK@Z     005212c0 f   ServerFunction.obj
 0002:0004e420       ?FindEmptyPosNearDungeon@@YAHEPAUVECTOR3@@0H@Z 00521420 f   ServerFunction.obj
 0002:0004e670       ?CreatePoolAndHash@@YAXXZ  00521670 f   ServerFunction.obj
 0002:0004ee90       ??0CGuildTableHash@@QAE@XZ 00521e90 f i ServerFunction.obj
 0002:0004eef0       ??0CPartyTableHash@@QAE@XZ 00521ef0 f i ServerFunction.obj
 0002:0004ef50       ??0CPartyBoardTableHash@@QAE@XZ 00521f50 f i ServerFunction.obj
 0002:0004efb0       ??0CGroupInfoTableHash@@QAE@XZ 00521fb0 f i ServerFunction.obj
 0002:0004f010       ??0CMessengerTableHash@@QAE@XZ 00522010 f i ServerFunction.obj
 0002:0004f070       ??0CGuildWarHash@@QAE@XZ   00522070 f i ServerFunction.obj
 0002:0004f0d0       ??0CDungeonListHash@@QAE@XZ 005220d0 f i ServerFunction.obj
 0002:0004f130       ??_ECGuildTableHash@@UAEPAXI@Z 00522130 f i ServerFunction.obj
 0002:0004f130       ??_GCGuildTableHash@@UAEPAXI@Z 00522130 f i ServerFunction.obj
 0002:0004f1a0       ??_GCPartyTableHash@@UAEPAXI@Z 005221a0 f i ServerFunction.obj
 0002:0004f1a0       ??_ECPartyTableHash@@UAEPAXI@Z 005221a0 f i ServerFunction.obj
 0002:0004f210       ??_GCPartyBoardTableHash@@UAEPAXI@Z 00522210 f i ServerFunction.obj
 0002:0004f210       ??_ECPartyBoardTableHash@@UAEPAXI@Z 00522210 f i ServerFunction.obj
 0002:0004f280       ??_ECGroupInfoTableHash@@UAEPAXI@Z 00522280 f i ServerFunction.obj
 0002:0004f280       ??_GCGroupInfoTableHash@@UAEPAXI@Z 00522280 f i ServerFunction.obj
 0002:0004f2f0       ??_ECMessengerTableHash@@UAEPAXI@Z 005222f0 f i ServerFunction.obj
 0002:0004f2f0       ??_GCMessengerTableHash@@UAEPAXI@Z 005222f0 f i ServerFunction.obj
 0002:0004f360       ??_ECGuildWarHash@@UAEPAXI@Z 00522360 f i ServerFunction.obj
 0002:0004f360       ??_GCGuildWarHash@@UAEPAXI@Z 00522360 f i ServerFunction.obj
 0002:0004f3d0       ??_ECDungeonListHash@@UAEPAXI@Z 005223d0 f i ServerFunction.obj
 0002:0004f3d0       ??_GCDungeonListHash@@UAEPAXI@Z 005223d0 f i ServerFunction.obj
 0002:0004f440       ??1CGuildTableHash@@UAE@XZ 00522440 f i ServerFunction.obj
 0002:0004f490       ??1CPartyTableHash@@UAE@XZ 00522490 f i ServerFunction.obj
 0002:0004f4e0       ??1CPartyBoardTableHash@@UAE@XZ 005224e0 f i ServerFunction.obj
 0002:0004f530       ??1CGroupInfoTableHash@@UAE@XZ 00522530 f i ServerFunction.obj
 0002:0004f580       ??1CMessengerTableHash@@UAE@XZ 00522580 f i ServerFunction.obj
 0002:0004f5d0       ??1CGuildWarHash@@UAE@XZ   005225d0 f i ServerFunction.obj
 0002:0004f620       ??1CDungeonListHash@@UAE@XZ 00522620 f i ServerFunction.obj
 0002:0004f670       ?InitDungeonList@@YAHXZ    00522670 f   ServerFunction.obj
 0002:0004f6b0       ?InitGroupInformation@@YAHXZ 005226b0 f   ServerFunction.obj
 0002:0004fda0       ?CreateEventJudgment@@YGXK@Z 00522da0 f   ServerFunction.obj
 0002:0004fee0       ?UnloadNoticeMessage@@YA_NXZ 00522ee0 f   ServerFunction.obj
 0002:0004ff70       ?LoadNoticeMessage@@YA_NXZ 00522f70 f   ServerFunction.obj
 0002:000501f0       ?UnLoadServerMessage@@YAXXZ 005231f0 f   ServerFunction.obj
 0002:00050280       ?LoadServerMessage@@YA_NXZ 00523280 f   ServerFunction.obj
 0002:00050500       ?GetServerMessage@@YAPADH@Z 00523500 f   ServerFunction.obj
 0002:000505d0       ?GetHead@?$CAbyssHash@U__tag_guild_table__@@@@QAEPAU?$ListNode@U__tag_guild_table__@@@@XZ 005235d0 f i ServerFunction.obj
 0002:00050610       ??0?$CAbyssHash@U__tag_dungeon_node__@@@@QAE@XZ 00523610 f i ServerFunction.obj
 0002:000506b0       ??1?$CAbyssHash@U__tag_dungeon_node__@@@@UAE@XZ 005236b0 f i ServerFunction.obj
 0002:000507a0       ?InitializeHashTable@?$CAbyssHash@U__tag_dungeon_node__@@@@QAEXKKH@Z 005237a0 f i ServerFunction.obj
 0002:000508e0       ?Destroy@?$CAbyssHash@U__tag_dungeon_node__@@@@QAEXH@Z 005238e0 f i ServerFunction.obj
 0002:00050a60       ?GetData@?$CAbyssHash@U__tag_dungeon_node__@@@@UAEPAU__tag_dungeon_node__@@K@Z 00523a60 f i ServerFunction.obj
 0002:00050af0       ?DeleteData@?$CAbyssHash@U__tag_dungeon_node__@@@@UAEXPAX@Z 00523af0 f i ServerFunction.obj
 0002:00050b60       ??0?$CAbyssHash@UGUILD_LIST@@@@QAE@XZ 00523b60 f i ServerFunction.obj
 0002:00050c00       ??1?$CAbyssHash@UGUILD_LIST@@@@UAE@XZ 00523c00 f i ServerFunction.obj
 0002:00050cf0       ?InitializeHashTable@?$CAbyssHash@UGUILD_LIST@@@@QAEXKKH@Z 00523cf0 f i ServerFunction.obj
 0002:00050e30       ?Destroy@?$CAbyssHash@UGUILD_LIST@@@@QAEXH@Z 00523e30 f i ServerFunction.obj
 0002:00050fb0       ?GetData@?$CAbyssHash@UGUILD_LIST@@@@UAEPAUGUILD_LIST@@K@Z 00523fb0 f i ServerFunction.obj
 0002:00051040       ?DeleteData@?$CAbyssHash@UGUILD_LIST@@@@UAEXPAX@Z 00524040 f i ServerFunction.obj
 0002:000510b0       ??0?$CAbyssHash@U__tag_groupinfo_hash__@@@@QAE@XZ 005240b0 f i ServerFunction.obj
 0002:00051150       ??1?$CAbyssHash@U__tag_groupinfo_hash__@@@@UAE@XZ 00524150 f i ServerFunction.obj
 0002:00051240       ?InitializeHashTable@?$CAbyssHash@U__tag_groupinfo_hash__@@@@QAEXKKH@Z 00524240 f i ServerFunction.obj
 0002:00051380       ?Destroy@?$CAbyssHash@U__tag_groupinfo_hash__@@@@QAEXH@Z 00524380 f i ServerFunction.obj
 0002:00051500       ?GetData@?$CAbyssHash@U__tag_groupinfo_hash__@@@@UAEPAU__tag_groupinfo_hash__@@K@Z 00524500 f i ServerFunction.obj
 0002:00051590       ?Insert@?$CAbyssHash@U__tag_groupinfo_hash__@@@@QAEKPAU__tag_groupinfo_hash__@@K@Z 00524590 f i ServerFunction.obj
 0002:00051750       ?DeleteData@?$CAbyssHash@U__tag_groupinfo_hash__@@@@UAEXPAX@Z 00524750 f i ServerFunction.obj
 0002:000517c0       ??0?$CAbyssHash@U__tag_guild_table__@@@@QAE@XZ 005247c0 f i ServerFunction.obj
 0002:00051860       ??1?$CAbyssHash@U__tag_guild_table__@@@@UAE@XZ 00524860 f i ServerFunction.obj
 0002:00051950       ?InitializeHashTable@?$CAbyssHash@U__tag_guild_table__@@@@QAEXKKH@Z 00524950 f i ServerFunction.obj
 0002:00051a90       ?Destroy@?$CAbyssHash@U__tag_guild_table__@@@@QAEXH@Z 00524a90 f i ServerFunction.obj
 0002:00051c10       ?GetData@?$CAbyssHash@U__tag_guild_table__@@@@UAEPAU__tag_guild_table__@@K@Z 00524c10 f i ServerFunction.obj
 0002:00051ca0       ?DeleteData@?$CAbyssHash@U__tag_guild_table__@@@@UAEXPAX@Z 00524ca0 f i ServerFunction.obj
 0002:00051d10       ??0?$CAbyssHash@U__tag_party_table__@@@@QAE@XZ 00524d10 f i ServerFunction.obj
 0002:00051db0       ??1?$CAbyssHash@U__tag_party_table__@@@@UAE@XZ 00524db0 f i ServerFunction.obj
 0002:00051ea0       ?InitializeHashTable@?$CAbyssHash@U__tag_party_table__@@@@QAEXKKH@Z 00524ea0 f i ServerFunction.obj
 0002:00051fe0       ?Destroy@?$CAbyssHash@U__tag_party_table__@@@@QAEXH@Z 00524fe0 f i ServerFunction.obj
 0002:00052160       ?GetData@?$CAbyssHash@U__tag_party_table__@@@@UAEPAU__tag_party_table__@@K@Z 00525160 f i ServerFunction.obj
 0002:000521f0       ?DeleteData@?$CAbyssHash@U__tag_party_table__@@@@UAEXPAX@Z 005251f0 f i ServerFunction.obj
 0002:00052260       ??0?$CAbyssHash@U__tag_partyboard_table__@@@@QAE@XZ 00525260 f i ServerFunction.obj
 0002:00052300       ??1?$CAbyssHash@U__tag_partyboard_table__@@@@UAE@XZ 00525300 f i ServerFunction.obj
 0002:000523f0       ?InitializeHashTable@?$CAbyssHash@U__tag_partyboard_table__@@@@QAEXKKH@Z 005253f0 f i ServerFunction.obj
 0002:00052530       ?Destroy@?$CAbyssHash@U__tag_partyboard_table__@@@@QAEXH@Z 00525530 f i ServerFunction.obj
 0002:000526b0       ?GetData@?$CAbyssHash@U__tag_partyboard_table__@@@@UAEPAU__tag_partyboard_table__@@K@Z 005256b0 f i ServerFunction.obj
 0002:00052740       ?DeleteData@?$CAbyssHash@U__tag_partyboard_table__@@@@UAEXPAX@Z 00525740 f i ServerFunction.obj
 0002:000527b0       ??0?$CAbyssHash@U__tag_messenger_table__@@@@QAE@XZ 005257b0 f i ServerFunction.obj
 0002:00052850       ??1?$CAbyssHash@U__tag_messenger_table__@@@@UAE@XZ 00525850 f i ServerFunction.obj
 0002:00052940       ?InitializeHashTable@?$CAbyssHash@U__tag_messenger_table__@@@@QAEXKKH@Z 00525940 f i ServerFunction.obj
 0002:00052a80       ?Destroy@?$CAbyssHash@U__tag_messenger_table__@@@@QAEXH@Z 00525a80 f i ServerFunction.obj
 0002:00052c00       ?GetData@?$CAbyssHash@U__tag_messenger_table__@@@@UAEPAU__tag_messenger_table__@@K@Z 00525c00 f i ServerFunction.obj
 0002:00052c90       ?DeleteData@?$CAbyssHash@U__tag_messenger_table__@@@@UAEXPAX@Z 00525c90 f i ServerFunction.obj
 0002:00052d00       ?Destroy@?$CAbyssHash@U__SchoolGuildDungeon@@@@QAEXH@Z 00525d00 f i ServerFunction.obj
 0002:00052e80       ??_E?$CAbyssHash@U__tag_dungeon_node__@@@@UAEPAXI@Z 00525e80 f i ServerFunction.obj
 0002:00052e80       ??_G?$CAbyssHash@U__tag_dungeon_node__@@@@UAEPAXI@Z 00525e80 f i ServerFunction.obj
 0002:00052ef0       ??_G?$CAbyssHash@UGUILD_LIST@@@@UAEPAXI@Z 00525ef0 f i ServerFunction.obj
 0002:00052ef0       ??_E?$CAbyssHash@UGUILD_LIST@@@@UAEPAXI@Z 00525ef0 f i ServerFunction.obj
 0002:00052f60       ??_G?$CAbyssHash@U__tag_groupinfo_hash__@@@@UAEPAXI@Z 00525f60 f i ServerFunction.obj
 0002:00052f60       ??_E?$CAbyssHash@U__tag_groupinfo_hash__@@@@UAEPAXI@Z 00525f60 f i ServerFunction.obj
 0002:00052fd0       ??_E?$CAbyssHash@U__tag_guild_table__@@@@UAEPAXI@Z 00525fd0 f i ServerFunction.obj
 0002:00052fd0       ??_G?$CAbyssHash@U__tag_guild_table__@@@@UAEPAXI@Z 00525fd0 f i ServerFunction.obj
 0002:00053040       ??_G?$CAbyssHash@U__tag_party_table__@@@@UAEPAXI@Z 00526040 f i ServerFunction.obj
 0002:00053040       ??_E?$CAbyssHash@U__tag_party_table__@@@@UAEPAXI@Z 00526040 f i ServerFunction.obj
 0002:000530b0       ??_E?$CAbyssHash@U__tag_partyboard_table__@@@@UAEPAXI@Z 005260b0 f i ServerFunction.obj
 0002:000530b0       ??_G?$CAbyssHash@U__tag_partyboard_table__@@@@UAEPAXI@Z 005260b0 f i ServerFunction.obj
 0002:00053120       ??_E?$CAbyssHash@U__tag_messenger_table__@@@@UAEPAXI@Z 00526120 f i ServerFunction.obj
 0002:00053120       ??_G?$CAbyssHash@U__tag_messenger_table__@@@@UAEPAXI@Z 00526120 f i ServerFunction.obj
 0002:00053190       ?AddList@?$CAbyssHash@U__tag_groupinfo_hash__@@@@QAEPAU?$ListNode@U__tag_groupinfo_hash__@@@@PAU__tag_groupinfo_hash__@@@Z 00526190 f i ServerFunction.obj
 0002:00053290       ??0WSTS_SERVER_TERMINATE@@QAE@XZ 00526290 f i ServerFunction.obj
 0002:000532e0       ?GetPacketSize@WSTS_SERVER_TERMINATE@@QAEKXZ 005262e0 f i ServerFunction.obj
 0002:00053320       ??0WSTS_REFRESH_ALL_DUNGEON_SERVER_DATA@@QAE@XZ 00526320 f i ServerFunction.obj
 0002:00053370       ?GetPacketSize@WSTS_REFRESH_ALL_DUNGEON_SERVER_DATA@@QAEKXZ 00526370 f i ServerFunction.obj
 0002:000533b0       ??0WSTDS_SET_DOUBLE_EXP@@QAE@XZ 005263b0 f i ServerFunction.obj
 0002:00053400       ?GetPacketSize@WSTDS_SET_DOUBLE_EXP@@QAEKXZ 00526400 f i ServerFunction.obj
 0002:00053440       ??0WSTDS_SET_MAGICITEM_DROPRATE@@QAE@XZ 00526440 f i ServerFunction.obj
 0002:00053490       ?GetPacketSize@WSTDS_SET_MAGICITEM_DROPRATE@@QAEKXZ 00526490 f i ServerFunction.obj
 0002:000534d0       ??0WSTDS_SET_EXPGAIN@@QAE@XZ 005264d0 f i ServerFunction.obj
 0002:00053520       ?GetPacketSize@WSTDS_SET_EXPGAIN@@QAEKXZ 00526520 f i ServerFunction.obj
 0002:00053560       ??0WSTDS_GUILDWAR_DELETE@@QAE@XZ 00526560 f i ServerFunction.obj
 0002:000535b0       ?GetPacketSize@WSTDS_GUILDWAR_DELETE@@QAEKXZ 005265b0 f i ServerFunction.obj
 0002:000535f0       ??0WSTDS_SET_PARTY_BONUS_EXPGAIN@@QAE@XZ 005265f0 f i ServerFunction.obj
 0002:00053640       ?GetPacketSize@WSTDS_SET_PARTY_BONUS_EXPGAIN@@QAEKXZ 00526640 f i ServerFunction.obj
 0002:00053680       ??0CTWS_GM_NOTICE@@QAE@XZ  00526680 f i ServerFunction.obj
 0002:000536d0       ?GetPacketSize@CTWS_GM_NOTICE@@QAEKXZ 005266d0 f i ServerFunction.obj
 0002:00053720       ??0WSTC_GUILDWAR_EXIT@@QAE@XZ 00526720 f i ServerFunction.obj
 0002:00053770       ?GetPacketSize@WSTC_GUILDWAR_EXIT@@QAEKXZ 00526770 f i ServerFunction.obj
 0002:000537b0       ??0WSTC_USER_GUILDMASTER@@QAE@XZ 005267b0 f i ServerFunction.obj
 0002:00053800       ?GetPacketSize@WSTC_USER_GUILDMASTER@@QAEKXZ 00526800 f i ServerFunction.obj
 0002:00053840       ??0CServerTable@@QAE@K@Z   00526840 f   ServerTable.obj
 0002:00053960       ??0CServerList@@QAE@XZ     00526960 f i ServerTable.obj
 0002:000539c0       ??1CServerList@@QAE@XZ     005269c0 f i ServerTable.obj
 0002:00053a10       ??1CServerTable@@QAE@XZ    00526a10 f   ServerTable.obj
 0002:00053af0       ?AllocNewServer@CServerTable@@QAEPAUSERVER_DATA@@K@Z 00526af0 f   ServerTable.obj
 0002:00053b80       ?Add@CServerTable@@QAEHPAUSERVER_DATA@@@Z 00526b80 f   ServerTable.obj
 0002:00053d20       ?GetServerInfo@CServerTable@@QAEPAUSERVER_DATA@@K@Z 00526d20 f   ServerTable.obj
 0002:00053db0       ?Remove@CServerTable@@QAEXK@Z 00526db0 f   ServerTable.obj
 0002:00053f80       ?Remove@CServerTable@@QAEXPAUSERVER_DATA@@@Z 00526f80 f   ServerTable.obj
 0002:00054130       ?RemoveServerTable@CServerTable@@AAEXXZ 00527130 f   ServerTable.obj
 0002:00054250       ?BroadCast@CServerTable@@QAEXPADKE@Z 00527250 f   ServerTable.obj
 0002:00054470       ?BroadCastAlivePacket@CServerTable@@QAEXXZ 00527470 f   ServerTable.obj
 0002:00054590       ?CheckAlivePacket@CServerTable@@QAEXXZ 00527590 f   ServerTable.obj
 0002:00054740       ?SetLoginAgentServer@CServerTable@@QAEPAUSERVER_DATA@@K@Z 00527740 f   ServerTable.obj
 0002:00054860       ?SendAgent@CServerTable@@QAEXPADK@Z 00527860 f   ServerTable.obj
 0002:00054910       ?ShowAllServerStatus@CServerTable@@QAEXXZ 00527910 f   ServerTable.obj
 0002:00054c00       ?GetEnvironmentVariableWThunk@ATL@@YGKPBGPAGK@Z 00527c00 f i StdAfx.obj
 0002:00054c80       ?_AtlInstallStringThunk@ATL@@YAXPAPAXPAX1@Z 00527c80 f i StdAfx.obj
 0002:00054d40       ?GetEnvironmentVariableWFake@ATL@@YGKPBGPAGK@Z 00527d40 f i StdAfx.obj
 0002:00055020       ?_AtlGetConversionACP@ATL@@YGIXZ 00528020 f i StdAfx.obj
 0002:00055080       ?CompareStringWThunk@ATL@@YGHKKPBGH0H@Z 00528080 f i StdAfx.obj
 0002:00055110       ?CompareStringWFake@ATL@@YGHKKPBGH0H@Z 00528110 f i StdAfx.obj
 0002:00055450       ?_AtlVerifyStackAvailable@_ATL_SAFE_ALLOCA_IMPL@ATL@@YA_NK@Z 00528450 f i StdAfx.obj
 0002:00055570       ?AtlW2AHelper@@YGPADPADPBGHI@Z 00528570 f i StdAfx.obj
 0002:000556c0       ?AtlThrow@ATL@@YGXJ@Z      005286c0 f i StdAfx.obj
 0002:00055770       ??0CTraceFileAndLineInfo@ATL@@QAE@PBDH@Z 00528770 f i StdAfx.obj
 0002:000557c0       ??RCTraceFileAndLineInfo@ATL@@QBAXKIPBDZZ 005287c0 f i StdAfx.obj
 0002:00055850       ?TraceV@CTrace@ATL@@QBAXPBDHKI0PAD@Z 00528850 f i StdAfx.obj
 0002:000558c0       ??BCTraceCategory@ATL@@QBEKXZ 005288c0 f i StdAfx.obj
 0002:00055900       ?GetStringTypeExWThunk@ATL@@YGHKKPBGHPAG@Z 00528900 f i StdAfx.obj
 0002:00055990       ?GetStringTypeExWFake@ATL@@YGHKKPBGHPAG@Z 00528990 f i StdAfx.obj
 0002:00055b40       ?lstrcmpiWThunk@ATL@@YGHPBG0@Z 00528b40 f i StdAfx.obj
 0002:00055bc0       ?lstrcmpiWFake@ATL@@YGHPBG0@Z 00528bc0 f i StdAfx.obj
 0002:00055d40       ?CharLowerWThunk@ATL@@YGPAGPAG@Z 00528d40 f i StdAfx.obj
 0002:00055dc0       ?CharLowerWFake@ATL@@YGPAGPAG@Z 00528dc0 f i StdAfx.obj
 0002:00055f60       ?AtlA2WHelper@@YGPAGPAGPBDHI@Z 00528f60 f i StdAfx.obj
 0002:000560a0       ?CharUpperWThunk@ATL@@YGPAGPAG@Z 005290a0 f i StdAfx.obj
 0002:00056120       ?CharUpperWFake@ATL@@YGPAGPAG@Z 00529120 f i StdAfx.obj
 0002:000562c0       ??0?$CAtlSafeAllocBufferManager@VCCRTAllocator@ATL@@@_ATL_SAFE_ALLOCA_IMPL@ATL@@QAE@XZ 005292c0 f i StdAfx.obj
 0002:00056310       ?Allocate@?$CAtlSafeAllocBufferManager@VCCRTAllocator@ATL@@@_ATL_SAFE_ALLOCA_IMPL@ATL@@QAEPAXK@Z 00529310 f i StdAfx.obj
 0002:000563a0       ?Allocate@CCRTAllocator@ATL@@SAPAXI@Z 005293a0 f i StdAfx.obj
 0002:000563f0       ??1?$CAtlSafeAllocBufferManager@VCCRTAllocator@ATL@@@_ATL_SAFE_ALLOCA_IMPL@ATL@@QAE@XZ 005293f0 f i StdAfx.obj
 0002:00056470       ?Free@CCRTAllocator@ATL@@SAXPAX@Z 00529470 f i StdAfx.obj
 0002:000564c0       ??0?$CTempBuffer@D$0IA@VCCRTAllocator@ATL@@@ATL@@QAE@XZ 005294c0 f i StdAfx.obj
 0002:00056510       ??1?$CTempBuffer@D$0IA@VCCRTAllocator@ATL@@@ATL@@QAE@XZ 00529510 f i StdAfx.obj
 0002:00056570       ??B?$CTempBuffer@D$0IA@VCCRTAllocator@ATL@@@ATL@@QBEPADXZ 00529570 f i StdAfx.obj
 0002:000565b0       ?Allocate@?$CTempBuffer@D$0IA@VCCRTAllocator@ATL@@@ATL@@QAEPADI@Z 005295b0 f i StdAfx.obj
 0002:00056610       ??0?$CW2AEX@$0IA@@ATL@@QAE@PBG@Z 00529610 f i StdAfx.obj
 0002:00056680       ??1?$CW2AEX@$0IA@@ATL@@QAE@XZ 00529680 f i StdAfx.obj
 0002:000566f0       ??B?$CW2AEX@$0IA@@ATL@@QBEPADXZ 005296f0 f i StdAfx.obj
 0002:00056730       ?AllocateBytes@?$CTempBuffer@D$0IA@VCCRTAllocator@ATL@@@ATL@@QAEPADI@Z 00529730 f i StdAfx.obj
 0002:000567e0       ?FreeHeap@?$CTempBuffer@D$0IA@VCCRTAllocator@ATL@@@ATL@@AAEXXZ 005297e0 f i StdAfx.obj
 0002:00056840       ?Init@?$CW2AEX@$0IA@@ATL@@AAEXPBGI@Z 00529840 f i StdAfx.obj
 0002:00056950       ?AtlThrowLastWin32@ATL@@YGXXZ 00529950 f i StdAfx.obj
 0002:000569f0       ?GetData@CAtlSafeAllocBufferNode@?$CAtlSafeAllocBufferManager@VCCRTAllocator@ATL@@@_ATL_SAFE_ALLOCA_IMPL@ATL@@QAEPAXXZ 005299f0 f i StdAfx.obj
 0002:00056a30       ?AllocateHeap@?$CTempBuffer@D$0IA@VCCRTAllocator@ATL@@@ATL@@AAEXI@Z 00529a30 f i StdAfx.obj
 0002:00056ab0       ?CtrlHandler@@YAHK@Z       00529ab0 f   WorldServer.obj
 0002:00056b50       ?MainLoop@@YAXXZ           00529b50 f   WorldServer.obj
 0002:00057170       ?SetDBInfo@@YAXXZ          0052a170 f   WorldServer.obj
 0002:00058320       ?SetLocalData@@YAXXZ       0052b320 f   WorldServer.obj
 0002:00058560       _main                      0052b560 f   WorldServer.obj
 0002:00059150       ?GetServerType@COwnServer@@QAEEXZ 0052c150 f i WorldServer.obj
 0002:00059190       ?GetNTOSOverTick@COwnServer@@QAEGXZ 0052c190 f i WorldServer.obj
 0002:000591e0       ?GetNTOSInterval@COwnServer@@QAEGXZ 0052c1e0 f i WorldServer.obj
 0002:00059230       ?GetBaseClassInfo@CWorldUserTable@@QAEPAUBASE_CLASS_INFO@@E@Z 0052c230 f i WorldServer.obj
 0002:00059280       ??_GCNetworkTimeObserverServer@@QAEPAXI@Z 0052c280 f i WorldServer.obj
 0002:000592f0       ?NationCode@CLocal@LOCAL_MGR@@QBE?AW4eNationCode@2@XZ 0052c2f0 f i WorldServer.obj
 0002:00059330       ??0MACHINENAME@@QAE@XZ     0052c330 f i WorldServer.obj
 0002:000593d0       ?SetCurDungeon@CWorldUser@@QAEXG@Z 0052c3d0 f   WorldUser.obj
 0002:000594e0       ?GuildIdChange@CWorldUser@@QAEXXZ 0052c4e0 f   WorldUser.obj
 0002:000595f0       ?GuildIdPoint@CWorldUser@@QAEXXZ 0052c5f0 f   WorldUser.obj
 0002:00059df0       ?IsHaveGMC@CWorldUser@@QAE_NXZ 0052cdf0 f   WorldUser.obj
 0002:00059e60       ?ClearGuildWarData@CWorldUser@@QAEXXZ 0052ce60 f   WorldUser.obj
 0002:00059ef0       ?First@?$CCondition@VCMatchCondition@@VCTeamInfo@@@@QAEAAVCMatchCondition@@XZ 0052cef0 f i WorldUser.obj
 0002:00059f30       ?Clear@?$CCondition@VCMatchCondition@@VCTeamInfo@@@@QAEXXZ 0052cf30 f i WorldUser.obj
 0002:00059f90       ?MatchType@CMatchCondition@@QBEKXZ 0052cf90 f i WorldUser.obj
 0002:00059fd0       ??0WSTC_GUILDWAR_POINT@@QAE@XZ 0052cfd0 f i WorldUser.obj
 0002:0005a020       ?GetPacketSize@WSTC_GUILDWAR_POINT@@QAEKXZ 0052d020 f i WorldUser.obj
 0002:0005a060       ??0id@locale@std@@QAE@I@Z  0052d060 f i WorldUser.obj
 0002:0005a0b0       ??0CWorldUserTable@@QAE@KK@Z 0052d0b0 f   WorldUserTable.obj
 0002:0005a3a0       ??1CWorldUserTable@@QAE@XZ 0052d3a0 f   WorldUserTable.obj
 0002:0005a5c0       ??_GCNameSearchTable@@QAEPAXI@Z 0052d5c0 f i WorldUserTable.obj
 0002:0005a630       ?AllocNewUser@CWorldUserTable@@QAEPAVCWorldUser@@XZ 0052d630 f   WorldUserTable.obj
 0002:0005a6e0       ?Add@CWorldUserTable@@QAEHPAVCWorldUser@@@Z 0052d6e0 f   WorldUserTable.obj
 0002:0005aab0       ??0CDugneonRefreshList@@QAE@XZ 0052dab0 f i WorldUserTable.obj
 0002:0005ab10       ??0COwnDugneonList@@QAE@XZ 0052db10 f i WorldUserTable.obj
 0002:0005ab70       ?GetUserInfo@CWorldUserTable@@QAEPAVCWorldUser@@K@Z 0052db70 f   WorldUserTable.obj
 0002:0005ac10       ?GetUserInfoByName@CWorldUserTable@@QAEPAVCWorldUser@@PBD@Z 0052dc10 f   WorldUserTable.obj
 0002:0005ac70       ?GetUserInfoByNameWithoutCase@CWorldUserTable@@QAEPAVCWorldUser@@PBD@Z 0052dc70 f   WorldUserTable.obj
 0002:0005acd0       ?Remove@CWorldUserTable@@QAEXK@Z 0052dcd0 f   WorldUserTable.obj
 0002:0005ad50       ?Remove@CWorldUserTable@@QAEXPAVCWorldUser@@@Z 0052dd50 f   WorldUserTable.obj
 0002:0005af00       ?RemoveWorldUserTable@CWorldUserTable@@AAEXXZ 0052df00 f   WorldUserTable.obj
 0002:0005b0d0       ?SendUserInWorld@CWorldUserTable@@QAEXPADK@Z 0052e0d0 f   WorldUserTable.obj
 0002:0005b1f0       ?BroadCast@CWorldUserTable@@QAEXPADK@Z 0052e1f0 f   WorldUserTable.obj
 0002:0005b300       ?AddCharacterToSearchTable@CWorldUserTable@@QAEHPAVCWorldUser@@@Z 0052e300 f   WorldUserTable.obj
 0002:0005b360       ?RemoveUserResource@CWorldUserTable@@QAEXPAVCWorldUser@@@Z 0052e360 f   WorldUserTable.obj
 0002:0005b4d0       ??_GCDugneonRefreshList@@QAEPAXI@Z 0052e4d0 f i WorldUserTable.obj
 0002:0005b540       ??_GCOwnDugneonList@@QAEPAXI@Z 0052e540 f i WorldUserTable.obj
 0002:0005b5b0       ??1CDugneonRefreshList@@QAE@XZ 0052e5b0 f i WorldUserTable.obj
 0002:0005b600       ??1COwnDugneonList@@QAE@XZ 0052e600 f i WorldUserTable.obj
 0002:0005b650       ??0CVoidList@@QAE@XZ       0052e650 f   Linkedlist.obj
 0002:0005b6d0       ??1CVoidList@@QAE@XZ       0052e6d0 f   Linkedlist.obj
 0002:0005b710       ?RemoveAll@CVoidList@@QAEXXZ 0052e710 f   Linkedlist.obj
 0002:0005b7c0       ?AddHead@CVoidList@@QAEPAXPAX@Z 0052e7c0 f   Linkedlist.obj
 0002:0005b880       ?AddTail@CVoidList@@QAEPAXPAX@Z 0052e880 f   Linkedlist.obj
 0002:0005b930       ?AddHead@CVoidList@@QAEXPAV1@@Z 0052e930 f   Linkedlist.obj
 0002:0005b9f0       ?GetTailPosition@CVoidList@@QBEPAXXZ 0052e9f0 f i Linkedlist.obj
 0002:0005ba30       ?AddTail@CVoidList@@QAEXPAV1@@Z 0052ea30 f   Linkedlist.obj
 0002:0005baf0       ?RemoveHead@CVoidList@@QAEPAXXZ 0052eaf0 f   Linkedlist.obj
 0002:0005bbc0       ?RemoveTail@CVoidList@@QAEPAXXZ 0052ebc0 f   Linkedlist.obj
 0002:0005bc90       ?InsertBefore@CVoidList@@QAEPAXPAX0@Z 0052ec90 f   Linkedlist.obj
 0002:0005bd80       ?InsertAfter@CVoidList@@QAEPAXPAX0@Z 0052ed80 f   Linkedlist.obj
 0002:0005be70       ?RemoveAt@CVoidList@@QAEXPAX@Z 0052ee70 f   Linkedlist.obj
 0002:0005bf80       ?FindIndex@CVoidList@@QBEPAXH@Z 0052ef80 f   Linkedlist.obj
 0002:0005c020       ?Find@CVoidList@@QBEPAXPAX0@Z 0052f020 f   Linkedlist.obj
 0002:0005c0b0       ?NewNode@CVoidList@@MAEPAUCNode@@PAU2@0@Z 0052f0b0 f   Linkedlist.obj
 0002:0005c1f0       ?FreeNode@CVoidList@@UAEXPAUCNode@@@Z 0052f1f0 f   Linkedlist.obj
 0002:0005c2a0       ?FreeData@CVoidList@@MAEXPAX@Z 0052f2a0 f   Linkedlist.obj
 0002:0005c310       ?FreeNode@CServerList@@UAEXPAUCNode@@@Z 0052f310 f   LinkedListEx.obj
 0002:0005c3a0       ?FreeNode@CDugneonRefreshList@@UAEXPAUCNode@@@Z 0052f3a0 f   LinkedListEx.obj
 0002:0005c430       ?FreeNode@COwnDugneonList@@UAEXPAUCNode@@@Z 0052f430 f   LinkedListEx.obj
 0002:0005c4c0       ?FreeNode@CDugneonRefreshUserList@@UAEXPAUCNode@@@Z 0052f4c0 f   LinkedListEx.obj
 0002:0005c550       ?FreeNode@CPKUserList@@UAEXPAUCNode@@@Z 0052f550 f   LinkedListEx.obj
 0002:0005c5e0       ?FreeNode@CVoidDontDeleteList@@UAEXPAUCNode@@@Z 0052f5e0 f   LinkedListEx.obj
 0002:0005c670       ??0COnlyList@@QAE@K@Z      0052f670 f   OnlyList.obj
 0002:0005c720       ??1COnlyList@@QAE@XZ       0052f720 f   OnlyList.obj
 0002:0005c7f0       ?NewNode@COnlyList@@UAEPAUCNode@@PAU2@0@Z 0052f7f0 f   OnlyList.obj
 0002:0005c8d0       ?FreeNode@COnlyList@@UAEXPAUCNode@@@Z 0052f8d0 f   OnlyList.obj
 0002:0005c960       ?OnChinaKickOut@@YGXK@Z    0052f960 f   ChinaBillingProc.obj
 0002:0005ca20       ?GetHead@CVoidList@@QBEPAXXZ 0052fa20 f i ChinaBillingProc.obj
 0002:0005ca70       ?AddChinaBillingKickList@@YAXK@Z 0052fa70 f   ChinaBillingProc.obj
 0002:0005cb00       ?ChinaBillingKickOutProc@@YAXK@Z 0052fb00 f   ChinaBillingProc.obj
 0002:0005ccd0       ?AcmdChinaBillingInfo@@YAXKPADK@Z 0052fcd0 f   ChinaBillingProc.obj
 0002:0005d040       ?GetProcedureType@ASTWS_CHINA_BILLING_INFO@@QBEEXZ 00530040 f i ChinaBillingProc.obj
 0002:0005d080       ??0WSTDS_CB_LEVELCHK@@QAE@XZ 00530080 f i ChinaBillingProc.obj
 0002:0005d0d0       ?GetPacketSize@WSTDS_CB_LEVELCHK@@QAEKXZ 005300d0 f i ChinaBillingProc.obj
 0002:0005d110       ??0WSTC_CB_MESSAGE@@QAE@XZ 00530110 f i ChinaBillingProc.obj
 0002:0005d160       ?GetPacketSize@WSTC_CB_MESSAGE@@QAEKXZ 00530160 f i ChinaBillingProc.obj
 0002:0005d1a0       ?IsGuildWar@@YAHKK@Z       005301a0 f   Guild.obj
 0002:0005d260       ?CmdGuildUserDel@@YAXPAVCWorldUser@@PADK@Z 00530260 f   Guild.obj
 0002:0005e220       ?GuildPoint@@YAXK@Z        00531220 f   Guild.obj
 0002:0005ea10       ?CmdGuildInfo@@YAXPAVCWorldUser@@PADK@Z 00531a10 f   Guild.obj
 0002:0005f8d0       ?CmdGuildRank@@YAXPAVCWorldUser@@PADK@Z 005328d0 f   Guild.obj
 0002:0005fbc0       ?CmdGuildJoin@@YAXPAVCWorldUser@@PADK@Z 00532bc0 f   Guild.obj
 0002:00061160       ?ClearWhiteString@@YAXAAV?$basic_string@DU?$char_traits@D@std@@V?$allocator@D@2@@std@@@Z 00534160 f   Guild.obj
 0002:00061270       ?TrimLeft@@YAXPBDPAD@Z     00534270 f   Guild.obj
 0002:000613e0       ?TrimRight@@YAXPBDPAD@Z    005343e0 f   Guild.obj
 0002:00061580       ?CmdGuildCreate@@YAXPAVCWorldUser@@PADK@Z 00534580 f   Guild.obj
 0002:00061a80       ?CmdUserGuildMaster@@YAXPAVCWorldUser@@PADK@Z 00534a80 f   Guild.obj
 0002:000623b0       ?CmdGuildDelete@@YAXPAVCWorldUser@@PADK@Z 005353b0 f   Guild.obj
 0002:00063b80       ?CmdGuildJoinMessage@@YAXPAVCWorldUser@@PADK@Z 00536b80 f   Guild.obj
 0002:00063f40       ?CmdGuildRequest@@YAXPAVCWorldUser@@PADK@Z 00536f40 f   Guild.obj
 0002:000641a0       ?CmdGuildUserInfo@@YAXPAVCWorldUser@@PADK@Z 005371a0 f   Guild.obj
 0002:00064450       ?CmdGuildDataRequest@@YAXPAVCWorldUser@@PADK@Z 00537450 f   Guild.obj
 0002:000645e0       ?CmdGuildUserRequestFail@@YAXPAVCWorldUser@@PADK@Z 005375e0 f   Guild.obj
 0002:00064710       ?SendToUserGuildWarFail@@YAXPAVCWorldUser@@E@Z 00537710 f   Guild.obj
 0002:000647e0       ?IsThereGuildMaster@@YAPAVCWorldUser@@PAU?$ListNode@VCWorldUser@@@@_N@Z 005377e0 f   Guild.obj
 0002:000648e0       ?GuildWarCheckCondition@@YAHKK@Z 005378e0 f   Guild.obj
 0002:00064c40       ?CmdGuildWarRequest@@YAXPAVCWorldUser@@PADK@Z 00537c40 f   Guild.obj
 0002:00064ee0       ?CmdGuildWarMasterRt@@YAXPAVCWorldUser@@PADK@Z 00537ee0 f   Guild.obj
 0002:00065240       ?CmdGuildWarCreate@@YAXPAVCWorldUser@@PADK@Z 00538240 f   Guild.obj
 0002:00066340       ?CmdGuildWarErrorRt@@YAXPAVCWorldUser@@PADK@Z 00539340 f   Guild.obj
 0002:000666e0       ?CmdGuildWarExit@@YAXPAVCWorldUser@@PADK@Z 005396e0 f   Guild.obj
 0002:00067e10       ?CmdGuildWarRank@@YAXPAVCWorldUser@@PADK@Z 0053ae10 f   Guild.obj
 0002:00068130       ?InitGuildInformations@@YAHXZ 0053b130 f   Guild.obj
 0002:00069090       ?GuildWarTime@@YAXPAU__tag_guild_war_time__@@KK@Z 0053c090 f   Guild.obj
 0002:00069120       ?at@?$basic_string@DU?$char_traits@D@std@@V?$allocator@D@2@@std@@QAEAADI@Z 0053c120 f i Guild.obj
 0002:00069190       ?swap@?$basic_string@DU?$char_traits@D@std@@V?$allocator@D@2@@std@@QAEXAAV12@@Z 0053c190 f i Guild.obj
 0002:00069380       ?find@?$basic_string@DU?$char_traits@D@std@@V?$allocator@D@2@@std@@QBEIDI@Z 0053c380 f i Guild.obj
 0002:000693e0       ?GetCount@?$CAbyssHash@VCWorldUser@@@@QAEKXZ 0053c3e0 f i Guild.obj
 0002:00069420       ?GetHead@?$CAbyssHash@UGUILD_LIST@@@@QAEPAU?$ListNode@UGUILD_LIST@@@@XZ 0053c420 f i Guild.obj
 0002:00069460       ?find@?$basic_string@DU?$char_traits@D@std@@V?$allocator@D@2@@std@@QBEIPBDII@Z 0053c460 f i Guild.obj
 0002:000695a0       ?find@?$char_traits@D@std@@SAPBDPBDIABD@Z 0053c5a0 f i Guild.obj
 0002:00069600       ?Insert@?$CAbyssHash@UGUILD_LIST@@@@QAEKPAUGUILD_LIST@@K@Z 0053c600 f i Guild.obj
 0002:000697c0       ?Delete@?$CAbyssHash@U__tag_guild_table__@@@@QAEXPAU__tag_guild_table__@@KH@Z 0053c7c0 f i Guild.obj
 0002:00069930       ??$?8DD@std@@YA_NABV?$allocator@D@0@0@Z 0053c930 f i Guild.obj
 0002:00069960       ?AddList@?$CAbyssHash@UGUILD_LIST@@@@QAEPAU?$ListNode@UGUILD_LIST@@@@PAUGUILD_LIST@@@Z 0053c960 f i Guild.obj
 0002:00069a60       ?RemoveAtList@?$CAbyssHash@U__tag_guild_table__@@@@QAEXPAU?$ListNode@U__tag_guild_table__@@@@@Z 0053ca60 f i Guild.obj
 0002:00069b30       ??0WSTDS_GUILD_FAIL@@QAE@XZ 0053cb30 f i Guild.obj
 0002:00069b80       ?GetPacketSize@WSTDS_GUILD_FAIL@@QAEKXZ 0053cb80 f i Guild.obj
 0002:00069bc0       ??0WSTDS_GUILD_MSG@@QAE@XZ 0053cbc0 f i Guild.obj
 0002:00069c10       ?GetPacketSize@WSTDS_GUILD_MSG@@QAEKXZ 0053cc10 f i Guild.obj
 0002:00069c50       ??0WSTDS_GUILDUSER_INFO@@QAE@XZ 0053cc50 f i Guild.obj
 0002:00069ca0       ?GetPacketSize@WSTDS_GUILDUSER_INFO@@QAEKXZ 0053cca0 f i Guild.obj
 0002:00069ce0       ??0WSTDS_GUILDINFO_MSG@@QAE@XZ 0053cce0 f i Guild.obj
 0002:00069d30       ?GetPacketSize@WSTDS_GUILDINFO_MSG@@QAEKXZ 0053cd30 f i Guild.obj
 0002:00069d70       ??0WSTDS_GUILD_LIST@@QAE@XZ 0053cd70 f i Guild.obj
 0002:00069dc0       ?GetPacketSize@WSTDS_GUILD_LIST@@QAEKXZ 0053cdc0 f i Guild.obj
 0002:00069e00       ??0WSTDS_GUILDWAR_MESSAGE@@QAE@XZ 0053ce00 f i Guild.obj
 0002:00069e50       ?GetPacketSize@WSTDS_GUILDWAR_MESSAGE@@QAEKXZ 0053ce50 f i Guild.obj
 0002:00069e90       ??0WSTC_GUILDWAR_RANK@@QAE@XZ 0053ce90 f i Guild.obj
 0002:00069ee0       ?GetPacketSize@WSTC_GUILDWAR_RANK@@QAEKXZ 0053cee0 f i Guild.obj
 0002:00069f20       ?GetPacketSize@CTWS_GUILDWAR_RANK@@QAEKXZ 0053cf20 f i Guild.obj
 0002:00069f60       ?GetPacketSize@CTWS_GUILDWAR_EXIT@@QAEKXZ 0053cf60 f i Guild.obj
 0002:00069fa0       ?GetPacketSize@CTWS_GUILDWAR_CREATE@@QAEKXZ 0053cfa0 f i Guild.obj
 0002:00069fe0       ??0WSTC_GUILDWAR_JOIN@@QAE@XZ 0053cfe0 f i Guild.obj
 0002:0006a030       ?GetPacketSize@WSTC_GUILDWAR_JOIN@@QAEKXZ 0053d030 f i Guild.obj
 0002:0006a070       ?GetPacketSize@CTWS_GUILDWAR_REQUESTRT@@QAEKXZ 0053d070 f i Guild.obj
 0002:0006a0b0       ?GetPacketSize@CTWS_GUILDWAR_ERRROR@@QAEKXZ 0053d0b0 f i Guild.obj
 0002:0006a0f0       ??0WSTC_GUILDWAR_ERRROR@@QAE@XZ 0053d0f0 f i Guild.obj
 0002:0006a140       ?GetPacketSize@WSTC_GUILDWAR_ERRROR@@QAEKXZ 0053d140 f i Guild.obj
 0002:0006a180       ??0WSTC_GUILDWAR_REQUEST@@QAE@XZ 0053d180 f i Guild.obj
 0002:0006a1d0       ?GetPacketSize@WSTC_GUILDWAR_REQUEST@@QAEKXZ 0053d1d0 f i Guild.obj
 0002:0006a210       ?GetPacketSize@CTWS_GUILDWAR_REQUEST@@QAEKXZ 0053d210 f i Guild.obj
 0002:0006a250       ??0WSTC_GUILD_ERROR@@QAE@XZ 0053d250 f i Guild.obj
 0002:0006a2a0       ?GetPacketSize@WSTC_GUILD_ERROR@@QAEKXZ 0053d2a0 f i Guild.obj
 0002:0006a2e0       ?GetPacketSize@CTWS_GUILD_CREATE@@QAEKXZ 0053d2e0 f i Guild.obj
 0002:0006a320       ?GetPacketSize@CTWS_GUILDJOIN_MESSAGE@@QAEKXZ 0053d320 f i Guild.obj
 0002:0006a360       ??0WSTC_GUILDJOIN_MESSAGE@@QAE@XZ 0053d360 f i Guild.obj
 0002:0006a3b0       ?GetPacketSize@WSTC_GUILDJOIN_MESSAGE@@QAEKXZ 0053d3b0 f i Guild.obj
 0002:0006a3f0       ??0WSTC_GUILD_JOINRESULT@@QAE@XZ 0053d3f0 f i Guild.obj
 0002:0006a440       ?GetPacketSize@WSTC_GUILD_JOINRESULT@@QAEKXZ 0053d440 f i Guild.obj
 0002:0006a480       ??0WSTC_GUILD_JOININFO@@QAE@XZ 0053d480 f i Guild.obj
 0002:0006a4d0       ?GetPacketSize@WSTC_GUILD_JOININFO@@QAEKXZ 0053d4d0 f i Guild.obj
 0002:0006a510       ?GetPacketSize@CTWS_GUILD_RANK@@QAEKXZ 0053d510 f i Guild.obj
 0002:0006a550       ??0WSTC_GUILD_RANK@@QAE@XZ 0053d550 f i Guild.obj
 0002:0006a5a0       ?GetPacketSize@WSTC_GUILD_RANK@@QAEKXZ 0053d5a0 f i Guild.obj
 0002:0006a5e0       ?GetPacketSize@CTWS_GUILD_INFO@@QAEKXZ 0053d5e0 f i Guild.obj
 0002:0006a620       ??0WSTC_GUILD_INFO@@QAE@XZ 0053d620 f i Guild.obj
 0002:0006a670       ?GetPacketSize@WSTC_GUILD_INFO@@QAEKXZ 0053d670 f i Guild.obj
 0002:0006a6b0       ?GetPacketSize@CTWS_GUILD_USERDEL@@QAEKXZ 0053d6b0 f i Guild.obj
 0002:0006a6f0       ??0WSTC_USER_DELETE@@QAE@XZ 0053d6f0 f i Guild.obj
 0002:0006a740       ?GetPacketSize@WSTC_USER_DELETE@@QAEKXZ 0053d740 f i Guild.obj
 0002:0006a780       ?GetPacketSize@CTWS_GUILD_DELETE@@QAEKXZ 0053d780 f i Guild.obj
 0002:0006a7c0       ??0WSTC_GUILD_DELETE@@QAE@XZ 0053d7c0 f i Guild.obj
 0002:0006a810       ?GetPacketSize@WSTC_GUILD_DELETE@@QAEKXZ 0053d810 f i Guild.obj
 0002:0006a850       ?GetPacketSize@CTWS_GUILDUSER_INFO@@QAEKXZ 0053d850 f i Guild.obj
 0002:0006a890       ??0WSTC_GUILDUSER_INFO@@QAE@XZ 0053d890 f i Guild.obj
 0002:0006a8e0       ?GetPacketSize@WSTC_GUILDUSER_INFO@@QAEKXZ 0053d8e0 f i Guild.obj
 0002:0006a920       ?GetPacketSize@CTWS_GUILD_REQUEST@@QAEKXZ 0053d920 f i Guild.obj
 0002:0006a960       ??0WSTC_GUILD_REQUEST@@QAE@XZ 0053d960 f i Guild.obj
 0002:0006a9b0       ?GetPacketSize@WSTC_GUILD_REQUEST@@QAEKXZ 0053d9b0 f i Guild.obj
 0002:0006a9f0       ?GetPacketSize@CTWS_GUILD_USERREQUEST_FAIL@@QAEKXZ 0053d9f0 f i Guild.obj
 0002:0006aa30       ??0WSTC_GUILD_USERREQUEST_FAIL@@QAE@XZ 0053da30 f i Guild.obj
 0002:0006aa80       ?GetPacketSize@WSTC_GUILD_USERREQUEST_FAIL@@QAEKXZ 0053da80 f i Guild.obj
 0002:0006aac0       ?GetPacketSize@CTWS_GUILD_DATA_REQUEST@@QAEKXZ 0053dac0 f i Guild.obj
 0002:0006ab00       ??0WSTC_GUILD_DATA_REQUEST@@QAE@XZ 0053db00 f i Guild.obj
 0002:0006ab50       ?GetPacketSize@WSTC_GUILD_DATA_REQUEST@@QAEKXZ 0053db50 f i Guild.obj
 0002:0006ab90       ??0WSTC_GUILD_COUNT@@QAE@XZ 0053db90 f i Guild.obj
 0002:0006abe0       ?GetPacketSize@WSTC_GUILD_COUNT@@QAEKXZ 0053dbe0 f i Guild.obj
 0002:0006ac20       ??0WSTC_RANK_FAIL@@QAE@XZ  0053dc20 f i Guild.obj
 0002:0006ac70       ?GetPacketSize@WSTC_RANK_FAIL@@QAEKXZ 0053dc70 f i Guild.obj
 0002:0006acb0       ??0WSTC_USER_MASTER@@QAE@XZ 0053dcb0 f i Guild.obj
 0002:0006ad00       ?GetPacketSize@WSTC_USER_MASTER@@QAEKXZ 0053dd00 f i Guild.obj
 0002:0006ad40       ?GetPacketSize@CTWS_USER_GUILDMASTER@@QAEKXZ 0053dd40 f i Guild.obj
 0002:0006ad80       ?DeleteData@CDungeonListHash@@UAEXPAX@Z 0053dd80 f   GuildHash.obj
 0002:0006ae20       ?DeleteData@CGuildOfflineHash@@UAEXPAX@Z 0053de20 f   GuildHash.obj
 0002:0006aec0       ?DeleteData@CGuildUserTableHash@@UAEXPAX@Z 0053dec0 f   GuildHash.obj
 0002:0006af00       ?DeleteData@CGuildTableHash@@UAEXPAX@Z 0053df00 f   GuildHash.obj
 0002:0006b090       ?DeleteData@CGroupInfoTableHash@@UAEXPAX@Z 0053e090 f   GuildHash.obj
 0002:0006b130       ?DeleteData@CGuildWarHash@@UAEXPAX@Z 0053e130 f   GuildHash.obj
 0002:0006b1d0       ?Destroy@?$CAbyssHash@UGUILD_OFFLINE_USER@@@@QAEXH@Z 0053e1d0 f i GuildHash.obj
 0002:0006b350       ?Destroy@?$CAbyssHash@VCWorldUser@@@@QAEXH@Z 0053e350 f i GuildHash.obj
 0002:0006b4d0       ?CmdMessengerUserAdd@@YAXPAVCWorldUser@@PADK@Z 0053e4d0 f   Messenger.obj
 0002:0006ba50       ?CmdMessengerAnswer@@YAXPAVCWorldUser@@PADK@Z 0053ea50 f   Messenger.obj
 0002:0006c280       ?CmdMessengerDelete@@YAXPAVCWorldUser@@PADK@Z 0053f280 f   Messenger.obj
 0002:0006c960       ?CmdMessengerInfo@@YAXPAVCWorldUser@@PADK@Z 0053f960 f   Messenger.obj
 0002:0006cc00       ?CmdMessengerStatus@@YAXPAVCWorldUser@@PADK@Z 0053fc00 f   Messenger.obj
 0002:0006ce20       ?GetCount@?$CAbyssHash@U__tag_messenger__@@@@QAEKXZ 0053fe20 f i Messenger.obj
 0002:0006ce60       ?Delete@?$CAbyssHash@U__tag_messenger__@@@@QAEXPAU__tag_messenger__@@KH@Z 0053fe60 f i Messenger.obj
 0002:0006cfd0       ?RemoveAtList@?$CAbyssHash@U__tag_messenger__@@@@QAEXPAU?$ListNode@U__tag_messenger__@@@@@Z 0053ffd0 f i Messenger.obj
 0002:0006d0a0       ??0WSTDS_FRIENDUSER_INFO@@QAE@XZ 005400a0 f i Messenger.obj
 0002:0006d0f0       ?GetPacketSize@WSTDS_FRIENDUSER_INFO@@QAEKXZ 005400f0 f i Messenger.obj
 0002:0006d130       ?GetPacketSize@CTWS_MESSENGER_USERADD@@QAEKXZ 00540130 f i Messenger.obj
 0002:0006d170       ??0WSTC_MESSENGER_USERFAIL@@QAE@XZ 00540170 f i Messenger.obj
 0002:0006d1c0       ?GetPacketSize@WSTC_MESSENGER_USERFAIL@@QAEKXZ 005401c0 f i Messenger.obj
 0002:0006d200       ??0WSTC_MESSENGER_USERADD@@QAE@XZ 00540200 f i Messenger.obj
 0002:0006d250       ?GetPacketSize@WSTC_MESSENGER_USERADD@@QAEKXZ 00540250 f i Messenger.obj
 0002:0006d290       ?GetPacketSize@CTWS_MESSENGER_ANSWER@@QAEKXZ 00540290 f i Messenger.obj
 0002:0006d2d0       ??0WSTC_MESSENGER_FAIL@@QAE@XZ 005402d0 f i Messenger.obj
 0002:0006d320       ?GetPacketSize@WSTC_MESSENGER_FAIL@@QAEKXZ 00540320 f i Messenger.obj
 0002:0006d360       ??0WSTC_MESSENGER_SUCCESS@@QAE@XZ 00540360 f i Messenger.obj
 0002:0006d3b0       ?GetPacketSize@WSTC_MESSENGER_SUCCESS@@QAEKXZ 005403b0 f i Messenger.obj
 0002:0006d3f0       ?GetPacketSize@CTWS_FRIENDUSER_INFO@@QAEKXZ 005403f0 f i Messenger.obj
 0002:0006d430       ??0WSTC_FRIENDUSER_INFO@@QAE@XZ 00540430 f i Messenger.obj
 0002:0006d480       ?GetPacketSize@WSTC_FRIENDUSER_INFO@@QAEKXZ 00540480 f i Messenger.obj
 0002:0006d4c0       ?GetPacketSize@CTWS_FRIENDUSER_DELETE@@QAEKXZ 005404c0 f i Messenger.obj
 0002:0006d500       ??0WSTS_FRIENDUSER_DELETE@@QAE@XZ 00540500 f i Messenger.obj
 0002:0006d550       ?GetPacketSize@WSTS_FRIENDUSER_DELETE@@QAEKXZ 00540550 f i Messenger.obj
 0002:0006d590       ?GetPacketSize@CTWS_MESSENGER_STATUS@@QAEKXZ 00540590 f i Messenger.obj
 0002:0006d5d0       ??0WSTC_MESSENGER_STATUS@@QAE@XZ 005405d0 f i Messenger.obj
 0002:0006d620       ?GetPacketSize@WSTC_MESSENGER_STATUS@@QAEKXZ 00540620 f i Messenger.obj
 0002:0006d660       ?DeleteData@CMessengerUserHash@@UAEXPAX@Z 00540660 f   MessengerHash.obj
 0002:0006d6e0       ?DeleteData@CMessengerTableHash@@UAEXPAX@Z 005406e0 f   MessengerHash.obj
 0002:0006d800       ?Destroy@?$CAbyssHash@U__tag_messenger__@@@@QAEXH@Z 00540800 f i MessengerHash.obj
 0002:0006d980       ?CmdPartyUserWorldInfo@@YAXPAVCWorldUser@@PADK@Z 00540980 f   Party.obj
 0002:0006da60       ?CmdPartyUserRequestFail@@YAXPAVCWorldUser@@PADK@Z 00540a60 f   Party.obj
 0002:0006db90       ?CmdPartyUserRequest@@YAXPAVCWorldUser@@PADK@Z 00540b90 f   Party.obj
 0002:0006def0       ?CmdPartyInfo@@YAXPAVCWorldUser@@PADK@Z 00540ef0 f   Party.obj
 0002:0006e200       ?CmdPartySet@@YAXPAVCWorldUser@@PADK@Z 00541200 f   Party.obj
 0002:0006e330       ?CmdPartyLogOutUser@@YAXPAVCWorldUser@@PADK@Z 00541330 f   Party.obj
 0002:0006f080       ?CmdPartyLogoutCl@@YAXPAVCWorldUser@@PADK@Z 00542080 f   Party.obj
 0002:0006fd80       ?CmdPartyApprove@@YAXPAVCWorldUser@@PADK@Z 00542d80 f   Party.obj
 0002:00070c00       ?CmdPartyJoin@@YAXPAVCWorldUser@@PADK@Z 00543c00 f   Party.obj
 0002:00070ed0       ?CmdPartyEntry@@YAXPAVCWorldUser@@PADK@Z 00543ed0 f   Party.obj
 0002:000712a0       ?CmdPartyInfoRequest@@YAXPAVCWorldUser@@PADK@Z 005442a0 f   Party.obj
 0002:000715b0       ?CmdPartyBoardDelete@@YAXPAVCWorldUser@@PADK@Z 005445b0 f   Party.obj
 0002:00071810       ?CmdPartyConfig@@YAXPAVCWorldUser@@PADK@Z 00544810 f   Party.obj
 0002:00071a40       ?CmdPartyFriend@@YAXPAVCWorldUser@@PADK@Z 00544a40 f   Party.obj
 0002:00071b90       ?AddPartyFriend@@YAXKK@Z   00544b90 f   Party.obj
 0002:00071c90       ?GetCount@?$CAbyssHash@U__tag_partyboard_table__@@@@QAEKXZ 00544c90 f i Party.obj
 0002:00071cd0       ?GetHead@?$CAbyssHash@U__tag_partyboard_table__@@@@QAEPAU?$ListNode@U__tag_partyboard_table__@@@@XZ 00544cd0 f i Party.obj
 0002:00071d10       ?Insert@?$CAbyssHash@U__tag_party_table__@@@@QAEKPAU__tag_party_table__@@K@Z 00544d10 f i Party.obj
 0002:00071ed0       ?Insert@?$CAbyssHash@U__tag_partyboard_table__@@@@QAEKPAU__tag_partyboard_table__@@K@Z 00544ed0 f i Party.obj
 0002:00072090       ?AddList@?$CAbyssHash@U__tag_party_table__@@@@QAEPAU?$ListNode@U__tag_party_table__@@@@PAU__tag_party_table__@@@Z 00545090 f i Party.obj
 0002:00072190       ?AddList@?$CAbyssHash@U__tag_partyboard_table__@@@@QAEPAU?$ListNode@U__tag_partyboard_table__@@@@PAU__tag_partyboard_table__@@@Z 00545190 f i Party.obj
 0002:00072290       ??0WSTDS_PARTY_INFO@@QAE@XZ 00545290 f i Party.obj
 0002:000722e0       ?GetPacketSize@WSTDS_PARTY_INFO@@QAEKXZ 005452e0 f i Party.obj
 0002:00072320       ??0WSTDS_PARTY_CONFIG@@QAE@XZ 00545320 f i Party.obj
 0002:00072380       ??0PARTY_CONFIG@@QAE@XZ    00545380 f i Party.obj
 0002:000723d0       ?GetPacketSize@WSTDS_PARTY_CONFIG@@QAEKXZ 005453d0 f i Party.obj
 0002:00072410       ?GetPacketSize@CTWS_PARTY_BOARDDELETE@@QAEKXZ 00545410 f i Party.obj
 0002:00072450       ?GetPacketSize@CTWS_PARTY_INFOREQUEST@@QAEKXZ 00545450 f i Party.obj
 0002:00072490       ??0WSTC_PARTY_INFOREQUEST@@QAE@XZ 00545490 f i Party.obj
 0002:000724e0       ?GetPacketSize@WSTC_PARTY_INFOREQUEST@@QAEKXZ 005454e0 f i Party.obj
 0002:00072520       ??0WSTC_PARTY_ENTRY@@QAE@XZ 00545520 f i Party.obj
 0002:00072570       ?GetPacketSize@WSTC_PARTY_ENTRY@@QAEKXZ 00545570 f i Party.obj
 0002:000725b0       ?GetPacketSize@CTWS_PARTY_ENTRY@@QAEKXZ 005455b0 f i Party.obj
 0002:000725f0       ?GetPacketSize@CTWS_PARTY_CONFIG@@QAEKXZ 005455f0 f i Party.obj
 0002:00072630       ?GetPacketSize@CTWS_PARTY_FRIEND@@QAEKXZ 00545630 f i Party.obj
 0002:00072670       ?GetPacketSize@CTWS_PARTY_JOIN@@QAEKXZ 00545670 f i Party.obj
 0002:000726b0       ??0WSTC_PARTY_JOIN@@QAE@XZ 005456b0 f i Party.obj
 0002:00072700       ?GetPacketSize@WSTC_PARTY_JOIN@@QAEKXZ 00545700 f i Party.obj
 0002:00072740       ??0WSTC_PARTY_JOINID@@QAE@XZ 00545740 f i Party.obj
 0002:00072790       ?GetPacketSize@WSTC_PARTY_JOINID@@QAEKXZ 00545790 f i Party.obj
 0002:000727d0       ?GetPacketSize@CTWS_PARTY_LOGOUT@@QAEKXZ 005457d0 f i Party.obj
 0002:00072810       ?GetPacketSize@CTWS_PARTY_SET@@QAEKXZ 00545810 f i Party.obj
 0002:00072850       ??0WSTC_PARTY_SET@@QAE@XZ  00545850 f i Party.obj
 0002:000728a0       ?GetPacketSize@WSTC_PARTY_SET@@QAEKXZ 005458a0 f i Party.obj
 0002:000728e0       ?GetPacketSize@CTWS_PARTY_INFO@@QAEKXZ 005458e0 f i Party.obj
 0002:00072920       ??0WSTC_PARTY_INFO@@QAE@XZ 00545920 f i Party.obj
 0002:00072970       ?GetPacketSize@WSTC_PARTY_INFO@@QAEKXZ 00545970 f i Party.obj
 0002:000729b0       ?GetPacketSize@CTWS_PARTY_LOGOUTRT@@QAEKXZ 005459b0 f i Party.obj
 0002:000729f0       ?GetPacketSize@CTWS_PARTY_USERREQUEST@@QAEKXZ 005459f0 f i Party.obj
 0002:00072a30       ??0WSTC_PARTY_USERREQUEST@@QAE@XZ 00545a30 f i Party.obj
 0002:00072a80       ?GetPacketSize@WSTC_PARTY_USERREQUEST@@QAEKXZ 00545a80 f i Party.obj
 0002:00072ac0       ??0WSTC_PARTY_USERREQUEST_FAIL@@QAE@XZ 00545ac0 f i Party.obj
 0002:00072b10       ?GetPacketSize@WSTC_PARTY_USERREQUEST_FAIL@@QAEKXZ 00545b10 f i Party.obj
 0002:00072b50       ?GetPacketSize@CTWS_PARTY_USERREQUEST_FAIL@@QAEKXZ 00545b50 f i Party.obj
 0002:00072b90       ?DeleteData@CPartyTableHash@@UAEXPAX@Z 00545b90 f   PartyHash.obj
 0002:00072d10       ?DeleteData@CPartyBoardTableHash@@UAEXPAX@Z 00545d10 f   PartyHash.obj
 0002:00072d90       ?SendGotoWorldError@@YAXPAVCWorldUser@@E@Z 00545d90 f   MsgProcForServer.obj
 0002:00072e80       ?CmdGotoWorld@@YAXPAUSERVER_DATA@@PADK@Z 00545e80 f   MsgProcForServer.obj
 0002:00073250       ??0CPlayerInfo@@QAE@PAVCWorldUser@@@Z 00546250 f i MsgProcForServer.obj
 0002:00073340       ??1CPlayerInfo@@UAE@XZ     00546340 f i MsgProcForServer.obj
 0002:000733b0       ?Name@CPlayerInfo@@QAEXABV?$basic_string@DU?$char_traits@D@std@@V?$allocator@D@2@@std@@@Z 005463b0 f i MsgProcForServer.obj
 0002:00073410       ??_ECPlayerInfo@@UAEPAXI@Z 00546410 f i MsgProcForServer.obj
 0002:00073410       ??_GCPlayerInfo@@UAEPAXI@Z 00546410 f i MsgProcForServer.obj
 0002:00073480       ?CmdUserAcceptAllowed@@YAXPAUSERVER_DATA@@PADK@Z 00546480 f   MsgProcForServer.obj
 0002:00073800       ?CmdUserAcceptFailed@@YAXPAUSERVER_DATA@@PADK@Z 00546800 f   MsgProcForServer.obj
 0002:00073930       ?CmdCheckDungeonJoin@@YAXPAUSERVER_DATA@@PADK@Z 00546930 f   MsgProcForServer.obj
 0002:00073d10       ?CmdDungeonJoinSuccess@@YAXPAUSERVER_DATA@@PADK@Z 00546d10 f   MsgProcForServer.obj
 0002:00074120       ?CmdServerAttach@@YAXKPADK@Z 00547120 f   MsgProcForServer.obj
 0002:00074810       ?CmdDungeonMagicArrayItem@@YAXPAUSERVER_DATA@@PADK@Z 00547810 f   MsgProcForServer.obj
 0002:00074960       ?CmdDungeonGuardianItem@@YAXPAUSERVER_DATA@@PADK@Z 00547960 f   MsgProcForServer.obj
 0002:00074ab0       ?CmdDungeonOwnerChange@@YAXPAUSERVER_DATA@@PADK@Z 00547ab0 f   MsgProcForServer.obj
 0002:00074b90       ?CmdFriendUserInfoRt@@YAXPAUSERVER_DATA@@PADK@Z 00547b90 f   MsgProcForServer.obj
 0002:00074d40       ?CmdRefreshProduct_Acquisition@@YAXPAUSERVER_DATA@@PADK@Z 00547d40 f   MsgProcForServer.obj
 0002:00074e00       ?CmdCreateProduct@@YAXPAUSERVER_DATA@@PADK@Z 00547e00 f   MsgProcForServer.obj
 0002:00074ec0       ?CmdRefreshAccEntrance_Acquisition@@YAXPAUSERVER_DATA@@PADK@Z 00547ec0 f   MsgProcForServer.obj
 0002:00074f80       ?CmdRefreshAccExp_Acquisition@@YAXPAUSERVER_DATA@@PADK@Z 00547f80 f   MsgProcForServer.obj
 0002:00075040       ?CmdRefreshEntrance_Edit@@YAXPAUSERVER_DATA@@PADK@Z 00548040 f   MsgProcForServer.obj
 0002:00075100       ?CmdRefreshDefenseCount@@YAXPAUSERVER_DATA@@PADK@Z 00548100 f   MsgProcForServer.obj
 0002:000751c0       ?CmdRefreshOperationMode@@YAXPAUSERVER_DATA@@PADK@Z 005481c0 f   MsgProcForServer.obj
 0002:00075280       ?CmdDungeonAliveInfo@@YAXPAUSERVER_DATA@@PADK@Z 00548280 f   MsgProcForServer.obj
 0002:00075420       ?CmdCharacterSearch@@YAXPAUSERVER_DATA@@PADK@Z 00548420 f   MsgProcForServer.obj
 0002:000755b0       ?CmdEventDungeonUserEnter@@YAXPAUSERVER_DATA@@PADK@Z 005485b0 f   MsgProcForServer.obj
 0002:00075730       ?CmdEventDungeonUserOut@@YAXPAUSERVER_DATA@@PADK@Z 00548730 f   MsgProcForServer.obj
 0002:000758c0       ?CmdGmCommand_DSWS@@YAXPAUSERVER_DATA@@PADK@Z 005488c0 f   MsgProcForServer.obj
 0002:00075940       ?Insert@?$CTeamMatcher@V?$CCondition@VCMatchCondition@@VCTeamInfo@@@@VCGuildMatchHandler@@@@QAE_NABV?$CCondition@VCMatchCondition@@VCTeamInfo@@@@ABVCPlayerInfo@@@Z 00548940 f i MsgProcForServer.obj
 0002:00075b20       ?Remove@?$CTeamMatcher@V?$CCondition@VCMatchCondition@@VCTeamInfo@@@@VCGuildMatchHandler@@@@QAE_NABV?$CCondition@VCMatchCondition@@VCTeamInfo@@@@ABVCPlayerInfo@@@Z 00548b20 f i MsgProcForServer.obj
 0002:00075c20       ?List@?$CTeamMatchHandler@VCPlayerInfo@@@@QAEAAV?$CHS_LIST@VCPlayerInfo@@PAX@@XZ 00548c20 f i MsgProcForServer.obj
 0002:00075c60       ??0WSTAS_REQUEST_CHINA_BILLING@@QAE@XZ 00548c60 f i MsgProcForServer.obj
 0002:00075cb0       ?GetPacketSize@WSTAS_REQUEST_CHINA_BILLING@@QAEKXZ 00548cb0 f i MsgProcForServer.obj
 0002:00075cf0       ??0WSTAS_SERVER_ALIVE_INFO@@QAE@XZ 00548cf0 f i MsgProcForServer.obj
 0002:00075d40       ?GetPacketSize@WSTAS_SERVER_ALIVE_INFO@@QAEKXZ 00548d40 f i MsgProcForServer.obj
 0002:00075d80       ?Erase@?$CHS_LIST@VCPlayerInfo@@PAX@@QAE_NABVCPlayerInfo@@@Z 00548d80 f i MsgProcForServer.obj
 0002:00075e90       ??8CPlayerInfo@@QBE_NABV0@@Z 00548e90 f i MsgProcForServer.obj
 0002:00075f10       ?begin@?$list@VCPlayerInfo@@V?$allocator@VCPlayerInfo@@@std@@@std@@QAE?AViterator@12@XZ 00548f10 f i MsgProcForServer.obj
 0002:00075f80       ?end@?$list@VCPlayerInfo@@V?$allocator@VCPlayerInfo@@@std@@@std@@QAE?AViterator@12@XZ 00548f80 f i MsgProcForServer.obj
 0002:00075fe0       ?erase@?$list@VCPlayerInfo@@V?$allocator@VCPlayerInfo@@@std@@@std@@QAE?AViterator@12@V312@@Z 00548fe0 f i MsgProcForServer.obj
 0002:00076100       ??Diterator@?$list@VCPlayerInfo@@V?$allocator@VCPlayerInfo@@@std@@@std@@QBEAAVCPlayerInfo@@XZ 00549100 f i MsgProcForServer.obj
 0002:00076150       ??Eiterator@?$list@VCPlayerInfo@@V?$allocator@VCPlayerInfo@@@std@@@std@@QAEAAV012@XZ 00549150 f i MsgProcForServer.obj
 0002:000761b0       ??9const_iterator@?$list@VCPlayerInfo@@V?$allocator@VCPlayerInfo@@@std@@@std@@QBE_NABV012@@Z 005491b0 f i MsgProcForServer.obj
 0002:00076210       ?_Nextnode@?$list@VCPlayerInfo@@V?$allocator@VCPlayerInfo@@@std@@@std@@KAAAPAU_Node@?$_List_nod@VCPlayerInfo@@V?$allocator@VCPlayerInfo@@@std@@@2@PAU342@@Z 00549210 f i MsgProcForServer.obj
 0002:00076250       ?_Prevnode@?$list@VCPlayerInfo@@V?$allocator@VCPlayerInfo@@@std@@@std@@KAAAPAU_Node@?$_List_nod@VCPlayerInfo@@V?$allocator@VCPlayerInfo@@@std@@@2@PAU342@@Z 00549250 f i MsgProcForServer.obj
 0002:00076290       ?deallocate@?$allocator@U_Node@?$_List_nod@VCPlayerInfo@@V?$allocator@VCPlayerInfo@@@std@@@std@@@std@@QAEXPAU_Node@?$_List_nod@VCPlayerInfo@@V?$allocator@VCPlayerInfo@@@std@@@2@I@Z 00549290 f i MsgProcForServer.obj
 0002:000762f0       ?destroy@?$allocator@U_Node@?$_List_nod@VCPlayerInfo@@V?$allocator@VCPlayerInfo@@@std@@@std@@@std@@QAEXPAU_Node@?$_List_nod@VCPlayerInfo@@V?$allocator@VCPlayerInfo@@@std@@@2@@Z 005492f0 f i MsgProcForServer.obj
 0002:00076350       ??0iterator@?$list@VCPlayerInfo@@V?$allocator@VCPlayerInfo@@@std@@@std@@QAE@PAU_Node@?$_List_nod@VCPlayerInfo@@V?$allocator@VCPlayerInfo@@@std@@@2@@Z 00549350 f i MsgProcForServer.obj
 0002:000763b0       ??Eiterator@?$list@VCPlayerInfo@@V?$allocator@VCPlayerInfo@@@std@@@std@@QAE?AV012@H@Z 005493b0 f i MsgProcForServer.obj
 0002:00076450       ??Dconst_iterator@?$list@VCPlayerInfo@@V?$allocator@VCPlayerInfo@@@std@@@std@@QBEABVCPlayerInfo@@XZ 00549450 f i MsgProcForServer.obj
 0002:000764b0       ??Econst_iterator@?$list@VCPlayerInfo@@V?$allocator@VCPlayerInfo@@@std@@@std@@QAEAAV012@XZ 005494b0 f i MsgProcForServer.obj
 0002:00076520       ??8const_iterator@?$list@VCPlayerInfo@@V?$allocator@VCPlayerInfo@@@std@@@std@@QBE_NABV012@@Z 00549520 f i MsgProcForServer.obj
 0002:00076570       ?_Mynode@const_iterator@?$list@VCPlayerInfo@@V?$allocator@VCPlayerInfo@@@std@@@std@@QBEPAU_Node@?$_List_nod@VCPlayerInfo@@V?$allocator@VCPlayerInfo@@@std@@@3@XZ 00549570 f i MsgProcForServer.obj
 0002:000765b0       ?common_insert@?$CTeamMatcher@V?$CCondition@VCMatchCondition@@VCTeamInfo@@@@VCGuildMatchHandler@@@@IAE_NPAVCGuildMatchHandler@@ABVCPlayerInfo@@@Z 005495b0 f i MsgProcForServer.obj
 0002:000766a0       ??6?$basic_ostream@DU?$char_traits@D@std@@@std@@QAEAAV01@P6AAAV01@AAV01@@Z@Z 005496a0 f i MsgProcForServer.obj
 0002:00076700       ?Find@?$CHS_LIST@VCPlayerInfo@@PAX@@QAEPAVCPlayerInfo@@ABV2@@Z 00549700 f i MsgProcForServer.obj
 0002:00076800       ?PushBack@?$CHS_LIST@VCPlayerInfo@@PAX@@QAEXABVCPlayerInfo@@@Z 00549800 f i MsgProcForServer.obj
 0002:00076860       ?_Myval@?$list@VCPlayerInfo@@V?$allocator@VCPlayerInfo@@@std@@@std@@KAAAVCPlayerInfo@@PAU_Node@?$_List_nod@VCPlayerInfo@@V?$allocator@VCPlayerInfo@@@std@@@2@@Z 00549860 f i MsgProcForServer.obj
 0002:000768a0       ??0const_iterator@?$list@VCPlayerInfo@@V?$allocator@VCPlayerInfo@@@std@@@std@@QAE@PAU_Node@?$_List_nod@VCPlayerInfo@@V?$allocator@VCPlayerInfo@@@std@@@2@@Z 005498a0 f i MsgProcForServer.obj
 0002:000768f0       ?push_back@?$list@VCPlayerInfo@@V?$allocator@VCPlayerInfo@@@std@@@std@@QAEXABVCPlayerInfo@@@Z 005498f0 f i MsgProcForServer.obj
 0002:00076960       ?endl@std@@YAAAV?$basic_ostream@DU?$char_traits@D@std@@@1@AAV21@@Z 00549960 f i MsgProcForServer.obj
 0002:000769c0       ?_Insert@?$list@VCPlayerInfo@@V?$allocator@VCPlayerInfo@@@std@@@std@@QAEXViterator@12@ABVCPlayerInfo@@@Z 005499c0 f i MsgProcForServer.obj
 0002:00076a90       ?GetPacketSize@DSTWS_SERVER_ATTACH@@QAEKXZ 00549a90 f i MsgProcForServer.obj
 0002:00076ad0       ?GetPacketSize@DSTWS_USER_ACCEPT_ALLOWED@@QAEKXZ 00549ad0 f i MsgProcForServer.obj
 0002:00076b10       ??0WSTDS_REMOVE_USER_ACCEPT_ALLOWED@@QAE@XZ 00549b10 f i MsgProcForServer.obj
 0002:00076b60       ?GetPacketSize@WSTDS_REMOVE_USER_ACCEPT_ALLOWED@@QAEKXZ 00549b60 f i MsgProcForServer.obj
 0002:00076ba0       ?GetPacketSize@DSTWS_USER_ACCEPT_FAILED@@QAEKXZ 00549ba0 f i MsgProcForServer.obj
 0002:00076be0       ?GetPacketSize@DSTWS_DUNGEON_MAGICARRAY_ATTACH@@QAEKXZ 00549be0 f i MsgProcForServer.obj
 0002:00076c20       ?GetPacketSize@DSTWS_DUNGEON_OWNER_CHANGE@@QAEKXZ 00549c20 f i MsgProcForServer.obj
 0002:00076c60       ?GetPacketSize@DSTWS_DUNGEON_GUARDIANITEM_ATTACH@@QAEKXZ 00549c60 f i MsgProcForServer.obj
 0002:00076ca0       ??0WSTS_DUNGEON_INFO@@QAE@XZ 00549ca0 f i MsgProcForServer.obj
 0002:00076d10       ?GetPacketSize@WSTS_DUNGEON_INFO@@QAEKXZ 00549d10 f i MsgProcForServer.obj
 0002:00076d50       ?GetPacketSize@DSTWS_GOTOWORLD@@QAEKXZ 00549d50 f i MsgProcForServer.obj
 0002:00076d90       ?_Buynode@?$list@VCPlayerInfo@@V?$allocator@VCPlayerInfo@@@std@@@std@@IAEPAU_Node@?$_List_nod@VCPlayerInfo@@V?$allocator@VCPlayerInfo@@@std@@@2@PAU342@0ABVCPlayerInfo@@@Z 00549d90 f i MsgProcForServer.obj
 0002:00076ee0       ?allocate@?$allocator@U_Node@?$_List_nod@VCPlayerInfo@@V?$allocator@VCPlayerInfo@@@std@@@std@@@std@@QAEPAU_Node@?$_List_nod@VCPlayerInfo@@V?$allocator@VCPlayerInfo@@@std@@@2@I@Z 00549ee0 f i MsgProcForServer.obj
 0002:00076f40       ?_Incsize@?$list@VCPlayerInfo@@V?$allocator@VCPlayerInfo@@@std@@@std@@IAEXI@Z 00549f40 f i MsgProcForServer.obj
 0002:00077030       ?GetPacketSize@DSTWS_DUNGEON_JOIN_SUCCESS@@QAEKXZ 0054a030 f i MsgProcForServer.obj
 0002:00077070       ?GetPacketSize@DSWST_CREATEPRODUCTION@@QAEKXZ 0054a070 f i MsgProcForServer.obj
 0002:000770b0       ?GetPacketSize@DSTWS_REFRESH_PRODUCT_ACQUISITION@@QAEKXZ 0054a0b0 f i MsgProcForServer.obj
 0002:000770f0       ?GetPacketSize@DSTWS_REFRESH_ACCEXP_ACQUISITION@@QAEKXZ 0054a0f0 f i MsgProcForServer.obj
 0002:00077130       ?GetPacketSize@DSTWS_REFRESH_ENTRANCE_EDIT@@QAEKXZ 0054a130 f i MsgProcForServer.obj
 0002:00077170       ?GetPacketSize@DSTWS_REFRESH_ACCENTRANCE_ACQUISITION@@QAEKXZ 0054a170 f i MsgProcForServer.obj
 0002:000771b0       ?GetPacketSize@DSTWS_EVENT_DUNGEON_USER_OUT@@QAEKXZ 0054a1b0 f i MsgProcForServer.obj
 0002:000771f0       ?max_size@?$list@VCPlayerInfo@@V?$allocator@VCPlayerInfo@@@std@@@std@@QBEIXZ 0054a1f0 f i MsgProcForServer.obj
 0002:00077250       ??0_Node@?$_List_nod@VCPlayerInfo@@V?$allocator@VCPlayerInfo@@@std@@@std@@QAE@PAU012@0ABVCPlayerInfo@@@Z 0054a250 f i MsgProcForServer.obj
 0002:000772d0       ??0CPlayerInfo@@QAE@ABV0@@Z 0054a2d0 f i MsgProcForServer.obj
 0002:00077350       ?max_size@?$allocator@VCPlayerInfo@@@std@@QBEIXZ 0054a350 f i MsgProcForServer.obj
 0002:000773c0       ?GetPacketSize@DSTWS_DUNGEON_ALIVE_INFO@@QAEKXZ 0054a3c0 f i MsgProcForServer.obj
 0002:00077400       ?GetPacketSize@WSTDS_SEARCH@@QAEKXZ 0054a400 f i MsgProcForServer.obj
 0002:00077440       ?GetPacketSize@DSTWS_GM_COMMAND@@QAEKXZ 0054a440 f i MsgProcForServer.obj
 0002:00077480       ?GetPacketSize@DSTWS_FRIENDUSER_INFO@@QAEKXZ 0054a480 f i MsgProcForServer.obj
 0002:000774c0       ??0WSTS_SERVER_ATTACH_RESULT@@QAE@XZ 0054a4c0 f i MsgProcForServer.obj
 0002:00077510       ?GetPacketSize@WSTS_SERVER_ATTACH_RESULT@@QAEKXZ 0054a510 f i MsgProcForServer.obj
 0002:00077550       ?GetPacketSize@DSTWS_EVENT_DUNGEON_USER_ENTER_BY_PORTAL@@QAEKXZ 0054a550 f i MsgProcForServer.obj
 0002:00077590       ??0WSTDS_EVENT_JOINUSER_COUNT@@QAE@XZ 0054a590 f i MsgProcForServer.obj
 0002:000775e0       ?GetPacketSize@WSTDS_EVENT_JOINUSER_COUNT@@QAEKXZ 0054a5e0 f i MsgProcForServer.obj
 0002:00077620       ?GetPacketSize@DSTWS_REFRESH_DEFENSECOUNT@@QAEKXZ 0054a620 f i MsgProcForServer.obj
 0002:00077660       ?GetPacketSize@DSTWS_DUNGEON_REFRESH_OPERATIONMODE@@QAEKXZ 0054a660 f i MsgProcForServer.obj
 0002:000776a0       ??0WSTDS_CHECK_DUNGEONJOIN_RT@@QAE@XZ 0054a6a0 f i MsgProcForServer.obj
 0002:000776f0       ?GetPacketSize@WSTDS_CHECK_DUNGEONJOIN_RT@@QAEKXZ 0054a6f0 f i MsgProcForServer.obj
 0002:00077730       ??$?8DU?$char_traits@D@std@@V?$allocator@D@1@@std@@YA_NABV?$basic_string@DU?$char_traits@D@std@@V?$allocator@D@2@@0@0@Z 0054a730 f i MsgProcForServer.obj
 0002:00077790       ??$?6U?$char_traits@D@std@@@std@@YAAAV?$basic_ostream@DU?$char_traits@D@std@@@0@AAV10@PBD@Z 0054a790 f i MsgProcForServer.obj
 0002:00077c00       ?fill@?$basic_ios@DU?$char_traits@D@std@@@std@@QBEDXZ 0054ac00 f i MsgProcForServer.obj
 0002:00077c40       ?eq_int_type@?$char_traits@D@std@@SA_NABH0@Z 0054ac40 f i MsgProcForServer.obj
 0002:00077c90       ?eof@?$char_traits@D@std@@SAHXZ 0054ac90 f i MsgProcForServer.obj
 0002:00077cd0       ?flags@ios_base@std@@QBEHXZ 0054acd0 f i MsgProcForServer.obj
 0002:00077d10       ?width@ios_base@std@@QBEHXZ 0054ad10 f i MsgProcForServer.obj
 0002:00077d50       ?width@ios_base@std@@QAEHH@Z 0054ad50 f i MsgProcForServer.obj
 0002:00077db0       ??0WSTC_CONNECT_DUNGEON_SERVER@@QAE@XZ 0054adb0 f i MsgProcForServer.obj
 0002:00077e00       ?GetPacketSize@WSTC_CONNECT_DUNGEON_SERVER@@QAEKXZ 0054ae00 f i MsgProcForServer.obj
 0002:00077e40       ??$_Destroy@U_Node@?$_List_nod@VCPlayerInfo@@V?$allocator@VCPlayerInfo@@@std@@@std@@@std@@YAXPAU_Node@?$_List_nod@VCPlayerInfo@@V?$allocator@VCPlayerInfo@@@std@@@0@@Z 0054ae40 f i MsgProcForServer.obj
 0002:00077e90       ??0WSTC_MOVE_TO_WORLD@@QAE@XZ 0054ae90 f i MsgProcForServer.obj
 0002:00077ee0       ?GetPacketSize@WSTC_MOVE_TO_WORLD@@QAEKXZ 0054aee0 f i MsgProcForServer.obj
 0002:00077f20       ??0WSTC_GO_TO_WORLD_FAIL@@QAE@XZ 0054af20 f i MsgProcForServer.obj
 0002:00077f70       ?GetPacketSize@WSTC_GO_TO_WORLD_FAIL@@QAEKXZ 0054af70 f i MsgProcForServer.obj
 0002:00077fb0       ??0WSTC_WORLD_DISAPPEAR@@QAE@XZ 0054afb0 f i MsgProcForServer.obj
 0002:00078000       ?GetPacketSize@WSTC_WORLD_DISAPPEAR@@QAEKXZ 0054b000 f i MsgProcForServer.obj
 0002:00078040       ??0WSTC_PARTY_USER_TRY_TO_CONNECT@@QAE@XZ 0054b040 f i MsgProcForServer.obj
 0002:00078090       ?GetPacketSize@WSTC_PARTY_USER_TRY_TO_CONNECT@@QAEKXZ 0054b090 f i MsgProcForServer.obj
 0002:000780d0       ??0WSTC_REFRESHEVENT_DUNGEON_GUARDIANITEM@@QAE@XZ 0054b0d0 f i MsgProcForServer.obj
 0002:00078120       ?GetPacketSize@WSTC_REFRESHEVENT_DUNGEON_GUARDIANITEM@@QAEKXZ 0054b120 f i MsgProcForServer.obj
 0002:00078160       ??0WSTC_REFRESHEVENT_DUNGEON_MAGICFIELDARRAY@@QAE@XZ 0054b160 f i MsgProcForServer.obj
 0002:000781b0       ?GetPacketSize@WSTC_REFRESHEVENT_DUNGEON_MAGICFIELDARRAY@@QAEKXZ 0054b1b0 f i MsgProcForServer.obj
 0002:000781f0       ??$_Allocate@U_Node@?$_List_nod@VCPlayerInfo@@V?$allocator@VCPlayerInfo@@@std@@@std@@@std@@YAPAU_Node@?$_List_nod@VCPlayerInfo@@V?$allocator@VCPlayerInfo@@@std@@@0@IPAU120@@Z 0054b1f0 f i MsgProcForServer.obj
 0002:00078250       ??_G_Node@?$_List_nod@VCPlayerInfo@@V?$allocator@VCPlayerInfo@@@std@@@std@@QAEPAXI@Z 0054b250 f i MsgProcForServer.obj
 0002:000782c0       ??1_Node@?$_List_nod@VCPlayerInfo@@V?$allocator@VCPlayerInfo@@@std@@@std@@QAE@XZ 0054b2c0 f i MsgProcForServer.obj
 0002:00078320       ?sputn@?$basic_streambuf@DU?$char_traits@D@std@@@std@@QAEHPBDH@Z 0054b320 f i MsgProcForServer.obj
 0002:00078390       ??0?$basic_string@DU?$char_traits@D@std@@V?$allocator@D@2@@std@@QAE@XZ 0054b390 f i MsgProcForServer.obj
 0002:00078400       ?put@?$basic_ostream@DU?$char_traits@D@std@@@std@@QAEAAV12@D@Z 0054b400 f i MsgProcForServer.obj
 0002:00078610       ?flush@?$basic_ostream@DU?$char_traits@D@std@@@std@@QAEAAV12@XZ 0054b610 f i MsgProcForServer.obj
 0002:000786d0       ?fail@ios_base@std@@QBE_NXZ 0054b6d0 f i MsgProcForServer.obj
 0002:00078730       ?rdstate@ios_base@std@@QBEHXZ 0054b730 f i MsgProcForServer.obj
 0002:00078770       ?setstate@?$basic_ios@DU?$char_traits@D@std@@@std@@QAEXH_N@Z 0054b770 f i MsgProcForServer.obj
 0002:000787e0       ?rdbuf@?$basic_ios@DU?$char_traits@D@std@@@std@@QBEPAV?$basic_streambuf@DU?$char_traits@D@std@@@2@XZ 0054b7e0 f i MsgProcForServer.obj
 0002:00078820       ?clear@?$basic_ios@DU?$char_traits@D@std@@@std@@QAEXH_N@Z 0054b820 f i MsgProcForServer.obj
 0002:000788b0       ?pubsync@?$basic_streambuf@DU?$char_traits@D@std@@@std@@QAEHXZ 0054b8b0 f i MsgProcForServer.obj
 0002:00078910       ?sputc@?$basic_streambuf@DU?$char_traits@D@std@@@std@@QAEHD@Z 0054b910 f i MsgProcForServer.obj
 0002:00078a00       ?to_int_type@?$char_traits@D@std@@SAHABD@Z 0054ba00 f i MsgProcForServer.obj
 0002:00078a40       ?pptr@?$basic_streambuf@DU?$char_traits@D@std@@@std@@IBEPADXZ 0054ba40 f i MsgProcForServer.obj
 0002:00078a80       ?epptr@?$basic_streambuf@DU?$char_traits@D@std@@@std@@IBEPADXZ 0054ba80 f i MsgProcForServer.obj
 0002:00078ad0       ??0sentry@?$basic_ostream@DU?$char_traits@D@std@@@std@@QAE@AAV12@@Z 0054bad0 f i MsgProcForServer.obj
 0002:00078be0       ?good@ios_base@std@@QBE_NXZ 0054bbe0 f i MsgProcForServer.obj
 0002:00078c40       ??1sentry@?$basic_ostream@DU?$char_traits@D@std@@@std@@QAE@XZ 0054bc40 f i MsgProcForServer.obj
 0002:00078cf0       ??Bsentry@?$basic_ostream@DU?$char_traits@D@std@@@std@@QBE_NXZ 0054bcf0 f i MsgProcForServer.obj
 0002:00078d30       ?_Osfx@?$basic_ostream@DU?$char_traits@D@std@@@std@@QAEXXZ 0054bd30 f i MsgProcForServer.obj
 0002:00078da0       ?tie@?$basic_ios@DU?$char_traits@D@std@@@std@@QBEPAV?$basic_ostream@DU?$char_traits@D@std@@@2@XZ 0054bda0 f i MsgProcForServer.obj
 0002:00078de0       ?_Pninc@?$basic_streambuf@DU?$char_traits@D@std@@@std@@IAEPADXZ 0054bde0 f i MsgProcForServer.obj
 0002:00078e60       ??0_Sentry_base@?$basic_ostream@DU?$char_traits@D@std@@@std@@QAE@AAV12@@Z 0054be60 f i MsgProcForServer.obj
 0002:00078f00       ?_Lock@?$basic_streambuf@DU?$char_traits@D@std@@@std@@QAEXXZ 0054bf00 f i MsgProcForServer.obj
 0002:00078f60       ??1_Sentry_base@?$basic_ostream@DU?$char_traits@D@std@@@std@@QAE@XZ 0054bf60 f i MsgProcForServer.obj
 0002:00078ff0       ?_Unlock@?$basic_streambuf@DU?$char_traits@D@std@@@std@@QAEXXZ 0054bff0 f i MsgProcForServer.obj
 0002:00079050       ?ACmdGuildCharacterDelete@@YAXPAUSERVER_DATA@@PADK@Z 0054c050 f   MsgProcForServerFromAgent.obj
 0002:0007ab50       ?ACmdRequestServerAlive@@YAXPAUSERVER_DATA@@PADK@Z 0054db50 f   MsgProcForServerFromAgent.obj
 0002:0007ad60       ?ACmdCMToolNotice@@YAXPAUSERVER_DATA@@PADK@Z 0054dd60 f   MsgProcForServerFromAgent.obj
 0002:0007af80       ?AcmdKickUser@@YAXPAUSERVER_DATA@@PADK@Z 0054df80 f   MsgProcForServerFromAgent.obj
 0002:0007b1b0       ?AcmdAddNewUser@@YAXPAUSERVER_DATA@@PADK@Z 0054e1b0 f   MsgProcForServerFromAgent.obj
 0002:0007b450       ?AcmdBillingSmallTime@@YAXKPADK@Z 0054e450 f   MsgProcForServerFromAgent.obj
 0002:0007b5c0       ?AcmdChangeBillingType@@YAXKPADK@Z 0054e5c0 f   MsgProcForServerFromAgent.obj
 0002:0007b740       ?AcmdServerAttachResult@@YAXKPADK@Z 0054e740 f   MsgProcForServerFromAgent.obj
 0002:0007b850       ?GetPacketSize@ASTWS_REQUEST_SERVER_ALIVE@@QAEKXZ 0054e850 f i MsgProcForServerFromAgent.obj
 0002:0007b890       ?GetPacketSize@ASTWS_CMTOOL_NOTICE@@QAEKXZ 0054e890 f i MsgProcForServerFromAgent.obj
 0002:0007b8e0       ?GetPacketSize@ASTWS_GUILD_CHARACTER_DELETE@@QAEKXZ 0054e8e0 f i MsgProcForServerFromAgent.obj
 0002:0007b920       ?GetPacketSize@ASTWS_BILLING_SMALL_TIME@@QAEKXZ 0054e920 f i MsgProcForServerFromAgent.obj
 0002:0007b960       ?GetPacketSize@ASTWS_CHANGE_BILLING_TYPE@@QAEKXZ 0054e960 f i MsgProcForServerFromAgent.obj
 0002:0007b9a0       ??0WSTAS_USER_ACCEPT_ALLOWED@@QAE@XZ 0054e9a0 f i MsgProcForServerFromAgent.obj
 0002:0007b9f0       ?GetPacketSize@WSTAS_USER_ACCEPT_ALLOWED@@QAEKXZ 0054e9f0 f i MsgProcForServerFromAgent.obj
 0002:0007ba30       ??0WSTAS_USER_ACCEPT_FAILED@@QAE@XZ 0054ea30 f i MsgProcForServerFromAgent.obj
 0002:0007ba80       ?GetPacketSize@WSTAS_USER_ACCEPT_FAILED@@QAEKXZ 0054ea80 f i MsgProcForServerFromAgent.obj
 0002:0007bac0       ?GetPacketSize@ASTWS_KICK_USER@@QAEKXZ 0054eac0 f i MsgProcForServerFromAgent.obj
 0002:0007bb00       ?GetPacketSize@ASTWS_SERVER_ATTACH_RESULT@@QAEKXZ 0054eb00 f i MsgProcForServerFromAgent.obj
 0002:0007bb40       ?GetPacketSize@ASTWS_ADD_NEW_USER@@QAEKXZ 0054eb40 f i MsgProcForServerFromAgent.obj
 0002:0007bb80       ??0WSTDS_REQUEST_DUNGEON_ALIVE@@QAE@XZ 0054eb80 f i MsgProcForServerFromAgent.obj
 0002:0007bbd0       ?GetPacketSize@WSTDS_REQUEST_DUNGEON_ALIVE@@QAEKXZ 0054ebd0 f i MsgProcForServerFromAgent.obj
 0002:0007bc10       ??0WSTC_CHINA_BILL_KICK_CODE@@QAE@XZ 0054ec10 f i MsgProcForServerFromAgent.obj
 0002:0007bc70       ?GetPacketSize@WSTC_CHINA_BILL_KICK_CODE@@QAEKXZ 0054ec70 f i MsgProcForServerFromAgent.obj
 0002:0007bcb0       ?CmdGuildPortalUsed@@YAXPAUSERVER_DATA@@PADK@Z 0054ecb0 f   MsgProcForServerGuild.obj
 0002:0007bea0       ?CmdGuildAllPortal@@YAXPAUSERVER_DATA@@PADK@Z 0054eea0 f   MsgProcForServerGuild.obj
 0002:0007c0c0       ?CmdGuildPotalFail@@YAXPAUSERVER_DATA@@PADK@Z 0054f0c0 f   MsgProcForServerGuild.obj
 0002:0007c230       ?CmdGuildLevel@@YAXPAUSERVER_DATA@@PADK@Z 0054f230 f   MsgProcForServerGuild.obj
 0002:0007c530       ?CmdGuildWarPoint@@YAXPAUSERVER_DATA@@PADK@Z 0054f530 f   MsgProcForServerGuild.obj
 0002:0007d410       ?CmdGuildUserInfoRt@@YAXPAUSERVER_DATA@@PADK@Z 00550410 f   MsgProcForServerGuild.obj
 0002:0007d5c0       ?GetPacketSize@DSTWS_GUILDUSER_INFO@@QAEKXZ 005505c0 f i MsgProcForServerGuild.obj
 0002:0007d600       ?GetPacketSize@WSTDS_GUILD_LEVEL@@QAEKXZ 00550600 f i MsgProcForServerGuild.obj
 0002:0007d640       ?GetPacketSize@WSTDS_GUILD_ALLPORTAL@@QAEKXZ 00550640 f i MsgProcForServerGuild.obj
 0002:0007d680       ?GetPacketSize@WSTDS_GUILD_PORTALUSED@@QAEKXZ 00550680 f i MsgProcForServerGuild.obj
 0002:0007d6c0       ?GetPacketSize@WSTDS_GUILD_PORTALFAIL@@QAEKXZ 005506c0 f i MsgProcForServerGuild.obj
 0002:0007d700       ?GetPacketSize@DSTWS_GUILDWAR_POINT@@QAEKXZ 00550700 f i MsgProcForServerGuild.obj
 0002:0007d740       ??0WSTC_GUILDWAR_MESSAGE@@QAE@XZ 00550740 f i MsgProcForServerGuild.obj
 0002:0007d790       ?GetPacketSize@WSTC_GUILDWAR_MESSAGE@@QAEKXZ 00550790 f i MsgProcForServerGuild.obj
 0002:0007d7d0       ??0WSTC_GUILD_PORTALFAIL@@QAE@XZ 005507d0 f i MsgProcForServerGuild.obj
 0002:0007d820       ?GetPacketSize@WSTC_GUILD_PORTALFAIL@@QAEKXZ 00550820 f i MsgProcForServerGuild.obj
 0002:0007d860       ??0WSTC_GUILD_PORTALUSED@@QAE@XZ 00550860 f i MsgProcForServerGuild.obj
 0002:0007d8b0       ?GetPacketSize@WSTC_GUILD_PORTALUSED@@QAEKXZ 005508b0 f i MsgProcForServerGuild.obj
 0002:0007d8f0       ??0WSTC_GUILD_PORTAL@@QAE@XZ 005508f0 f i MsgProcForServerGuild.obj
 0002:0007d940       ?GetPacketSize@WSTC_GUILD_PORTAL@@QAEKXZ 00550940 f i MsgProcForServerGuild.obj
 0002:0007d980       ??0WSTC_GUILD_LEVEL@@QAE@XZ 00550980 f i MsgProcForServerGuild.obj
 0002:0007d9d0       ?GetPacketSize@WSTC_GUILD_LEVEL@@QAEKXZ 005509d0 f i MsgProcForServerGuild.obj
 0002:0007da10       ?CmdPartyPortal@@YAXPAUSERVER_DATA@@PADK@Z 00550a10 f   MsgProcForServerParty.obj
 0002:0007dc00       ?CmdPartyAllPortal@@YAXPAUSERVER_DATA@@PADK@Z 00550c00 f   MsgProcForServerParty.obj
 0002:0007de70       ?CmdPartyPortalUsed@@YAXPAUSERVER_DATA@@PADK@Z 00550e70 f   MsgProcForServerParty.obj
 0002:0007e060       ?CmdPartyPotalFail@@YAXPAUSERVER_DATA@@PADK@Z 00551060 f   MsgProcForServerParty.obj
 0002:0007e1d0       ?CmdPartyHp@@YAXPAUSERVER_DATA@@PADK@Z 005511d0 f   MsgProcForServerParty.obj
 0002:0007e520       ?CmdPartyLevel@@YAXPAUSERVER_DATA@@PADK@Z 00551520 f   MsgProcForServerParty.obj
 0002:0007eb50       ?CmdDungeonGroupExp@@YAXPAUSERVER_DATA@@PADK@Z 00551b50 f   MsgProcForServerParty.obj
 0002:0007f1a0       ?CmdPartyInfo@@YAXPAUSERVER_DATA@@PADK@Z 005521a0 f   MsgProcForServerParty.obj
 0002:0007f330       ?CmdPartyPortalMove@@YAXPAUSERVER_DATA@@PADK@Z 00552330 f   MsgProcForServerParty.obj
 0002:0007f4b0       ??0WSTAS_REQUEST_CHINA_BILLINGINFO@@QAE@XZ 005524b0 f i MsgProcForServerParty.obj
 0002:0007f500       ?GetPacketSize@WSTAS_REQUEST_CHINA_BILLINGINFO@@QAEKXZ 00552500 f i MsgProcForServerParty.obj
 0002:0007f540       ?GetPacketSize@DSTWS_DUNGEON_GROUPEXP@@QAEKXZ 00552540 f i MsgProcForServerParty.obj
 0002:0007f580       ?GetPacketSize@WSTDS_PARTY_LEVEL@@QAEKXZ 00552580 f i MsgProcForServerParty.obj
 0002:0007f5c0       ?GetPacketSize@DSTWS_PARTY_INFO@@QAEKXZ 005525c0 f i MsgProcForServerParty.obj
 0002:0007f600       ?GetPacketSize@WSTDS_PARTY_HP@@QAEKXZ 00552600 f i MsgProcForServerParty.obj
 0002:0007f640       ?GetPacketSize@WSTDS_PARTY_PORTALUSED@@QAEKXZ 00552640 f i MsgProcForServerParty.obj
 0002:0007f680       ?GetPacketSize@WSTDS_PARTY_PORTALMOVE@@QAEKXZ 00552680 f i MsgProcForServerParty.obj
 0002:0007f6c0       ?GetPacketSize@WSTDS_PARTY_ALLPORTAL@@QAEKXZ 005526c0 f i MsgProcForServerParty.obj
 0002:0007f700       ?GetPacketSize@WSTDS_PARTY_PORTALFAIL@@QAEKXZ 00552700 f i MsgProcForServerParty.obj
 0002:0007f740       ??0WSTC_PARTY_LEVEL@@QAE@XZ 00552740 f i MsgProcForServerParty.obj
 0002:0007f790       ?GetPacketSize@WSTC_PARTY_LEVEL@@QAEKXZ 00552790 f i MsgProcForServerParty.obj
 0002:0007f7d0       ??0WSTC_PARTY_HP@@QAE@XZ   005527d0 f i MsgProcForServerParty.obj
 0002:0007f820       ?GetPacketSize@WSTC_PARTY_HP@@QAEKXZ 00552820 f i MsgProcForServerParty.obj
 0002:0007f860       ??0WSTC_PARTY_PORTAL@@QAE@XZ 00552860 f i MsgProcForServerParty.obj
 0002:0007f8b0       ?GetPacketSize@WSTC_PARTY_PORTAL@@QAEKXZ 005528b0 f i MsgProcForServerParty.obj
 0002:0007f8f0       ??0WSTC_PARTY_PORTALUSED@@QAE@XZ 005528f0 f i MsgProcForServerParty.obj
 0002:0007f940       ?GetPacketSize@WSTC_PARTY_PORTALUSED@@QAEKXZ 00552940 f i MsgProcForServerParty.obj
 0002:0007f980       ??0WSTC_PARTY_PORTALMOVE@@QAE@XZ 00552980 f i MsgProcForServerParty.obj
 0002:0007f9d0       ?GetPacketSize@WSTC_PARTY_PORTALMOVE@@QAEKXZ 005529d0 f i MsgProcForServerParty.obj
 0002:0007fa10       ??0WSTC_PARTY_PORTALFAIL@@QAE@XZ 00552a10 f i MsgProcForServerParty.obj
 0002:0007fa60       ?GetPacketSize@WSTC_PARTY_PORTALFAIL@@QAEKXZ 00552a60 f i MsgProcForServerParty.obj
 0002:0007faa0       ??0WSTC_GUILD_EXP@@QAE@XZ  00552aa0 f i MsgProcForServerParty.obj
 0002:0007faf0       ?GetPacketSize@WSTC_GUILD_EXP@@QAEKXZ 00552af0 f i MsgProcForServerParty.obj
 0002:0007fb30       ??0WSTC_GUILDUSER_LEVEL@@QAE@XZ 00552b30 f i MsgProcForServerParty.obj
 0002:0007fb80       ?GetPacketSize@WSTC_GUILDUSER_LEVEL@@QAEKXZ 00552b80 f i MsgProcForServerParty.obj
 0002:0007fbc0       ?ChkDungeonPortalCondition@@YAHPAVDUNGEON_DATA_EX@@@Z 00552bc0 f   MsgProcForServerPortal.obj
 0002:0007fc70       ?CmdRequestUserAcceptForPortal@@YAXPAUSERVER_DATA@@PADK@Z 00552c70 f   MsgProcForServerPortal.obj
 0002:0007ff50       ?CmdUserAcceptAllowedForPortal@@YAXPAUSERVER_DATA@@PADK@Z 00552f50 f   MsgProcForServerPortal.obj
 0002:00080070       ?CmdUserAcceptFailedForPortal@@YAXPAUSERVER_DATA@@PADK@Z 00553070 f   MsgProcForServerPortal.obj
 0002:00080190       ??0DSWDS_USER_ACCEPT_FAILED_FOR_PORTAL@@QAE@XZ 00553190 f i MsgProcForServerPortal.obj
 0002:000801e0       ?GetPacketSize@DSWDS_USER_ACCEPT_FAILED_FOR_PORTAL@@QAEKXZ 005531e0 f i MsgProcForServerPortal.obj
 0002:00080220       ??0DUNGEON_DATA_EX@@QAE@XZ 00553220 f   DUNGEON_DATA_EX.obj
 0002:00080410       ??_GDUNGEON_DATA_EX@@UAEPAXI@Z 00553410 f i DUNGEON_DATA_EX.obj
 0002:00080410       ??_EDUNGEON_DATA_EX@@UAEPAXI@Z 00553410 f i DUNGEON_DATA_EX.obj
 0002:00080480       ??0CDugneonRefreshUserList@@QAE@XZ 00553480 f i DUNGEON_DATA_EX.obj
 0002:000804e0       ??1DUNGEON_DATA_EX@@UAE@XZ 005534e0 f   DUNGEON_DATA_EX.obj
 0002:000805a0       ??_GCDugneonRefreshUserList@@QAEPAXI@Z 005535a0 f i DUNGEON_DATA_EX.obj
 0002:00080610       ??1CDugneonRefreshUserList@@QAE@XZ 00553610 f i DUNGEON_DATA_EX.obj
 0002:00080660       ?GetDungeonType@DUNGEON_DATA_EX@@QAEHXZ 00553660 f   DUNGEON_DATA_EX.obj
 0002:000806a0       ?SetDungeonType@DUNGEON_DATA_EX@@QAEXG@Z 005536a0 f   DUNGEON_DATA_EX.obj
 0002:00080710       ?GetLevel@DUNGEON_DATA_EX@@QAEGXZ 00553710 f   DUNGEON_DATA_EX.obj
 0002:00080760       ?GetUpgradeTime@DUNGEON_DATA_EX@@QAEGXZ 00553760 f   DUNGEON_DATA_EX.obj
 0002:00080820       ?GetIdleTime@DUNGEON_DATA_EX@@QAEHXZ 00553820 f   DUNGEON_DATA_EX.obj
 0002:000808a0       ?GetEventLastActionTick@DUNGEON_DATA_EX@@QAEKXZ 005538a0 f   DUNGEON_DATA_EX.obj
 0002:000808e0       ?SetSiegeStartDestTime@DUNGEON_DATA_EX@@QAEXK@Z 005538e0 f   DUNGEON_DATA_EX.obj
 0002:00080940       ?SetSiegeEndDestTime@DUNGEON_DATA_EX@@QAEXK@Z 00553940 f   DUNGEON_DATA_EX.obj
 0002:000809a0       ?IsStartWarTime@DUNGEON_DATA_EX@@QAEHXZ 005539a0 f   DUNGEON_DATA_EX.obj
 0002:000809f0       ?IsEndWarTime@DUNGEON_DATA_EX@@QAEHXZ 005539f0 f   DUNGEON_DATA_EX.obj
 0002:00080a40       ?SendToUsers@DUNGEON_DATA_EX@@QAEXPADK@Z 00553a40 f   DUNGEON_DATA_EX.obj
 0002:00080b30       ?SendStartSiege@DUNGEON_DATA_EX@@QAEXXZ 00553b30 f   DUNGEON_DATA_EX.obj
 0002:00080cd0       ?SendEndSiege@DUNGEON_DATA_EX@@QAEXE@Z 00553cd0 f   DUNGEON_DATA_EX.obj
 0002:00080fd0       ?SetDefenseCount@DUNGEON_DATA_EX@@QAEXE@Z 00553fd0 f   DUNGEON_DATA_EX.obj
 0002:000810a0       ?StartSiegeWarTime@DUNGEON_DATA_EX@@QAEHXZ 005540a0 f   DUNGEON_DATA_EX.obj
 0002:00081150       ?IsLevelUpgradeTime@DUNGEON_DATA_EX@@QAEHXZ 00554150 f   DUNGEON_DATA_EX.obj
 0002:000811a0       ?StopOperationTime@DUNGEON_DATA_EX@@QAEXXZ 005541a0 f   DUNGEON_DATA_EX.obj
 0002:00081210       ?ResumeOperationTime@DUNGEON_DATA_EX@@QAEXXZ 00554210 f   DUNGEON_DATA_EX.obj
 0002:00081290       ?SendRefreshLevelUp@DUNGEON_DATA_EX@@QAEXXZ 00554290 f   DUNGEON_DATA_EX.obj
 0002:00081360       ?SendRefreshOwner@DUNGEON_DATA_EX@@QAEXXZ 00554360 f   DUNGEON_DATA_EX.obj
 0002:000815a0       ?SendRefreshOwnerGuild@DUNGEON_DATA_EX@@QAEXXZ 005545a0 f   DUNGEON_DATA_EX.obj
 0002:00081730       ?LevelUpgrade@DUNGEON_DATA_EX@@QAEHXZ 00554730 f   DUNGEON_DATA_EX.obj
 0002:000818c0       ?SendRefreshProductionInfo@DUNGEON_DATA_EX@@QAEXGE@Z 005548c0 f   DUNGEON_DATA_EX.obj
 0002:000819a0       ?GetLevelUpTickCount@DUNGEON_DATA_EX@@QAEKXZ 005549a0 f   DUNGEON_DATA_EX.obj
 0002:00081a10       ?GetEntrancePay@DUNGEON_DATA_EX@@QAEKXZ 00554a10 f   DUNGEON_DATA_EX.obj
 0002:00081a50       ?SendRefreshEntrance@DUNGEON_DATA_EX@@QAEXXZ 00554a50 f   DUNGEON_DATA_EX.obj
 0002:00081b10       ?SetEntrance@DUNGEON_DATA_EX@@QAEXK@Z 00554b10 f   DUNGEON_DATA_EX.obj
 0002:00081b70       ?SetAccEntrance@DUNGEON_DATA_EX@@QAEXHH@Z 00554b70 f   DUNGEON_DATA_EX.obj
 0002:00081cd0       ?SetOwner@DUNGEON_DATA_EX@@QAEXKKPAD0@Z 00554cd0 f   DUNGEON_DATA_EX.obj
 0002:00081e10       ?IsConquer@DUNGEON_DATA_EX@@QAEHXZ 00554e10 f   DUNGEON_DATA_EX.obj
 0002:00081e90       ?SetOperationMode@DUNGEON_DATA_EX@@QAEXE@Z 00554e90 f   DUNGEON_DATA_EX.obj
 0002:00081f60       ?SetAccExp@DUNGEON_DATA_EX@@QAEXK@Z 00554f60 f   DUNGEON_DATA_EX.obj
 0002:00081fc0       ?SendRefreshAccExp@DUNGEON_DATA_EX@@QAEXXZ 00554fc0 f   DUNGEON_DATA_EX.obj
 0002:00082080       ?EventChangeState@DUNGEON_DATA_EX@@QAEHEK@Z 00555080 f   DUNGEON_DATA_EX.obj
 0002:00082110       ?DoNotExistEventDungeonEntered@DUNGEON_DATA_EX@@QAEHKPAUEVENT_DUNGEON_PROPERTY@@@Z 00555110 f   DUNGEON_DATA_EX.obj
 0002:00082200       ?SendEventInfo@DUNGEON_DATA_EX@@QAEHK@Z 00555200 f   DUNGEON_DATA_EX.obj
 0002:00082520       ?ResetEventInfo@DUNGEON_DATA_EX@@QAEXH@Z 00555520 f   DUNGEON_DATA_EX.obj
 0002:00082640       ?SendEventInfoFirstClose@DUNGEON_DATA_EX@@QAEXXZ 00555640 f   DUNGEON_DATA_EX.obj
 0002:00082780       ?SendEventInfoClose@DUNGEON_DATA_EX@@QAEXXZ 00555780 f   DUNGEON_DATA_EX.obj
 0002:00082880       ??0WSTS_START_SIEGE@@QAE@XZ 00555880 f i DUNGEON_DATA_EX.obj
 0002:000828d0       ?GetPacketSize@WSTS_START_SIEGE@@QAEKXZ 005558d0 f i DUNGEON_DATA_EX.obj
 0002:00082910       ??0WSTS_END_SIEGE@@QAE@XZ  00555910 f i DUNGEON_DATA_EX.obj
 0002:00082960       ?GetPacketSize@WSTS_END_SIEGE@@QAEKXZ 00555960 f i DUNGEON_DATA_EX.obj
 0002:000829a0       ??0WSTS_DUNGEON_LEVELUP@@QAE@XZ 005559a0 f i DUNGEON_DATA_EX.obj
 0002:000829f0       ?GetPacketSize@WSTS_DUNGEON_LEVELUP@@QAEKXZ 005559f0 f i DUNGEON_DATA_EX.obj
 0002:00082a30       ??0WSTDS_REFRESH_DUNGEON_OWNER_GUILD@@QAE@XZ 00555a30 f i DUNGEON_DATA_EX.obj
 0002:00082a80       ?GetPacketSize@WSTDS_REFRESH_DUNGEON_OWNER_GUILD@@QAEKXZ 00555a80 f i DUNGEON_DATA_EX.obj
 0002:00082ac0       ??0WSTDS_EVENT_DUNGEON_INIT@@QAE@XZ 00555ac0 f i DUNGEON_DATA_EX.obj
 0002:00082b10       ?GetPacketSize@WSTDS_EVENT_DUNGEON_INIT@@QAEKXZ 00555b10 f i DUNGEON_DATA_EX.obj
 0002:00082b50       ??0WSTDS_DUNGEON_MESSAGE@@QAE@XZ 00555b50 f i DUNGEON_DATA_EX.obj
 0002:00082ba0       ?GetPacketSize@WSTDS_DUNGEON_MESSAGE@@QAEKXZ 00555ba0 f i DUNGEON_DATA_EX.obj
 0002:00082bf0       ??0WSTDS_EVENT_DUNGEON_OPEN_INFO@@QAE@XZ 00555bf0 f i DUNGEON_DATA_EX.obj
 0002:00082c40       ?GetPacketSize@WSTDS_EVENT_DUNGEON_OPEN_INFO@@QAEKXZ 00555c40 f i DUNGEON_DATA_EX.obj
 0002:00082c80       ??0WSTDS_EVENT_DUNGEON_FIRST_TIMEOUT@@QAE@XZ 00555c80 f i DUNGEON_DATA_EX.obj
 0002:00082cd0       ?GetPacketSize@WSTDS_EVENT_DUNGEON_FIRST_TIMEOUT@@QAEKXZ 00555cd0 f i DUNGEON_DATA_EX.obj
 0002:00082d10       ??0WSTDS_EVENT_DUNGEON_CLOSE@@QAE@XZ 00555d10 f i DUNGEON_DATA_EX.obj
 0002:00082d60       ?GetPacketSize@WSTDS_EVENT_DUNGEON_CLOSE@@QAEKXZ 00555d60 f i DUNGEON_DATA_EX.obj
 0002:00082da0       ??0WSTDS_EVENT_DUNGEON_CLOSE_INFO@@QAE@XZ 00555da0 f i DUNGEON_DATA_EX.obj
 0002:00082df0       ?GetPacketSize@WSTDS_EVENT_DUNGEON_CLOSE_INFO@@QAEKXZ 00555df0 f i DUNGEON_DATA_EX.obj
 0002:00082e30       ??0WSTC_REFRESHEVENT_DUNGEON_STARTSIEGE@@QAE@XZ 00555e30 f i DUNGEON_DATA_EX.obj
 0002:00082e80       ?GetPacketSize@WSTC_REFRESHEVENT_DUNGEON_STARTSIEGE@@QAEKXZ 00555e80 f i DUNGEON_DATA_EX.obj
 0002:00082ec0       ??0WSTC_REFRESHEVENT_DUNGEON_LEVELUP@@QAE@XZ 00555ec0 f i DUNGEON_DATA_EX.obj
 0002:00082f10       ?GetPacketSize@WSTC_REFRESHEVENT_DUNGEON_LEVELUP@@QAEKXZ 00555f10 f i DUNGEON_DATA_EX.obj
 0002:00082f50       ??0WSTC_REFRESHEVENT_DUNGEON_CREATEPRODUCTION@@QAE@XZ 00555f50 f i DUNGEON_DATA_EX.obj
 0002:00082fa0       ?GetPacketSize@WSTC_REFRESHEVENT_DUNGEON_CREATEPRODUCTION@@QAEKXZ 00555fa0 f i DUNGEON_DATA_EX.obj
 0002:00082fe0       ??0WSTC_REFRESHEVENT_DUNGEON_ENDSIEGE@@QAE@XZ 00555fe0 f i DUNGEON_DATA_EX.obj
 0002:00083030       ?GetPacketSize@WSTC_REFRESHEVENT_DUNGEON_ENDSIEGE@@QAEKXZ 00556030 f i DUNGEON_DATA_EX.obj
 0002:00083070       ??0WSTC_REFRESHEVENT_DUNGEON_CHANGE_OWNER@@QAE@XZ 00556070 f i DUNGEON_DATA_EX.obj
 0002:00083100       ?GetPacketSize@WSTC_REFRESHEVENT_DUNGEON_CHANGE_OWNER@@QAEKXZ 00556100 f i DUNGEON_DATA_EX.obj
 0002:00083140       ??0WSTC_REFRESHEVENT_DUNGEON_CHANGE_OWNER_GUILD@@QAE@XZ 00556140 f i DUNGEON_DATA_EX.obj
 0002:000831b0       ?GetPacketSize@WSTC_REFRESHEVENT_DUNGEON_CHANGE_OWNER_GUILD@@QAEKXZ 005561b0 f i DUNGEON_DATA_EX.obj
 0002:000831f0       ??0WSTC_REFRESHEVENT_DUNGEON_ACCENTRANCE_ACQUISITION@@QAE@XZ 005561f0 f i DUNGEON_DATA_EX.obj
 0002:00083240       ?GetPacketSize@WSTC_REFRESHEVENT_DUNGEON_ACCENTRANCE_ACQUISITION@@QAEKXZ 00556240 f i DUNGEON_DATA_EX.obj
 0002:00083280       ??0WSTC_REFRESHEVENT_DUNGEON_ACCEXP_ACQUISITION@@QAE@XZ 00556280 f i DUNGEON_DATA_EX.obj
 0002:000832d0       ?GetPacketSize@WSTC_REFRESHEVENT_DUNGEON_ACCEXP_ACQUISITION@@QAEKXZ 005562d0 f i DUNGEON_DATA_EX.obj
 0002:00083310       ??0WSTC_REFRESHEVENT_DUNGEON_ENTRANCE_EDIT@@QAE@XZ 00556310 f i DUNGEON_DATA_EX.obj
 0002:00083360       ?GetPacketSize@WSTC_REFRESHEVENT_DUNGEON_ENTRANCE_EDIT@@QAEKXZ 00556360 f i DUNGEON_DATA_EX.obj
 0002:000833a0       ??0WSTC_REFRESHEVENT_DEFENSECOUNT@@QAE@XZ 005563a0 f i DUNGEON_DATA_EX.obj
 0002:000833f0       ?GetPacketSize@WSTC_REFRESHEVENT_DEFENSECOUNT@@QAEKXZ 005563f0 f i DUNGEON_DATA_EX.obj
 0002:00083430       ??0WSTC_REFRESHEVENT_DUNGEON_OPERATIONMODE@@QAE@XZ 00556430 f i DUNGEON_DATA_EX.obj
 0002:00083480       ?GetPacketSize@WSTC_REFRESHEVENT_DUNGEON_OPERATIONMODE@@QAEKXZ 00556480 f i DUNGEON_DATA_EX.obj
 0002:000834c0       ??0CDungeonTable@@QAE@K@Z  005564c0 f   DungeonTable.obj
 0002:00083690       ??1CDungeonTable@@QAE@XZ   00556690 f   DungeonTable.obj
 0002:000837f0       ?AllocNewDungeon@CDungeonTable@@QAEPAVDUNGEON_DATA_EX@@G@Z 005567f0 f   DungeonTable.obj
 0002:00083910       ?Add@CDungeonTable@@QAEHPAVDUNGEON_DATA_EX@@@Z 00556910 f   DungeonTable.obj
 0002:00083ab0       ?GetDungeonInfo@CDungeonTable@@QAEPAVDUNGEON_DATA_EX@@K@Z 00556ab0 f   DungeonTable.obj
 0002:00083b40       ?Remove@CDungeonTable@@QAEXPAVDUNGEON_DATA_EX@@@Z 00556b40 f   DungeonTable.obj
 0002:00083d20       ?RemoveDungeonTable@CDungeonTable@@AAEXXZ 00556d20 f   DungeonTable.obj
 0002:00083e70       ??0CEventDungeonManager@@QAE@XZ 00556e70 f   EventDungeonManager.obj
 0002:00083fd0       ??0CVoidDontDeleteList@@QAE@XZ 00556fd0 f i EventDungeonManager.obj
 0002:00084030       ??1CEventDungeonManager@@QAE@XZ 00557030 f   EventDungeonManager.obj
 0002:00084080       ?QueryEventDungeonProperties@CEventDungeonManager@@QAEHXZ 00557080 f   EventDungeonManager.obj
 0002:00084270       ?AddEventDungeon@CEventDungeonManager@@QAEHPAVDUNGEON_DATA_EX@@@Z 00557270 f   EventDungeonManager.obj
 0002:00084310       ?Clear@CEventDungeonManager@@AAEXXZ 00557310 f   EventDungeonManager.obj
 0002:00084430       ??_GCVoidDontDeleteList@@QAEPAXI@Z 00557430 f i EventDungeonManager.obj
 0002:000844a0       ??1CVoidDontDeleteList@@QAE@XZ 005574a0 f i EventDungeonManager.obj
 0002:000844f0       ?ClearPropertyInfo@CEventDungeonManager@@AAEHXZ 005574f0 f   EventDungeonManager.obj
 0002:000845f0       ?GetEventProperty@CEventDungeonManager@@QBEPAUEVENT_DUNGEON_PROPERTY@@K@Z 005575f0 f   EventDungeonManager.obj
 0002:000846d0       ?ProcessRelationWithCreate@CEventDungeonManager@@QAEXXZ 005576d0 f   EventDungeonManager.obj
 0002:00084850       ?Process@CEventDungeonManager@@QAEXXZ 00557850 f   EventDungeonManager.obj
 0002:00084b90       ??0CMap@@QAE@XZ            00557b90 f   Map.obj
 0002:00084bf0       ??1CMap@@QAE@XZ            00557bf0 f   Map.obj
 0002:00084c40       ?Create@CMap@@QAEXK@Z      00557c40 f   Map.obj
 0002:00084cf0       ?Destroy@CMap@@QAEXXZ      00557cf0 f   Map.obj
 0002:00084d70       ?ReadMap@CMap@@QAEHK@Z     00557d70 f   Map.obj
 0002:00085290       ?GetServerDataPath@COwnServer@@QAEPADXZ 00558290 f i Map.obj
 0002:000852d0       ?SetMap@CMap@@QAEHKKPAUMAP_TILE@@@Z 005582d0 f   Map.obj
 0002:00085370       ?SetTileOccupied@CMap@@QAEHKKEPAX@Z 00558370 f   Map.obj
 0002:00085520       ?GetMap@CMap@@QAEPAUMAP_TILE@@KK@Z 00558520 f   Map.obj
 0002:00085590       ?GetTile@CMap@@QAEPAUMAP_TILE@@MM@Z 00558590 f   Map.obj
 0002:00085650       ?InitSchoolGuildDungeon@@YAXXZ 00558650 f   SchoolGuildDungeon.obj
 0002:00085810       ??0CSchoolGuildDungeonHash@@QAE@XZ 00558810 f i SchoolGuildDungeon.obj
 0002:00085870       ??_GCSchoolGuildDungeonHash@@UAEPAXI@Z 00558870 f i SchoolGuildDungeon.obj
 0002:00085870       ??_ECSchoolGuildDungeonHash@@UAEPAXI@Z 00558870 f i SchoolGuildDungeon.obj
 0002:000858e0       ??1CSchoolGuildDungeonHash@@UAE@XZ 005588e0 f i SchoolGuildDungeon.obj
 0002:00085930       ??0?$CAbyssHash@U__SchoolGuildDungeon@@@@QAE@XZ 00558930 f i SchoolGuildDungeon.obj
 0002:000859d0       ??1?$CAbyssHash@U__SchoolGuildDungeon@@@@UAE@XZ 005589d0 f i SchoolGuildDungeon.obj
 0002:00085ac0       ?InitializeHashTable@?$CAbyssHash@U__SchoolGuildDungeon@@@@QAEXKKH@Z 00558ac0 f i SchoolGuildDungeon.obj
 0002:00085c00       ?GetData@?$CAbyssHash@U__SchoolGuildDungeon@@@@UAEPAU__SchoolGuildDungeon@@K@Z 00558c00 f i SchoolGuildDungeon.obj
 0002:00085c90       ?Insert@?$CAbyssHash@U__SchoolGuildDungeon@@@@QAEKPAU__SchoolGuildDungeon@@K@Z 00558c90 f i SchoolGuildDungeon.obj
 0002:00085e50       ?DeleteData@?$CAbyssHash@U__SchoolGuildDungeon@@@@UAEXPAX@Z 00558e50 f i SchoolGuildDungeon.obj
 0002:00085ec0       ??_G?$CAbyssHash@U__SchoolGuildDungeon@@@@UAEPAXI@Z 00558ec0 f i SchoolGuildDungeon.obj
 0002:00085ec0       ??_E?$CAbyssHash@U__SchoolGuildDungeon@@@@UAEPAXI@Z 00558ec0 f i SchoolGuildDungeon.obj
 0002:00085f30       ?AddList@?$CAbyssHash@U__SchoolGuildDungeon@@@@QAEPAU?$ListNode@U__SchoolGuildDungeon@@@@PAU__SchoolGuildDungeon@@@Z 00558f30 f i SchoolGuildDungeon.obj
 0002:00086030       ??0CLocal@LOCAL_MGR@@QAE@XZ 00559030 f   LocaMgr.obj
 0002:000860e0       ??_ECLocal@LOCAL_MGR@@UAEPAXI@Z 005590e0 f i LocaMgr.obj
 0002:000860e0       ??_GCLocal@LOCAL_MGR@@UAEPAXI@Z 005590e0 f i LocaMgr.obj
 0002:00086150       ??1CLocal@LOCAL_MGR@@UAE@XZ 00559150 f   LocaMgr.obj
 0002:000861f0       ?Clear@CLocal@LOCAL_MGR@@QAEXXZ 005591f0 f   LocaMgr.obj
 0002:000862d0       ?LoadFromINI@CLocal@LOCAL_MGR@@QAE_NPBD@Z 005592d0 f   LocaMgr.obj
 0002:00086460       ?Init@CLocal@LOCAL_MGR@@QAE_NABV?$basic_string@DU?$char_traits@D@std@@V?$allocator@D@2@@std@@K@Z 00559460 f   LocaMgr.obj
 0002:000864d0       ?Init@CLocal@LOCAL_MGR@@QAE_NW4eNationCode@2@K@Z 005594d0 f   LocaMgr.obj
 0002:000868b0       ?ConvertNameToCode@CLocal@LOCAL_MGR@@AAE?AW4eNationCode@2@ABV?$basic_string@DU?$char_traits@D@std@@V?$allocator@D@2@@std@@@Z 005598b0 f   LocaMgr.obj
 0002:00086a30       ?IsAbleNation@CLocal@LOCAL_MGR@@QBE_NK@Z 00559a30 f   LocaMgr.obj
 0002:00086a90       ?IsAbleVersion@CLocal@LOCAL_MGR@@QBE_NW4eVersionCode@2@@Z 00559a90 f   LocaMgr.obj
 0002:00086af0       ?IsAbleServiceType@CLocal@LOCAL_MGR@@QBE_NK@Z 00559af0 f   LocaMgr.obj
 0002:00086b50       ??0CDBInfoMgr@DBINFO_MGR@@QAE@XZ 00559b50 f   LocaMgr.obj
 0002:00086c00       ??_ECDBInfoMgr@DBINFO_MGR@@UAEPAXI@Z 00559c00 f i LocaMgr.obj
 0002:00086c00       ??_GCDBInfoMgr@DBINFO_MGR@@UAEPAXI@Z 00559c00 f i LocaMgr.obj
 0002:00086c70       ??1?$map@W4eDatabaseType@DBINFO_MGR@@PAV?$map@W4eInfoType@DBINFO_MGR@@V?$basic_string@DU?$char_traits@D@std@@V?$allocator@D@2@@std@@U?$less@W4eInfoType@DBINFO_MGR@@@4@V?$allocator@U?$pair@$$CBW4eInfoType@DBINFO_MGR@@V?$basic_string@DU?$char_traits@D@std@@V?$allocator@D@2@@std@@@std@@@4@@std@@U?$less@W4eDatabaseType@DBINFO_MGR@@@4@V?$allocator@U?$pair@$$CBW4eDatabaseType@DBINFO_MGR@@PAV?$map@W4eInfoType@DBINFO_MGR@@V?$basic_string@DU?$char_traits@D@std@@V?$allocator@D@2@@std@@U?$less@W4eInfoType@DBINFO_MGR@@@4@V?$allocator@U?$pair@$$CBW4eInfoType@DBINFO_MGR@@V?$basic_string@DU?$char_traits@D@std@@V?$allocator@D@2@@std@@@std@@@4@@std@@@std@@@4@@std@@QAE@XZ 00559c70 f i LocaMgr.obj
 0002:00086cc0       ??1CDBInfoMgr@DBINFO_MGR@@UAE@XZ 00559cc0 f   LocaMgr.obj
 0002:00086d60       ?Get@CDBInfoMgr@DBINFO_MGR@@QAEPBDW4eDatabaseType@2@W4eInfoType@2@@Z 00559d60 f   LocaMgr.obj
 0002:00086eb0       ?Set@CDBInfoMgr@DBINFO_MGR@@QAEXW4eDatabaseType@2@W4eInfoType@2@ABV?$basic_string@DU?$char_traits@D@std@@V?$allocator@D@2@@std@@@Z 00559eb0 f   LocaMgr.obj
 0002:000871b0       ??1?$pair@W4eInfoType@DBINFO_MGR@@V?$basic_string@DU?$char_traits@D@std@@V?$allocator@D@2@@std@@@std@@QAE@XZ 0055a1b0 f i LocaMgr.obj
 0002:00087210       ??1?$pair@$$CBW4eInfoType@DBINFO_MGR@@V?$basic_string@DU?$char_traits@D@std@@V?$allocator@D@2@@std@@@std@@QAE@XZ 0055a210 f i LocaMgr.obj
 0002:00087270       ?Clear@CDBInfoMgr@DBINFO_MGR@@QAEXXZ 0055a270 f   LocaMgr.obj
 0002:000873b0       ??_G?$map@W4eInfoType@DBINFO_MGR@@V?$basic_string@DU?$char_traits@D@std@@V?$allocator@D@2@@std@@U?$less@W4eInfoType@DBINFO_MGR@@@4@V?$allocator@U?$pair@$$CBW4eInfoType@DBINFO_MGR@@V?$basic_string@DU?$char_traits@D@std@@V?$allocator@D@2@@std@@@std@@@4@@std@@QAEPAXI@Z 0055a3b0 f i LocaMgr.obj
 0002:00087420       ??1?$map@W4eInfoType@DBINFO_MGR@@V?$basic_string@DU?$char_traits@D@std@@V?$allocator@D@2@@std@@U?$less@W4eInfoType@DBINFO_MGR@@@4@V?$allocator@U?$pair@$$CBW4eInfoType@DBINFO_MGR@@V?$basic_string@DU?$char_traits@D@std@@V?$allocator@D@2@@std@@@std@@@4@@std@@QAE@XZ 0055a420 f i LocaMgr.obj
 0002:00087470       ??0?$map@W4eInfoType@DBINFO_MGR@@V?$basic_string@DU?$char_traits@D@std@@V?$allocator@D@2@@std@@U?$less@W4eInfoType@DBINFO_MGR@@@4@V?$allocator@U?$pair@$$CBW4eInfoType@DBINFO_MGR@@V?$basic_string@DU?$char_traits@D@std@@V?$allocator@D@2@@std@@@std@@@4@@std@@QAE@XZ 0055a470 f i LocaMgr.obj
 0002:000874e0       ??1?$_Tree@V?$_Tmap_traits@W4eInfoType@DBINFO_MGR@@V?$basic_string@DU?$char_traits@D@std@@V?$allocator@D@2@@std@@U?$less@W4eInfoType@DBINFO_MGR@@@4@V?$allocator@U?$pair@$$CBW4eInfoType@DBINFO_MGR@@V?$basic_string@DU?$char_traits@D@std@@V?$allocator@D@2@@std@@@std@@@4@$0A@@std@@@std@@QAE@XZ 0055a4e0 f i LocaMgr.obj
 0002:00087530       ?end@?$_Tree@V?$_Tmap_traits@W4eInfoType@DBINFO_MGR@@V?$basic_string@DU?$char_traits@D@std@@V?$allocator@D@2@@std@@U?$less@W4eInfoType@DBINFO_MGR@@@4@V?$allocator@U?$pair@$$CBW4eInfoType@DBINFO_MGR@@V?$basic_string@DU?$char_traits@D@std@@V?$allocator@D@2@@std@@@std@@@4@$0A@@std@@@std@@QAE?AViterator@12@XZ 0055a530 f i LocaMgr.obj
 0002:00087590       ?insert@?$_Tree@V?$_Tmap_traits@W4eInfoType@DBINFO_MGR@@V?$basic_string@DU?$char_traits@D@std@@V?$allocator@D@2@@std@@U?$less@W4eInfoType@DBINFO_MGR@@@4@V?$allocator@U?$pair@$$CBW4eInfoType@DBINFO_MGR@@V?$basic_string@DU?$char_traits@D@std@@V?$allocator@D@2@@std@@@std@@@4@$0A@@std@@@std@@QAE?AU?$pair@Viterator@?$_Tree@V?$_Tmap_traits@W4eInfoType@DBINFO_MGR@@V?$basic_string@DU?$char_traits@D@std@@V?$allocator@D@2@@std@@U?$less@W4eInfoType@DBINFO_MGR@@@4@V?$allocator@U?$pair@$$CBW4eInfoType@DBINFO_MGR@@V?$basic_string@DU?$char_traits@D@std@@V?$allocator@D@2@@std@@@std@@@4@$0A@@std@@@std@@_N@2@ABU?$pair@$$CBW4eInfoType@DBINFO_MGR@@V?$basic_string@DU?$char_traits@D@std@@V?$allocator@D@2@@std@@@2@@Z 0055a590 f i LocaMgr.obj
 0002:00087850       ?find@?$_Tree@V?$_Tmap_traits@W4eInfoType@DBINFO_MGR@@V?$basic_string@DU?$char_traits@D@std@@V?$allocator@D@2@@std@@U?$less@W4eInfoType@DBINFO_MGR@@@4@V?$allocator@U?$pair@$$CBW4eInfoType@DBINFO_MGR@@V?$basic_string@DU?$char_traits@D@std@@V?$allocator@D@2@@std@@@std@@@4@$0A@@std@@@std@@QAE?AViterator@12@ABW4eInfoType@DBINFO_MGR@@@Z 0055a850 f i LocaMgr.obj
 0002:00087990       ??0?$map@W4eDatabaseType@DBINFO_MGR@@PAV?$map@W4eInfoType@DBINFO_MGR@@V?$basic_string@DU?$char_traits@D@std@@V?$allocator@D@2@@std@@U?$less@W4eInfoType@DBINFO_MGR@@@4@V?$allocator@U?$pair@$$CBW4eInfoType@DBINFO_MGR@@V?$basic_string@DU?$char_traits@D@std@@V?$allocator@D@2@@std@@@std@@@4@@std@@U?$less@W4eDatabaseType@DBINFO_MGR@@@4@V?$allocator@U?$pair@$$CBW4eDatabaseType@DBINFO_MGR@@PAV?$map@W4eInfoType@DBINFO_MGR@@V?$basic_string@DU?$char_traits@D@std@@V?$allocator@D@2@@std@@U?$less@W4eInfoType@DBINFO_MGR@@@4@V?$allocator@U?$pair@$$CBW4eInfoType@DBINFO_MGR@@V?$basic_string@DU?$char_traits@D@std@@V?$allocator@D@2@@std@@@std@@@4@@std@@@std@@@4@@std@@QAE@XZ 0055a990 f i LocaMgr.obj
 0002:00087a00       ??1?$_Tree@V?$_Tmap_traits@W4eDatabaseType@DBINFO_MGR@@PAV?$map@W4eInfoType@DBINFO_MGR@@V?$basic_string@DU?$char_traits@D@std@@V?$allocator@D@2@@std@@U?$less@W4eInfoType@DBINFO_MGR@@@4@V?$allocator@U?$pair@$$CBW4eInfoType@DBINFO_MGR@@V?$basic_string@DU?$char_traits@D@std@@V?$allocator@D@2@@std@@@std@@@4@@std@@U?$less@W4eDatabaseType@DBINFO_MGR@@@4@V?$allocator@U?$pair@$$CBW4eDatabaseType@DBINFO_MGR@@PAV?$map@W4eInfoType@DBINFO_MGR@@V?$basic_string@DU?$char_traits@D@std@@V?$allocator@D@2@@std@@U?$less@W4eInfoType@DBINFO_MGR@@@4@V?$allocator@U?$pair@$$CBW4eInfoType@DBINFO_MGR@@V?$basic_string@DU?$char_traits@D@std@@V?$allocator@D@2@@std@@@std@@@4@@std@@@std@@@4@$0A@@std@@@std@@QAE@XZ 0055aa00 f i LocaMgr.obj
 0002:00087a50       ?begin@?$_Tree@V?$_Tmap_traits@W4eDatabaseType@DBINFO_MGR@@PAV?$map@W4eInfoType@DBINFO_MGR@@V?$basic_string@DU?$char_traits@D@std@@V?$allocator@D@2@@std@@U?$less@W4eInfoType@DBINFO_MGR@@@4@V?$allocator@U?$pair@$$CBW4eInfoType@DBINFO_MGR@@V?$basic_string@DU?$char_traits@D@std@@V?$allocator@D@2@@std@@@std@@@4@@std@@U?$less@W4eDatabaseType@DBINFO_MGR@@@4@V?$allocator@U?$pair@$$CBW4eDatabaseType@DBINFO_MGR@@PAV?$map@W4eInfoType@DBINFO_MGR@@V?$basic_string@DU?$char_traits@D@std@@V?$allocator@D@2@@std@@U?$less@W4eInfoType@DBINFO_MGR@@@4@V?$allocator@U?$pair@$$CBW4eInfoType@DBINFO_MGR@@V?$basic_string@DU?$char_traits@D@std@@V?$allocator@D@2@@std@@@std@@@4@@std@@@std@@@4@$0A@@std@@@std@@QAE?AViterator@12@XZ 0055aa50 f i LocaMgr.obj
 0002:00087ac0       ?end@?$_Tree@V?$_Tmap_traits@W4eDatabaseType@DBINFO_MGR@@PAV?$map@W4eInfoType@DBINFO_MGR@@V?$basic_string@DU?$char_traits@D@std@@V?$allocator@D@2@@std@@U?$less@W4eInfoType@DBINFO_MGR@@@4@V?$allocator@U?$pair@$$CBW4eInfoType@DBINFO_MGR@@V?$basic_string@DU?$char_traits@D@std@@V?$allocator@D@2@@std@@@std@@@4@@std@@U?$less@W4eDatabaseType@DBINFO_MGR@@@4@V?$allocator@U?$pair@$$CBW4eDatabaseType@DBINFO_MGR@@PAV?$map@W4eInfoType@DBINFO_MGR@@V?$basic_string@DU?$char_traits@D@std@@V?$allocator@D@2@@std@@U?$less@W4eInfoType@DBINFO_MGR@@@4@V?$allocator@U?$pair@$$CBW4eInfoType@DBINFO_MGR@@V?$basic_string@DU?$char_traits@D@std@@V?$allocator@D@2@@std@@@std@@@4@@std@@@std@@@4@$0A@@std@@@std@@QAE?AViterator@12@XZ 0055aac0 f i LocaMgr.obj
 0002:00087b20       ?insert@?$_Tree@V?$_Tmap_traits@W4eDatabaseType@DBINFO_MGR@@PAV?$map@W4eInfoType@DBINFO_MGR@@V?$basic_string@DU?$char_traits@D@std@@V?$allocator@D@2@@std@@U?$less@W4eInfoType@DBINFO_MGR@@@4@V?$allocator@U?$pair@$$CBW4eInfoType@DBINFO_MGR@@V?$basic_string@DU?$char_traits@D@std@@V?$allocator@D@2@@std@@@std@@@4@@std@@U?$less@W4eDatabaseType@DBINFO_MGR@@@4@V?$allocator@U?$pair@$$CBW4eDatabaseType@DBINFO_MGR@@PAV?$map@W4eInfoType@DBINFO_MGR@@V?$basic_string@DU?$char_traits@D@std@@V?$allocator@D@2@@std@@U?$less@W4eInfoType@DBINFO_MGR@@@4@V?$allocator@U?$pair@$$CBW4eInfoType@DBINFO_MGR@@V?$basic_string@DU?$char_traits@D@std@@V?$allocator@D@2@@std@@@std@@@4@@std@@@std@@@4@$0A@@std@@@std@@QAE?AU?$pair@Viterator@?$_Tree@V?$_Tmap_traits@W4eDatabaseType@DBINFO_MGR@@PAV?$map@W4eInfoType@DBINFO_MGR@@V?$basic_string@DU?$char_traits@D@std@@V?$allocator@D@2@@std@@U?$less@W4eInfoType@DBINFO_MGR@@@4@V?$allocator@U?$pair@$$CBW4eInfoType@DBINFO_MGR@@V?$basic_string@DU?$char_traits@D@std@@V?$allocator@D@2@@std@@@std@@@4@@std@@U?$less@W4eDatabaseType@DBINFO_MGR@@@4@V?$allocator@U?$pair@$$CBW4eDatabaseType@DBINFO_MGR@@PAV?$map@W4eInfoType@DBINFO_MGR@@V?$basic_string@DU?$char_traits@D@std@@V?$allocator@D@2@@std@@U?$less@W4eInfoType@DBINFO_MGR@@@4@V?$allocator@U?$pair@$$CBW4eInfoType@DBINFO_MGR@@V?$basic_string@DU?$char_traits@D@std@@V?$allocator@D@2@@std@@@std@@@4@@std@@@std@@@4@$0A@@std@@@std@@_N@2@ABU?$pair@$$CBW4eDatabaseType@DBINFO_MGR@@PAV?$map@W4eInfoType@DBINFO_MGR@@V?$basic_string@DU?$char_traits@D@std@@V?$allocator@D@2@@std@@U?$less@W4eInfoType@DBINFO_MGR@@@4@V?$allocator@U?$pair@$$CBW4eInfoType@DBINFO_MGR@@V?$basic_string@DU?$char_traits@D@std@@V?$allocator@D@2@@std@@@std@@@4@@std@@@2@@Z 0055ab20 f i LocaMgr.obj
 0002:00087de0       ?find@?$_Tree@V?$_Tmap_traits@W4eDatabaseType@DBINFO_MGR@@PAV?$map@W4eInfoType@DBINFO_MGR@@V?$basic_string@DU?$char_traits@D@std@@V?$allocator@D@2@@std@@U?$less@W4eInfoType@DBINFO_MGR@@@4@V?$allocator@U?$pair@$$CBW4eInfoType@DBINFO_MGR@@V?$basic_string@DU?$char_traits@D@std@@V?$allocator@D@2@@std@@@std@@@4@@std@@U?$less@W4eDatabaseType@DBINFO_MGR@@@4@V?$allocator@U?$pair@$$CBW4eDatabaseType@DBINFO_MGR@@PAV?$map@W4eInfoType@DBINFO_MGR@@V?$basic_string@DU?$char_traits@D@std@@V?$allocator@D@2@@std@@U?$less@W4eInfoType@DBINFO_MGR@@@4@V?$allocator@U?$pair@$$CBW4eInfoType@DBINFO_MGR@@V?$basic_string@DU?$char_traits@D@std@@V?$allocator@D@2@@std@@@std@@@4@@std@@@std@@@4@$0A@@std@@@std@@QAE?AViterator@12@ABW4eDatabaseType@DBINFO_MGR@@@Z 0055ade0 f i LocaMgr.obj
 0002:00087f20       ??Diterator@?$_Tree@V?$_Tmap_traits@W4eDatabaseType@DBINFO_MGR@@PAV?$map@W4eInfoType@DBINFO_MGR@@V?$basic_string@DU?$char_traits@D@std@@V?$allocator@D@2@@std@@U?$less@W4eInfoType@DBINFO_MGR@@@4@V?$allocator@U?$pair@$$CBW4eInfoType@DBINFO_MGR@@V?$basic_string@DU?$char_traits@D@std@@V?$allocator@D@2@@std@@@std@@@4@@std@@U?$less@W4eDatabaseType@DBINFO_MGR@@@4@V?$allocator@U?$pair@$$CBW4eDatabaseType@DBINFO_MGR@@PAV?$map@W4eInfoType@DBINFO_MGR@@V?$basic_string@DU?$char_traits@D@std@@V?$allocator@D@2@@std@@U?$less@W4eInfoType@DBINFO_MGR@@@4@V?$allocator@U?$pair@$$CBW4eInfoType@DBINFO_MGR@@V?$basic_string@DU?$char_traits@D@std@@V?$allocator@D@2@@std@@@std@@@4@@std@@@std@@@4@$0A@@std@@@std@@QBEAAU?$pair@$$CBW4eDatabaseType@DBINFO_MGR@@PAV?$map@W4eInfoType@DBINFO_MGR@@V?$basic_string@DU?$char_traits@D@std@@V?$allocator@D@2@@std@@U?$less@W4eInfoType@DBINFO_MGR@@@4@V?$allocator@U?$pair@$$CBW4eInfoType@DBINFO_MGR@@V?$basic_string@DU?$char_traits@D@std@@V?$allocator@D@2@@std@@@std@@@4@@std@@@2@XZ 0055af20 f i LocaMgr.obj
 0002:00087f70       ??Eiterator@?$_Tree@V?$_Tmap_traits@W4eDatabaseType@DBINFO_MGR@@PAV?$map@W4eInfoType@DBINFO_MGR@@V?$basic_string@DU?$char_traits@D@std@@V?$allocator@D@2@@std@@U?$less@W4eInfoType@DBINFO_MGR@@@4@V?$allocator@U?$pair@$$CBW4eInfoType@DBINFO_MGR@@V?$basic_string@DU?$char_traits@D@std@@V?$allocator@D@2@@std@@@std@@@4@@std@@U?$less@W4eDatabaseType@DBINFO_MGR@@@4@V?$allocator@U?$pair@$$CBW4eDatabaseType@DBINFO_MGR@@PAV?$map@W4eInfoType@DBINFO_MGR@@V?$basic_string@DU?$char_traits@D@std@@V?$allocator@D@2@@std@@U?$less@W4eInfoType@DBINFO_MGR@@@4@V?$allocator@U?$pair@$$CBW4eInfoType@DBINFO_MGR@@V?$basic_string@DU?$char_traits@D@std@@V?$allocator@D@2@@std@@@std@@@4@@std@@@std@@@4@$0A@@std@@@std@@QAEAAV012@XZ 0055af70 f i LocaMgr.obj
 0002:00087fd0       ??9const_iterator@?$_Tree@V?$_Tmap_traits@W4eDatabaseType@DBINFO_MGR@@PAV?$map@W4eInfoType@DBINFO_MGR@@V?$basic_string@DU?$char_traits@D@std@@V?$allocator@D@2@@std@@U?$less@W4eInfoType@DBINFO_MGR@@@4@V?$allocator@U?$pair@$$CBW4eInfoType@DBINFO_MGR@@V?$basic_string@DU?$char_traits@D@std@@V?$allocator@D@2@@std@@@std@@@4@@std@@U?$less@W4eDatabaseType@DBINFO_MGR@@@4@V?$allocator@U?$pair@$$CBW4eDatabaseType@DBINFO_MGR@@PAV?$map@W4eInfoType@DBINFO_MGR@@V?$basic_string@DU?$char_traits@D@std@@V?$allocator@D@2@@std@@U?$less@W4eInfoType@DBINFO_MGR@@@4@V?$allocator@U?$pair@$$CBW4eInfoType@DBINFO_MGR@@V?$basic_string@DU?$char_traits@D@std@@V?$allocator@D@2@@std@@@std@@@4@@std@@@std@@@4@$0A@@std@@@std@@QBE_NABV012@@Z 0055afd0 f i LocaMgr.obj
 0002:00088030       ??Diterator@?$_Tree@V?$_Tmap_traits@W4eInfoType@DBINFO_MGR@@V?$basic_string@DU?$char_traits@D@std@@V?$allocator@D@2@@std@@U?$less@W4eInfoType@DBINFO_MGR@@@4@V?$allocator@U?$pair@$$CBW4eInfoType@DBINFO_MGR@@V?$basic_string@DU?$char_traits@D@std@@V?$allocator@D@2@@std@@@std@@@4@$0A@@std@@@std@@QBEAAU?$pair@$$CBW4eInfoType@DBINFO_MGR@@V?$basic_string@DU?$char_traits@D@std@@V?$allocator@D@2@@std@@@2@XZ 0055b030 f i LocaMgr.obj
 0002:00088080       ??9const_iterator@?$_Tree@V?$_Tmap_traits@W4eInfoType@DBINFO_MGR@@V?$basic_string@DU?$char_traits@D@std@@V?$allocator@D@2@@std@@U?$less@W4eInfoType@DBINFO_MGR@@@4@V?$allocator@U?$pair@$$CBW4eInfoType@DBINFO_MGR@@V?$basic_string@DU?$char_traits@D@std@@V?$allocator@D@2@@std@@@std@@@4@$0A@@std@@@std@@QBE_NABV012@@Z 0055b080 f i LocaMgr.obj
 0002:000880e0       ?_Isnil@?$_Tree@V?$_Tmap_traits@W4eInfoType@DBINFO_MGR@@V?$basic_string@DU?$char_traits@D@std@@V?$allocator@D@2@@std@@U?$less@W4eInfoType@DBINFO_MGR@@@4@V?$allocator@U?$pair@$$CBW4eInfoType@DBINFO_MGR@@V?$basic_string@DU?$char_traits@D@std@@V?$allocator@D@2@@std@@@std@@@4@$0A@@std@@@std@@KAAADPAU_Node@?$_Tree_nod@V?$_Tmap_traits@W4eInfoType@DBINFO_MGR@@V?$basic_string@DU?$char_traits@D@std@@V?$allocator@D@2@@std@@U?$less@W4eInfoType@DBINFO_MGR@@@4@V?$allocator@U?$pair@$$CBW4eInfoType@DBINFO_MGR@@V?$basic_string@DU?$char_traits@D@std@@V?$allocator@D@2@@std@@@std@@@4@$0A@@std@@@2@@Z 0055b0e0 f i LocaMgr.obj
 0002:00088120       ?_Key@?$_Tree@V?$_Tmap_traits@W4eInfoType@DBINFO_MGR@@V?$basic_string@DU?$char_traits@D@std@@V?$allocator@D@2@@std@@U?$less@W4eInfoType@DBINFO_MGR@@@4@V?$allocator@U?$pair@$$CBW4eInfoType@DBINFO_MGR@@V?$basic_string@DU?$char_traits@D@std@@V?$allocator@D@2@@std@@@std@@@4@$0A@@std@@@std@@KAABW4eInfoType@DBINFO_MGR@@PAU_Node@?$_Tree_nod@V?$_Tmap_traits@W4eInfoType@DBINFO_MGR@@V?$basic_string@DU?$char_traits@D@std@@V?$allocator@D@2@@std@@U?$less@W4eInfoType@DBINFO_MGR@@@4@V?$allocator@U?$pair@$$CBW4eInfoType@DBINFO_MGR@@V?$basic_string@DU?$char_traits@D@std@@V?$allocator@D@2@@std@@@std@@@4@$0A@@std@@@2@@Z 0055b120 f i LocaMgr.obj
 0002:00088180       ?_Left@?$_Tree@V?$_Tmap_traits@W4eInfoType@DBINFO_MGR@@V?$basic_string@DU?$char_traits@D@std@@V?$allocator@D@2@@std@@U?$less@W4eInfoType@DBINFO_MGR@@@4@V?$allocator@U?$pair@$$CBW4eInfoType@DBINFO_MGR@@V?$basic_string@DU?$char_traits@D@std@@V?$allocator@D@2@@std@@@std@@@4@$0A@@std@@@std@@KAAAPAU_Node@?$_Tree_nod@V?$_Tmap_traits@W4eInfoType@DBINFO_MGR@@V?$basic_string@DU?$char_traits@D@std@@V?$allocator@D@2@@std@@U?$less@W4eInfoType@DBINFO_MGR@@@4@V?$allocator@U?$pair@$$CBW4eInfoType@DBINFO_MGR@@V?$basic_string@DU?$char_traits@D@std@@V?$allocator@D@2@@std@@@std@@@4@$0A@@std@@@2@PAU342@@Z 0055b180 f i LocaMgr.obj
 0002:000881c0       ?_Right@?$_Tree@V?$_Tmap_traits@W4eInfoType@DBINFO_MGR@@V?$basic_string@DU?$char_traits@D@std@@V?$allocator@D@2@@std@@U?$less@W4eInfoType@DBINFO_MGR@@@4@V?$allocator@U?$pair@$$CBW4eInfoType@DBINFO_MGR@@V?$basic_string@DU?$char_traits@D@std@@V?$allocator@D@2@@std@@@std@@@4@$0A@@std@@@std@@KAAAPAU_Node@?$_Tree_nod@V?$_Tmap_traits@W4eInfoType@DBINFO_MGR@@V?$basic_string@DU?$char_traits@D@std@@V?$allocator@D@2@@std@@U?$less@W4eInfoType@DBINFO_MGR@@@4@V?$allocator@U?$pair@$$CBW4eInfoType@DBINFO_MGR@@V?$basic_string@DU?$char_traits@D@std@@V?$allocator@D@2@@std@@@std@@@4@$0A@@std@@@2@PAU342@@Z 0055b1c0 f i LocaMgr.obj
 0002:00088200       ??0?$_Tree@V?$_Tmap_traits@W4eInfoType@DBINFO_MGR@@V?$basic_string@DU?$char_traits@D@std@@V?$allocator@D@2@@std@@U?$less@W4eInfoType@DBINFO_MGR@@@4@V?$allocator@U?$pair@$$CBW4eInfoType@DBINFO_MGR@@V?$basic_string@DU?$char_traits@D@std@@V?$allocator@D@2@@std@@@std@@@4@$0A@@std@@@std@@QAE@ABU?$less@W4eInfoType@DBINFO_MGR@@@1@ABV?$allocator@U?$pair@$$CBW4eInfoType@DBINFO_MGR@@V?$basic_string@DU?$char_traits@D@std@@V?$allocator@D@2@@std@@@std@@@1@@Z 0055b200 f i LocaMgr.obj
 0002:00088280       ?begin@?$_Tree@V?$_Tmap_traits@W4eInfoType@DBINFO_MGR@@V?$basic_string@DU?$char_traits@D@std@@V?$allocator@D@2@@std@@U?$less@W4eInfoType@DBINFO_MGR@@@4@V?$allocator@U?$pair@$$CBW4eInfoType@DBINFO_MGR@@V?$basic_string@DU?$char_traits@D@std@@V?$allocator@D@2@@std@@@std@@@4@$0A@@std@@@std@@QAE?AViterator@12@XZ 0055b280 f i LocaMgr.obj
 0002:000882f0       ?lower_bound@?$_Tree@V?$_Tmap_traits@W4eInfoType@DBINFO_MGR@@V?$basic_string@DU?$char_traits@D@std@@V?$allocator@D@2@@std@@U?$less@W4eInfoType@DBINFO_MGR@@@4@V?$allocator@U?$pair@$$CBW4eInfoType@DBINFO_MGR@@V?$basic_string@DU?$char_traits@D@std@@V?$allocator@D@2@@std@@@std@@@4@$0A@@std@@@std@@QAE?AViterator@12@ABW4eInfoType@DBINFO_MGR@@@Z 0055b2f0 f i LocaMgr.obj
 0002:00088360       ?_Insert@?$_Tree@V?$_Tmap_traits@W4eInfoType@DBINFO_MGR@@V?$basic_string@DU?$char_traits@D@std@@V?$allocator@D@2@@std@@U?$less@W4eInfoType@DBINFO_MGR@@@4@V?$allocator@U?$pair@$$CBW4eInfoType@DBINFO_MGR@@V?$basic_string@DU?$char_traits@D@std@@V?$allocator@D@2@@std@@@std@@@4@$0A@@std@@@std@@IAE?AViterator@12@_NPAU_Node@?$_Tree_nod@V?$_Tmap_traits@W4eInfoType@DBINFO_MGR@@V?$basic_string@DU?$char_traits@D@std@@V?$allocator@D@2@@std@@U?$less@W4eInfoType@DBINFO_MGR@@@4@V?$allocator@U?$pair@$$CBW4eInfoType@DBINFO_MGR@@V?$basic_string@DU?$char_traits@D@std@@V?$allocator@D@2@@std@@@std@@@4@$0A@@std@@@2@ABU?$pair@$$CBW4eInfoType@DBINFO_MGR@@V?$basic_string@DU?$char_traits@D@std@@V?$allocator@D@2@@std@@@2@@Z 0055b360 f i LocaMgr.obj
 0002:00088910       ?_Root@?$_Tree@V?$_Tmap_traits@W4eInfoType@DBINFO_MGR@@V?$basic_string@DU?$char_traits@D@std@@V?$allocator@D@2@@std@@U?$less@W4eInfoType@DBINFO_MGR@@@4@V?$allocator@U?$pair@$$CBW4eInfoType@DBINFO_MGR@@V?$basic_string@DU?$char_traits@D@std@@V?$allocator@D@2@@std@@@std@@@4@$0A@@std@@@std@@IAEAAPAU_Node@?$_Tree_nod@V?$_Tmap_traits@W4eInfoType@DBINFO_MGR@@V?$basic_string@DU?$char_traits@D@std@@V?$allocator@D@2@@std@@U?$less@W4eInfoType@DBINFO_MGR@@@4@V?$allocator@U?$pair@$$CBW4eInfoType@DBINFO_MGR@@V?$basic_string@DU?$char_traits@D@std@@V?$allocator@D@2@@std@@@std@@@4@$0A@@std@@@2@XZ 0055b910 f i LocaMgr.obj
 0002:00088970       ?_Tidy@?$_Tree@V?$_Tmap_traits@W4eInfoType@DBINFO_MGR@@V?$basic_string@DU?$char_traits@D@std@@V?$allocator@D@2@@std@@U?$less@W4eInfoType@DBINFO_MGR@@@4@V?$allocator@U?$pair@$$CBW4eInfoType@DBINFO_MGR@@V?$basic_string@DU?$char_traits@D@std@@V?$allocator@D@2@@std@@@std@@@4@$0A@@std@@@std@@IAEXXZ 0055b970 f i LocaMgr.obj
 0002:00088a90       ?_Kfn@?$_Tmap_traits@W4eInfoType@DBINFO_MGR@@V?$basic_string@DU?$char_traits@D@std@@V?$allocator@D@2@@std@@U?$less@W4eInfoType@DBINFO_MGR@@@4@V?$allocator@U?$pair@$$CBW4eInfoType@DBINFO_MGR@@V?$basic_string@DU?$char_traits@D@std@@V?$allocator@D@2@@std@@@std@@@4@$0A@@std@@SAABW4eInfoType@DBINFO_MGR@@ABU?$pair@$$CBW4eInfoType@DBINFO_MGR@@V?$basic_string@DU?$char_traits@D@std@@V?$allocator@D@2@@std@@@2@@Z 0055ba90 f i LocaMgr.obj
 0002:00088ad0       ??0?$allocator@U?$pair@$$CBW4eInfoType@DBINFO_MGR@@V?$basic_string@DU?$char_traits@D@std@@V?$allocator@D@2@@std@@@std@@@std@@QAE@XZ 0055bad0 f i LocaMgr.obj
 0002:00088b10       ??R?$less@W4eInfoType@DBINFO_MGR@@@std@@QBE_NABW4eInfoType@DBINFO_MGR@@0@Z 0055bb10 f i LocaMgr.obj
 0002:00088b60       ?_Isnil@?$_Tree@V?$_Tmap_traits@W4eDatabaseType@DBINFO_MGR@@PAV?$map@W4eInfoType@DBINFO_MGR@@V?$basic_string@DU?$char_traits@D@std@@V?$allocator@D@2@@std@@U?$less@W4eInfoType@DBINFO_MGR@@@4@V?$allocator@U?$pair@$$CBW4eInfoType@DBINFO_MGR@@V?$basic_string@DU?$char_traits@D@std@@V?$allocator@D@2@@std@@@std@@@4@@std@@U?$less@W4eDatabaseType@DBINFO_MGR@@@4@V?$allocator@U?$pair@$$CBW4eDatabaseType@DBINFO_MGR@@PAV?$map@W4eInfoType@DBINFO_MGR@@V?$basic_string@DU?$char_traits@D@std@@V?$allocator@D@2@@std@@U?$less@W4eInfoType@DBINFO_MGR@@@4@V?$allocator@U?$pair@$$CBW4eInfoType@DBINFO_MGR@@V?$basic_string@DU?$char_traits@D@std@@V?$allocator@D@2@@std@@@std@@@4@@std@@@std@@@4@$0A@@std@@@std@@KAAADPAU_Node@?$_Tree_nod@V?$_Tmap_traits@W4eDatabaseType@DBINFO_MGR@@PAV?$map@W4eInfoType@DBINFO_MGR@@V?$basic_string@DU?$char_traits@D@std@@V?$allocator@D@2@@std@@U?$less@W4eInfoType@DBINFO_MGR@@@4@V?$allocator@U?$pair@$$CBW4eInfoType@DBINFO_MGR@@V?$basic_string@DU?$char_traits@D@std@@V?$allocator@D@2@@std@@@std@@@4@@std@@U?$less@W4eDatabaseType@DBINFO_MGR@@@4@V?$allocator@U?$pair@$$CBW4eDatabaseType@DBINFO_MGR@@PAV?$map@W4eInfoType@DBINFO_MGR@@V?$basic_string@DU?$char_traits@D@std@@V?$allocator@D@2@@std@@U?$less@W4eInfoType@DBINFO_MGR@@@4@V?$allocator@U?$pair@$$CBW4eInfoType@DBINFO_MGR@@V?$basic_string@DU?$char_traits@D@std@@V?$allocator@D@2@@std@@@std@@@4@@std@@@std@@@4@$0A@@std@@@2@@Z 0055bb60 f i LocaMgr.obj
 0002:00088ba0       ?_Key@?$_Tree@V?$_Tmap_traits@W4eDatabaseType@DBINFO_MGR@@PAV?$map@W4eInfoType@DBINFO_MGR@@V?$basic_string@DU?$char_traits@D@std@@V?$allocator@D@2@@std@@U?$less@W4eInfoType@DBINFO_MGR@@@4@V?$allocator@U?$pair@$$CBW4eInfoType@DBINFO_MGR@@V?$basic_string@DU?$char_traits@D@std@@V?$allocator@D@2@@std@@@std@@@4@@std@@U?$less@W4eDatabaseType@DBINFO_MGR@@@4@V?$allocator@U?$pair@$$CBW4eDatabaseType@DBINFO_MGR@@PAV?$map@W4eInfoType@DBINFO_MGR@@V?$basic_string@DU?$char_traits@D@std@@V?$allocator@D@2@@std@@U?$less@W4eInfoType@DBINFO_MGR@@@4@V?$allocator@U?$pair@$$CBW4eInfoType@DBINFO_MGR@@V?$basic_string@DU?$char_traits@D@std@@V?$allocator@D@2@@std@@@std@@@4@@std@@@std@@@4@$0A@@std@@@std@@KAABW4eDatabaseType@DBINFO_MGR@@PAU_Node@?$_Tree_nod@V?$_Tmap_traits@W4eDatabaseType@DBINFO_MGR@@PAV?$map@W4eInfoType@DBINFO_MGR@@V?$basic_string@DU?$char_traits@D@std@@V?$allocator@D@2@@std@@U?$less@W4eInfoType@DBINFO_MGR@@@4@V?$allocator@U?$pair@$$CBW4eInfoType@DBINFO_MGR@@V?$basic_string@DU?$char_traits@D@std@@V?$allocator@D@2@@std@@@std@@@4@@std@@U?$less@W4eDatabaseType@DBINFO_MGR@@@4@V?$allocator@U?$pair@$$CBW4eDatabaseType@DBINFO_MGR@@PAV?$map@W4eInfoType@DBINFO_MGR@@V?$basic_string@DU?$char_traits@D@std@@V?$allocator@D@2@@std@@U?$less@W4eInfoType@DBINFO_MGR@@@4@V?$allocator@U?$pair@$$CBW4eInfoType@DBINFO_MGR@@V?$basic_string@DU?$char_traits@D@std@@V?$allocator@D@2@@std@@@std@@@4@@std@@@std@@@4@$0A@@std@@@2@@Z 0055bba0 f i LocaMgr.obj
 0002:00088c00       ?_Left@?$_Tree@V?$_Tmap_traits@W4eDatabaseType@DBINFO_MGR@@PAV?$map@W4eInfoType@DBINFO_MGR@@V?$basic_string@DU?$char_traits@D@std@@V?$allocator@D@2@@std@@U?$less@W4eInfoType@DBINFO_MGR@@@4@V?$allocator@U?$pair@$$CBW4eInfoType@DBINFO_MGR@@V?$basic_string@DU?$char_traits@D@std@@V?$allocator@D@2@@std@@@std@@@4@@std@@U?$less@W4eDatabaseType@DBINFO_MGR@@@4@V?$allocator@U?$pair@$$CBW4eDatabaseType@DBINFO_MGR@@PAV?$map@W4eInfoType@DBINFO_MGR@@V?$basic_string@DU?$char_traits@D@std@@V?$allocator@D@2@@std@@U?$less@W4eInfoType@DBINFO_MGR@@@4@V?$allocator@U?$pair@$$CBW4eInfoType@DBINFO_MGR@@V?$basic_string@DU?$char_traits@D@std@@V?$allocator@D@2@@std@@@std@@@4@@std@@@std@@@4@$0A@@std@@@std@@KAAAPAU_Node@?$_Tree_nod@V?$_Tmap_traits@W4eDatabaseType@DBINFO_MGR@@PAV?$map@W4eInfoType@DBINFO_MGR@@V?$basic_string@DU?$char_traits@D@std@@V?$allocator@D@2@@std@@U?$less@W4eInfoType@DBINFO_MGR@@@4@V?$allocator@U?$pair@$$CBW4eInfoType@DBINFO_MGR@@V?$basic_string@DU?$char_traits@D@std@@V?$allocator@D@2@@std@@@std@@@4@@std@@U?$less@W4eDatabaseType@DBINFO_MGR@@@4@V?$allocator@U?$pair@$$CBW4eDatabaseType@DBINFO_MGR@@PAV?$map@W4eInfoType@DBINFO_MGR@@V?$basic_string@DU?$char_traits@D@std@@V?$allocator@D@2@@std@@U?$less@W4eInfoType@DBINFO_MGR@@@4@V?$allocator@U?$pair@$$CBW4eInfoType@DBINFO_MGR@@V?$basic_string@DU?$char_traits@D@std@@V?$allocator@D@2@@std@@@std@@@4@@std@@@std@@@4@$0A@@std@@@2@PAU342@@Z 0055bc00 f i LocaMgr.obj
 0002:00088c40       ?_Right@?$_Tree@V?$_Tmap_traits@W4eDatabaseType@DBINFO_MGR@@PAV?$map@W4eInfoType@DBINFO_MGR@@V?$basic_string@DU?$char_traits@D@std@@V?$allocator@D@2@@std@@U?$less@W4eInfoType@DBINFO_MGR@@@4@V?$allocator@U?$pair@$$CBW4eInfoType@DBINFO_MGR@@V?$basic_string@DU?$char_traits@D@std@@V?$allocator@D@2@@std@@@std@@@4@@std@@U?$less@W4eDatabaseType@DBINFO_MGR@@@4@V?$allocator@U?$pair@$$CBW4eDatabaseType@DBINFO_MGR@@PAV?$map@W4eInfoType@DBINFO_MGR@@V?$basic_string@DU?$char_traits@D@std@@V?$allocator@D@2@@std@@U?$less@W4eInfoType@DBINFO_MGR@@@4@V?$allocator@U?$pair@$$CBW4eInfoType@DBINFO_MGR@@V?$basic_string@DU?$char_traits@D@std@@V?$allocator@D@2@@std@@@std@@@4@@std@@@std@@@4@$0A@@std@@@std@@KAAAPAU_Node@?$_Tree_nod@V?$_Tmap_traits@W4eDatabaseType@DBINFO_MGR@@PAV?$map@W4eInfoType@DBINFO_MGR@@V?$basic_string@DU?$char_traits@D@std@@V?$allocator@D@2@@std@@U?$less@W4eInfoType@DBINFO_MGR@@@4@V?$allocator@U?$pair@$$CBW4eInfoType@DBINFO_MGR@@V?$basic_string@DU?$char_traits@D@std@@V?$allocator@D@2@@std@@@std@@@4@@std@@U?$less@W4eDatabaseType@DBINFO_MGR@@@4@V?$allocator@U?$pair@$$CBW4eDatabaseType@DBINFO_MGR@@PAV?$map@W4eInfoType@DBINFO_MGR@@V?$basic_string@DU?$char_traits@D@std@@V?$allocator@D@2@@std@@U?$less@W4eInfoType@DBINFO_MGR@@@4@V?$allocator@U?$pair@$$CBW4eInfoType@DBINFO_MGR@@V?$basic_string@DU?$char_traits@D@std@@V?$allocator@D@2@@std@@@std@@@4@@std@@@std@@@4@$0A@@std@@@2@PAU342@@Z 0055bc40 f i LocaMgr.obj
 0002:00088c80       ??0?$_Tree@V?$_Tmap_traits@W4eDatabaseType@DBINFO_MGR@@PAV?$map@W4eInfoType@DBINFO_MGR@@V?$basic_string@DU?$char_traits@D@std@@V?$allocator@D@2@@std@@U?$less@W4eInfoType@DBINFO_MGR@@@4@V?$allocator@U?$pair@$$CBW4eInfoType@DBINFO_MGR@@V?$basic_string@DU?$char_traits@D@std@@V?$allocator@D@2@@std@@@std@@@4@@std@@U?$less@W4eDatabaseType@DBINFO_MGR@@@4@V?$allocator@U?$pair@$$CBW4eDatabaseType@DBINFO_MGR@@PAV?$map@W4eInfoType@DBINFO_MGR@@V?$basic_string@DU?$char_traits@D@std@@V?$allocator@D@2@@std@@U?$less@W4eInfoType@DBINFO_MGR@@@4@V?$allocator@U?$pair@$$CBW4eInfoType@DBINFO_MGR@@V?$basic_string@DU?$char_traits@D@std@@V?$allocator@D@2@@std@@@std@@@4@@std@@@std@@@4@$0A@@std@@@std@@QAE@ABU?$less@W4eDatabaseType@DBINFO_MGR@@@1@ABV?$allocator@U?$pair@$$CBW4eDatabaseType@DBINFO_MGR@@PAV?$map@W4eInfoType@DBINFO_MGR@@V?$basic_string@DU?$char_traits@D@std@@V?$allocator@D@2@@std@@U?$less@W4eInfoType@DBINFO_MGR@@@4@V?$allocator@U?$pair@$$CBW4eInfoType@DBINFO_MGR@@V?$basic_string@DU?$char_traits@D@std@@V?$allocator@D@2@@std@@@std@@@4@@std@@@std@@@1@@Z 0055bc80 f i LocaMgr.obj
 0002:00088d00       ?lower_bound@?$_Tree@V?$_Tmap_traits@W4eDatabaseType@DBINFO_MGR@@PAV?$map@W4eInfoType@DBINFO_MGR@@V?$basic_string@DU?$char_traits@D@std@@V?$allocator@D@2@@std@@U?$less@W4eInfoType@DBINFO_MGR@@@4@V?$allocator@U?$pair@$$CBW4eInfoType@DBINFO_MGR@@V?$basic_string@DU?$char_traits@D@std@@V?$allocator@D@2@@std@@@std@@@4@@std@@U?$less@W4eDatabaseType@DBINFO_MGR@@@4@V?$allocator@U?$pair@$$CBW4eDatabaseType@DBINFO_MGR@@PAV?$map@W4eInfoType@DBINFO_MGR@@V?$basic_string@DU?$char_traits@D@std@@V?$allocator@D@2@@std@@U?$less@W4eInfoType@DBINFO_MGR@@@4@V?$allocator@U?$pair@$$CBW4eInfoType@DBINFO_MGR@@V?$basic_string@DU?$char_traits@D@std@@V?$allocator@D@2@@std@@@std@@@4@@std@@@std@@@4@$0A@@std@@@std@@QAE?AViterator@12@ABW4eDatabaseType@DBINFO_MGR@@@Z 0055bd00 f i LocaMgr.obj
 0002:00088d70       ?_Insert@?$_Tree@V?$_Tmap_traits@W4eDatabaseType@DBINFO_MGR@@PAV?$map@W4eInfoType@DBINFO_MGR@@V?$basic_string@DU?$char_traits@D@std@@V?$allocator@D@2@@std@@U?$less@W4eInfoType@DBINFO_MGR@@@4@V?$allocator@U?$pair@$$CBW4eInfoType@DBINFO_MGR@@V?$basic_string@DU?$char_traits@D@std@@V?$allocator@D@2@@std@@@std@@@4@@std@@U?$less@W4eDatabaseType@DBINFO_MGR@@@4@V?$allocator@U?$pair@$$CBW4eDatabaseType@DBINFO_MGR@@PAV?$map@W4eInfoType@DBINFO_MGR@@V?$basic_string@DU?$char_traits@D@std@@V?$allocator@D@2@@std@@U?$less@W4eInfoType@DBINFO_MGR@@@4@V?$allocator@U?$pair@$$CBW4eInfoType@DBINFO_MGR@@V?$basic_string@DU?$char_traits@D@std@@V?$allocator@D@2@@std@@@std@@@4@@std@@@std@@@4@$0A@@std@@@std@@IAE?AViterator@12@_NPAU_Node@?$_Tree_nod@V?$_Tmap_traits@W4eDatabaseType@DBINFO_MGR@@PAV?$map@W4eInfoType@DBINFO_MGR@@V?$basic_string@DU?$char_traits@D@std@@V?$allocator@D@2@@std@@U?$less@W4eInfoType@DBINFO_MGR@@@4@V?$allocator@U?$pair@$$CBW4eInfoType@DBINFO_MGR@@V?$basic_string@DU?$char_traits@D@std@@V?$allocator@D@2@@std@@@std@@@4@@std@@U?$less@W4eDatabaseType@DBINFO_MGR@@@4@V?$allocator@U?$pair@$$CBW4eDatabaseType@DBINFO_MGR@@PAV?$map@W4eInfoType@DBINFO_MGR@@V?$basic_string@DU?$char_traits@D@std@@V?$allocator@D@2@@std@@U?$less@W4eInfoType@DBINFO_MGR@@@4@V?$allocator@U?$pair@$$CBW4eInfoType@DBINFO_MGR@@V?$basic_string@DU?$char_traits@D@std@@V?$allocator@D@2@@std@@@std@@@4@@std@@@std@@@4@$0A@@std@@@2@ABU?$pair@$$CBW4eDatabaseType@DBINFO_MGR@@PAV?$map@W4eInfoType@DBINFO_MGR@@V?$basic_string@DU?$char_traits@D@std@@V?$allocator@D@2@@std@@U?$less@W4eInfoType@DBINFO_MGR@@@4@V?$allocator@U?$pair@$$CBW4eInfoType@DBINFO_MGR@@V?$basic_string@DU?$char_traits@D@std@@V?$allocator@D@2@@std@@@std@@@4@@std@@@2@@Z 0055bd70 f i LocaMgr.obj
 0002:00089320       ?_Lmost@?$_Tree@V?$_Tmap_traits@W4eDatabaseType@DBINFO_MGR@@PAV?$map@W4eInfoType@DBINFO_MGR@@V?$basic_string@DU?$char_traits@D@std@@V?$allocator@D@2@@std@@U?$less@W4eInfoType@DBINFO_MGR@@@4@V?$allocator@U?$pair@$$CBW4eInfoType@DBINFO_MGR@@V?$basic_string@DU?$char_traits@D@std@@V?$allocator@D@2@@std@@@std@@@4@@std@@U?$less@W4eDatabaseType@DBINFO_MGR@@@4@V?$allocator@U?$pair@$$CBW4eDatabaseType@DBINFO_MGR@@PAV?$map@W4eInfoType@DBINFO_MGR@@V?$basic_string@DU?$char_traits@D@std@@V?$allocator@D@2@@std@@U?$less@W4eInfoType@DBINFO_MGR@@@4@V?$allocator@U?$pair@$$CBW4eInfoType@DBINFO_MGR@@V?$basic_string@DU?$char_traits@D@std@@V?$allocator@D@2@@std@@@std@@@4@@std@@@std@@@4@$0A@@std@@@std@@IAEAAPAU_Node@?$_Tree_nod@V?$_Tmap_traits@W4eDatabaseType@DBINFO_MGR@@PAV?$map@W4eInfoType@DBINFO_MGR@@V?$basic_string@DU?$char_traits@D@std@@V?$allocator@D@2@@std@@U?$less@W4eInfoType@DBINFO_MGR@@@4@V?$allocator@U?$pair@$$CBW4eInfoType@DBINFO_MGR@@V?$basic_string@DU?$char_traits@D@std@@V?$allocator@D@2@@std@@@std@@@4@@std@@U?$less@W4eDatabaseType@DBINFO_MGR@@@4@V?$allocator@U?$pair@$$CBW4eDatabaseType@DBINFO_MGR@@PAV?$map@W4eInfoType@DBINFO_MGR@@V?$basic_string@DU?$char_traits@D@std@@V?$allocator@D@2@@std@@U?$less@W4eInfoType@DBINFO_MGR@@@4@V?$allocator@U?$pair@$$CBW4eInfoType@DBINFO_MGR@@V?$basic_string@DU?$char_traits@D@std@@V?$allocator@D@2@@std@@@std@@@4@@std@@@std@@@4@$0A@@std@@@2@XZ 0055c320 f i LocaMgr.obj
 0002:00089380       ?_Root@?$_Tree@V?$_Tmap_traits@W4eDatabaseType@DBINFO_MGR@@PAV?$map@W4eInfoType@DBINFO_MGR@@V?$basic_string@DU?$char_traits@D@std@@V?$allocator@D@2@@std@@U?$less@W4eInfoType@DBINFO_MGR@@@4@V?$allocator@U?$pair@$$CBW4eInfoType@DBINFO_MGR@@V?$basic_string@DU?$char_traits@D@std@@V?$allocator@D@2@@std@@@std@@@4@@std@@U?$less@W4eDatabaseType@DBINFO_MGR@@@4@V?$allocator@U?$pair@$$CBW4eDatabaseType@DBINFO_MGR@@PAV?$map@W4eInfoType@DBINFO_MGR@@V?$basic_string@DU?$char_traits@D@std@@V?$allocator@D@2@@std@@U?$less@W4eInfoType@DBINFO_MGR@@@4@V?$allocator@U?$pair@$$CBW4eInfoType@DBINFO_MGR@@V?$basic_string@DU?$char_traits@D@std@@V?$allocator@D@2@@std@@@std@@@4@@std@@@std@@@4@$0A@@std@@@std@@IAEAAPAU_Node@?$_Tree_nod@V?$_Tmap_traits@W4eDatabaseType@DBINFO_MGR@@PAV?$map@W4eInfoType@DBINFO_MGR@@V?$basic_string@DU?$char_traits@D@std@@V?$allocator@D@2@@std@@U?$less@W4eInfoType@DBINFO_MGR@@@4@V?$allocator@U?$pair@$$CBW4eInfoType@DBINFO_MGR@@V?$basic_string@DU?$char_traits@D@std@@V?$allocator@D@2@@std@@@std@@@4@@std@@U?$less@W4eDatabaseType@DBINFO_MGR@@@4@V?$allocator@U?$pair@$$CBW4eDatabaseType@DBINFO_MGR@@PAV?$map@W4eInfoType@DBINFO_MGR@@V?$basic_string@DU?$char_traits@D@std@@V?$allocator@D@2@@std@@U?$less@W4eInfoType@DBINFO_MGR@@@4@V?$allocator@U?$pair@$$CBW4eInfoType@DBINFO_MGR@@V?$basic_string@DU?$char_traits@D@std@@V?$allocator@D@2@@std@@@std@@@4@@std@@@std@@@4@$0A@@std@@@2@XZ 0055c380 f i LocaMgr.obj
 0002:000893e0       ?_Tidy@?$_Tree@V?$_Tmap_traits@W4eDatabaseType@DBINFO_MGR@@PAV?$map@W4eInfoType@DBINFO_MGR@@V?$basic_string@DU?$char_traits@D@std@@V?$allocator@D@2@@std@@U?$less@W4eInfoType@DBINFO_MGR@@@4@V?$allocator@U?$pair@$$CBW4eInfoType@DBINFO_MGR@@V?$basic_string@DU?$char_traits@D@std@@V?$allocator@D@2@@std@@@std@@@4@@std@@U?$less@W4eDatabaseType@DBINFO_MGR@@@4@V?$allocator@U?$pair@$$CBW4eDatabaseType@DBINFO_MGR@@PAV?$map@W4eInfoType@DBINFO_MGR@@V?$basic_string@DU?$char_traits@D@std@@V?$allocator@D@2@@std@@U?$less@W4eInfoType@DBINFO_MGR@@@4@V?$allocator@U?$pair@$$CBW4eInfoType@DBINFO_MGR@@V?$basic_string@DU?$char_traits@D@std@@V?$allocator@D@2@@std@@@std@@@4@@std@@@std@@@4@$0A@@std@@@std@@IAEXXZ 0055c3e0 f i LocaMgr.obj
 0002:00089500       ?_Kfn@?$_Tmap_traits@W4eDatabaseType@DBINFO_MGR@@PAV?$map@W4eInfoType@DBINFO_MGR@@V?$basic_string@DU?$char_traits@D@std@@V?$allocator@D@2@@std@@U?$less@W4eInfoType@DBINFO_MGR@@@4@V?$allocator@U?$pair@$$CBW4eInfoType@DBINFO_MGR@@V?$basic_string@DU?$char_traits@D@std@@V?$allocator@D@2@@std@@@std@@@4@@std@@U?$less@W4eDatabaseType@DBINFO_MGR@@@4@V?$allocator@U?$pair@$$CBW4eDatabaseType@DBINFO_MGR@@PAV?$map@W4eInfoType@DBINFO_MGR@@V?$basic_string@DU?$char_traits@D@std@@V?$allocator@D@2@@std@@U?$less@W4eInfoType@DBINFO_MGR@@@4@V?$allocator@U?$pair@$$CBW4eInfoType@DBINFO_MGR@@V?$basic_string@DU?$char_traits@D@std@@V?$allocator@D@2@@std@@@std@@@4@@std@@@std@@@4@$0A@@std@@SAABW4eDatabaseType@DBINFO_MGR@@ABU?$pair@$$CBW4eDatabaseType@DBINFO_MGR@@PAV?$map@W4eInfoType@DBINFO_MGR@@V?$basic_string@DU?$char_traits@D@std@@V?$allocator@D@2@@std@@U?$less@W4eInfoType@DBINFO_MGR@@@4@V?$allocator@U?$pair@$$CBW4eInfoType@DBINFO_MGR@@V?$basic_string@DU?$char_traits@D@std@@V?$allocator@D@2@@std@@@std@@@4@@std@@@2@@Z 0055c500 f i LocaMgr.obj
 0002:00089540       ??0?$allocator@U?$pair@$$CBW4eDatabaseType@DBINFO_MGR@@PAV?$map@W4eInfoType@DBINFO_MGR@@V?$basic_string@DU?$char_traits@D@std@@V?$allocator@D@2@@std@@U?$less@W4eInfoType@DBINFO_MGR@@@4@V?$allocator@U?$pair@$$CBW4eInfoType@DBINFO_MGR@@V?$basic_string@DU?$char_traits@D@std@@V?$allocator@D@2@@std@@@std@@@4@@std@@@std@@@std@@QAE@XZ 0055c540 f i LocaMgr.obj
 0002:00089580       ??R?$less@W4eDatabaseType@DBINFO_MGR@@@std@@QBE_NABW4eDatabaseType@DBINFO_MGR@@0@Z 0055c580 f i LocaMgr.obj
 0002:000895d0       ??0iterator@?$_Tree@V?$_Tmap_traits@W4eDatabaseType@DBINFO_MGR@@PAV?$map@W4eInfoType@DBINFO_MGR@@V?$basic_string@DU?$char_traits@D@std@@V?$allocator@D@2@@std@@U?$less@W4eInfoType@DBINFO_MGR@@@4@V?$allocator@U?$pair@$$CBW4eInfoType@DBINFO_MGR@@V?$basic_string@DU?$char_traits@D@std@@V?$allocator@D@2@@std@@@std@@@4@@std@@U?$less@W4eDatabaseType@DBINFO_MGR@@@4@V?$allocator@U?$pair@$$CBW4eDatabaseType@DBINFO_MGR@@PAV?$map@W4eInfoType@DBINFO_MGR@@V?$basic_string@DU?$char_traits@D@std@@V?$allocator@D@2@@std@@U?$less@W4eInfoType@DBINFO_MGR@@@4@V?$allocator@U?$pair@$$CBW4eInfoType@DBINFO_MGR@@V?$basic_string@DU?$char_traits@D@std@@V?$allocator@D@2@@std@@@std@@@4@@std@@@std@@@4@$0A@@std@@@std@@QAE@PAU_Node@?$_Tree_nod@V?$_Tmap_traits@W4eDatabaseType@DBINFO_MGR@@PAV?$map@W4eInfoType@DBINFO_MGR@@V?$basic_string@DU?$char_traits@D@std@@V?$allocator@D@2@@std@@U?$less@W4eInfoType@DBINFO_MGR@@@4@V?$allocator@U?$pair@$$CBW4eInfoType@DBINFO_MGR@@V?$basic_string@DU?$char_traits@D@std@@V?$allocator@D@2@@std@@@std@@@4@@std@@U?$less@W4eDatabaseType@DBINFO_MGR@@@4@V?$allocator@U?$pair@$$CBW4eDatabaseType@DBINFO_MGR@@PAV?$map@W4eInfoType@DBINFO_MGR@@V?$basic_string@DU?$char_traits@D@std@@V?$allocator@D@2@@std@@U?$less@W4eInfoType@DBINFO_MGR@@@4@V?$allocator@U?$pair@$$CBW4eInfoType@DBINFO_MGR@@V?$basic_string@DU?$char_traits@D@std@@V?$allocator@D@2@@std@@@std@@@4@@std@@@std@@@4@$0A@@std@@@2@@Z 0055c5d0 f i LocaMgr.obj
 0002:00089630       ??Fiterator@?$_Tree@V?$_Tmap_traits@W4eDatabaseType@DBINFO_MGR@@PAV?$map@W4eInfoType@DBINFO_MGR@@V?$basic_string@DU?$char_traits@D@std@@V?$allocator@D@2@@std@@U?$less@W4eInfoType@DBINFO_MGR@@@4@V?$allocator@U?$pair@$$CBW4eInfoType@DBINFO_MGR@@V?$basic_string@DU?$char_traits@D@std@@V?$allocator@D@2@@std@@@std@@@4@@std@@U?$less@W4eDatabaseType@DBINFO_MGR@@@4@V?$allocator@U?$pair@$$CBW4eDatabaseType@DBINFO_MGR@@PAV?$map@W4eInfoType@DBINFO_MGR@@V?$basic_string@DU?$char_traits@D@std@@V?$allocator@D@2@@std@@U?$less@W4eInfoType@DBINFO_MGR@@@4@V?$allocator@U?$pair@$$CBW4eInfoType@DBINFO_MGR@@V?$basic_string@DU?$char_traits@D@std@@V?$allocator@D@2@@std@@@std@@@4@@std@@@std@@@4@$0A@@std@@@std@@QAEAAV012@XZ 0055c630 f i LocaMgr.obj
 0002:00089690       ??Dconst_iterator@?$_Tree@V?$_Tmap_traits@W4eDatabaseType@DBINFO_MGR@@PAV?$map@W4eInfoType@DBINFO_MGR@@V?$basic_string@DU?$char_traits@D@std@@V?$allocator@D@2@@std@@U?$less@W4eInfoType@DBINFO_MGR@@@4@V?$allocator@U?$pair@$$CBW4eInfoType@DBINFO_MGR@@V?$basic_string@DU?$char_traits@D@std@@V?$allocator@D@2@@std@@@std@@@4@@std@@U?$less@W4eDatabaseType@DBINFO_MGR@@@4@V?$allocator@U?$pair@$$CBW4eDatabaseType@DBINFO_MGR@@PAV?$map@W4eInfoType@DBINFO_MGR@@V?$basic_string@DU?$char_traits@D@std@@V?$allocator@D@2@@std@@U?$less@W4eInfoType@DBINFO_MGR@@@4@V?$allocator@U?$pair@$$CBW4eInfoType@DBINFO_MGR@@V?$basic_string@DU?$char_traits@D@std@@V?$allocator@D@2@@std@@@std@@@4@@std@@@std@@@4@$0A@@std@@@std@@QBEABU?$pair@$$CBW4eDatabaseType@DBINFO_MGR@@PAV?$map@W4eInfoType@DBINFO_MGR@@V?$basic_string@DU?$char_traits@D@std@@V?$allocator@D@2@@std@@U?$less@W4eInfoType@DBINFO_MGR@@@4@V?$allocator@U?$pair@$$CBW4eInfoType@DBINFO_MGR@@V?$basic_string@DU?$char_traits@D@std@@V?$allocator@D@2@@std@@@std@@@4@@std@@@2@XZ 0055c690 f i LocaMgr.obj
 0002:000896f0       ??Econst_iterator@?$_Tree@V?$_Tmap_traits@W4eDatabaseType@DBINFO_MGR@@PAV?$map@W4eInfoType@DBINFO_MGR@@V?$basic_string@DU?$char_traits@D@std@@V?$allocator@D@2@@std@@U?$less@W4eInfoType@DBINFO_MGR@@@4@V?$allocator@U?$pair@$$CBW4eInfoType@DBINFO_MGR@@V?$basic_string@DU?$char_traits@D@std@@V?$allocator@D@2@@std@@@std@@@4@@std@@U?$less@W4eDatabaseType@DBINFO_MGR@@@4@V?$allocator@U?$pair@$$CBW4eDatabaseType@DBINFO_MGR@@PAV?$map@W4eInfoType@DBINFO_MGR@@V?$basic_string@DU?$char_traits@D@std@@V?$allocator@D@2@@std@@U?$less@W4eInfoType@DBINFO_MGR@@@4@V?$allocator@U?$pair@$$CBW4eInfoType@DBINFO_MGR@@V?$basic_string@DU?$char_traits@D@std@@V?$allocator@D@2@@std@@@std@@@4@@std@@@std@@@4@$0A@@std@@@std@@QAEAAV012@XZ 0055c6f0 f i LocaMgr.obj
 0002:00089750       ??8const_iterator@?$_Tree@V?$_Tmap_traits@W4eDatabaseType@DBINFO_MGR@@PAV?$map@W4eInfoType@DBINFO_MGR@@V?$basic_string@DU?$char_traits@D@std@@V?$allocator@D@2@@std@@U?$less@W4eInfoType@DBINFO_MGR@@@4@V?$allocator@U?$pair@$$CBW4eInfoType@DBINFO_MGR@@V?$basic_string@DU?$char_traits@D@std@@V?$allocator@D@2@@std@@@std@@@4@@std@@U?$less@W4eDatabaseType@DBINFO_MGR@@@4@V?$allocator@U?$pair@$$CBW4eDatabaseType@DBINFO_MGR@@PAV?$map@W4eInfoType@DBINFO_MGR@@V?$basic_string@DU?$char_traits@D@std@@V?$allocator@D@2@@std@@U?$less@W4eInfoType@DBINFO_MGR@@@4@V?$allocator@U?$pair@$$CBW4eInfoType@DBINFO_MGR@@V?$basic_string@DU?$char_traits@D@std@@V?$allocator@D@2@@std@@@std@@@4@@std@@@std@@@4@$0A@@std@@@std@@QBE_NABV012@@Z 0055c750 f i LocaMgr.obj
 0002:000897a0       ?_Mynode@const_iterator@?$_Tree@V?$_Tmap_traits@W4eDatabaseType@DBINFO_MGR@@PAV?$map@W4eInfoType@DBINFO_MGR@@V?$basic_string@DU?$char_traits@D@std@@V?$allocator@D@2@@std@@U?$less@W4eInfoType@DBINFO_MGR@@@4@V?$allocator@U?$pair@$$CBW4eInfoType@DBINFO_MGR@@V?$basic_string@DU?$char_traits@D@std@@V?$allocator@D@2@@std@@@std@@@4@@std@@U?$less@W4eDatabaseType@DBINFO_MGR@@@4@V?$allocator@U?$pair@$$CBW4eDatabaseType@DBINFO_MGR@@PAV?$map@W4eInfoType@DBINFO_MGR@@V?$basic_string@DU?$char_traits@D@std@@V?$allocator@D@2@@std@@U?$less@W4eInfoType@DBINFO_MGR@@@4@V?$allocator@U?$pair@$$CBW4eInfoType@DBINFO_MGR@@V?$basic_string@DU?$char_traits@D@std@@V?$allocator@D@2@@std@@@std@@@4@@std@@@std@@@4@$0A@@std@@@std@@QBEPAU_Node@?$_Tree_nod@V?$_Tmap_traits@W4eDatabaseType@DBINFO_MGR@@PAV?$map@W4eInfoType@DBINFO_MGR@@V?$basic_string@DU?$char_traits@D@std@@V?$allocator@D@2@@std@@U?$less@W4eInfoType@DBINFO_MGR@@@4@V?$allocator@U?$pair@$$CBW4eInfoType@DBINFO_MGR@@V?$basic_string@DU?$char_traits@D@std@@V?$allocator@D@2@@std@@@std@@@4@@std@@U?$less@W4eDatabaseType@DBINFO_MGR@@@4@V?$allocator@U?$pair@$$CBW4eDatabaseType@DBINFO_MGR@@PAV?$map@W4eInfoType@DBINFO_MGR@@V?$basic_string@DU?$char_traits@D@std@@V?$allocator@D@2@@std@@U?$less@W4eInfoType@DBINFO_MGR@@@4@V?$allocator@U?$pair@$$CBW4eInfoType@DBINFO_MGR@@V?$basic_string@DU?$char_traits@D@std@@V?$allocator@D@2@@std@@@std@@@4@@std@@@std@@@4@$0A@@std@@@3@XZ 0055c7a0 f i LocaMgr.obj
 0002:000897e0       ??0iterator@?$_Tree@V?$_Tmap_traits@W4eInfoType@DBINFO_MGR@@V?$basic_string@DU?$char_traits@D@std@@V?$allocator@D@2@@std@@U?$less@W4eInfoType@DBINFO_MGR@@@4@V?$allocator@U?$pair@$$CBW4eInfoType@DBINFO_MGR@@V?$basic_string@DU?$char_traits@D@std@@V?$allocator@D@2@@std@@@std@@@4@$0A@@std@@@std@@QAE@PAU_Node@?$_Tree_nod@V?$_Tmap_traits@W4eInfoType@DBINFO_MGR@@V?$basic_string@DU?$char_traits@D@std@@V?$allocator@D@2@@std@@U?$less@W4eInfoType@DBINFO_MGR@@@4@V?$allocator@U?$pair@$$CBW4eInfoType@DBINFO_MGR@@V?$basic_string@DU?$char_traits@D@std@@V?$allocator@D@2@@std@@@std@@@4@$0A@@std@@@2@@Z 0055c7e0 f i LocaMgr.obj
 0002:00089840       ??Fiterator@?$_Tree@V?$_Tmap_traits@W4eInfoType@DBINFO_MGR@@V?$basic_string@DU?$char_traits@D@std@@V?$allocator@D@2@@std@@U?$less@W4eInfoType@DBINFO_MGR@@@4@V?$allocator@U?$pair@$$CBW4eInfoType@DBINFO_MGR@@V?$basic_string@DU?$char_traits@D@std@@V?$allocator@D@2@@std@@@std@@@4@$0A@@std@@@std@@QAEAAV012@XZ 0055c840 f i LocaMgr.obj
 0002:000898a0       ??Dconst_iterator@?$_Tree@V?$_Tmap_traits@W4eInfoType@DBINFO_MGR@@V?$basic_string@DU?$char_traits@D@std@@V?$allocator@D@2@@std@@U?$less@W4eInfoType@DBINFO_MGR@@@4@V?$allocator@U?$pair@$$CBW4eInfoType@DBINFO_MGR@@V?$basic_string@DU?$char_traits@D@std@@V?$allocator@D@2@@std@@@std@@@4@$0A@@std@@@std@@QBEABU?$pair@$$CBW4eInfoType@DBINFO_MGR@@V?$basic_string@DU?$char_traits@D@std@@V?$allocator@D@2@@std@@@2@XZ 0055c8a0 f i LocaMgr.obj
 0002:00089900       ??8const_iterator@?$_Tree@V?$_Tmap_traits@W4eInfoType@DBINFO_MGR@@V?$basic_string@DU?$char_traits@D@std@@V?$allocator@D@2@@std@@U?$less@W4eInfoType@DBINFO_MGR@@@4@V?$allocator@U?$pair@$$CBW4eInfoType@DBINFO_MGR@@V?$basic_string@DU?$char_traits@D@std@@V?$allocator@D@2@@std@@@std@@@4@$0A@@std@@@std@@QBE_NABV012@@Z 0055c900 f i LocaMgr.obj
 0002:00089950       ?_Mynode@const_iterator@?$_Tree@V?$_Tmap_traits@W4eInfoType@DBINFO_MGR@@V?$basic_string@DU?$char_traits@D@std@@V?$allocator@D@2@@std@@U?$less@W4eInfoType@DBINFO_MGR@@@4@V?$allocator@U?$pair@$$CBW4eInfoType@DBINFO_MGR@@V?$basic_string@DU?$char_traits@D@std@@V?$allocator@D@2@@std@@@std@@@4@$0A@@std@@@std@@QBEPAU_Node@?$_Tree_nod@V?$_Tmap_traits@W4eInfoType@DBINFO_MGR@@V?$basic_string@DU?$char_traits@D@std@@V?$allocator@D@2@@std@@U?$less@W4eInfoType@DBINFO_MGR@@@4@V?$allocator@U?$pair@$$CBW4eInfoType@DBINFO_MGR@@V?$basic_string@DU?$char_traits@D@std@@V?$allocator@D@2@@std@@@std@@@4@$0A@@std@@@3@XZ 0055c950 f i LocaMgr.obj
 0002:00089990       ??0?$pair@Viterator@?$_Tree@V?$_Tmap_traits@W4eDatabaseType@DBINFO_MGR@@PAV?$map@W4eInfoType@DBINFO_MGR@@V?$basic_string@DU?$char_traits@D@std@@V?$allocator@D@2@@std@@U?$less@W4eInfoType@DBINFO_MGR@@@4@V?$allocator@U?$pair@$$CBW4eInfoType@DBINFO_MGR@@V?$basic_string@DU?$char_traits@D@std@@V?$allocator@D@2@@std@@@std@@@4@@std@@U?$less@W4eDatabaseType@DBINFO_MGR@@@4@V?$allocator@U?$pair@$$CBW4eDatabaseType@DBINFO_MGR@@PAV?$map@W4eInfoType@DBINFO_MGR@@V?$basic_string@DU?$char_traits@D@std@@V?$allocator@D@2@@std@@U?$less@W4eInfoType@DBINFO_MGR@@@4@V?$allocator@U?$pair@$$CBW4eInfoType@DBINFO_MGR@@V?$basic_string@DU?$char_traits@D@std@@V?$allocator@D@2@@std@@@std@@@4@@std@@@std@@@4@$0A@@std@@@std@@_N@std@@QAE@ABViterator@?$_Tree@V?$_Tmap_traits@W4eDatabaseType@DBINFO_MGR@@PAV?$map@W4eInfoType@DBINFO_MGR@@V?$basic_string@DU?$char_traits@D@std@@V?$allocator@D@2@@std@@U?$less@W4eInfoType@DBINFO_MGR@@@4@V?$allocator@U?$pair@$$CBW4eInfoType@DBINFO_MGR@@V?$basic_string@DU?$char_traits@D@std@@V?$allocator@D@2@@std@@@std@@@4@@std@@U?$less@W4eDatabaseType@DBINFO_MGR@@@4@V?$allocator@U?$pair@$$CBW4eDatabaseType@DBINFO_MGR@@PAV?$map@W4eInfoType@DBINFO_MGR@@V?$basic_string@DU?$char_traits@D@std@@V?$allocator@D@2@@std@@U?$less@W4eInfoType@DBINFO_MGR@@@4@V?$allocator@U?$pair@$$CBW4eInfoType@DBINFO_MGR@@V?$basic_string@DU?$char_traits@D@std@@V?$allocator@D@2@@std@@@std@@@4@@std@@@std@@@4@$0A@@std@@@1@AB_N@Z 0055c990 f i LocaMgr.obj
 0002:000899f0       ??0?$pair@Viterator@?$_Tree@V?$_Tmap_traits@W4eInfoType@DBINFO_MGR@@V?$basic_string@DU?$char_traits@D@std@@V?$allocator@D@2@@std@@U?$less@W4eInfoType@DBINFO_MGR@@@4@V?$allocator@U?$pair@$$CBW4eInfoType@DBINFO_MGR@@V?$basic_string@DU?$char_traits@D@std@@V?$allocator@D@2@@std@@@std@@@4@$0A@@std@@@std@@_N@std@@QAE@ABViterator@?$_Tree@V?$_Tmap_traits@W4eInfoType@DBINFO_MGR@@V?$basic_string@DU?$char_traits@D@std@@V?$allocator@D@2@@std@@U?$less@W4eInfoType@DBINFO_MGR@@@4@V?$allocator@U?$pair@$$CBW4eInfoType@DBINFO_MGR@@V?$basic_string@DU?$char_traits@D@std@@V?$allocator@D@2@@std@@@std@@@4@$0A@@std@@@1@AB_N@Z 0055c9f0 f i LocaMgr.obj
 0002:00089a50       ?_Color@?$_Tree@V?$_Tmap_traits@W4eInfoType@DBINFO_MGR@@V?$basic_string@DU?$char_traits@D@std@@V?$allocator@D@2@@std@@U?$less@W4eInfoType@DBINFO_MGR@@@4@V?$allocator@U?$pair@$$CBW4eInfoType@DBINFO_MGR@@V?$basic_string@DU?$char_traits@D@std@@V?$allocator@D@2@@std@@@std@@@4@$0A@@std@@@std@@KAAADPAU_Node@?$_Tree_nod@V?$_Tmap_traits@W4eInfoType@DBINFO_MGR@@V?$basic_string@DU?$char_traits@D@std@@V?$allocator@D@2@@std@@U?$less@W4eInfoType@DBINFO_MGR@@@4@V?$allocator@U?$pair@$$CBW4eInfoType@DBINFO_MGR@@V?$basic_string@DU?$char_traits@D@std@@V?$allocator@D@2@@std@@@std@@@4@$0A@@std@@@2@@Z 0055ca50 f i LocaMgr.obj
 0002:00089a90       ?_Parent@?$_Tree@V?$_Tmap_traits@W4eInfoType@DBINFO_MGR@@V?$basic_string@DU?$char_traits@D@std@@V?$allocator@D@2@@std@@U?$less@W4eInfoType@DBINFO_MGR@@@4@V?$allocator@U?$pair@$$CBW4eInfoType@DBINFO_MGR@@V?$basic_string@DU?$char_traits@D@std@@V?$allocator@D@2@@std@@@std@@@4@$0A@@std@@@std@@KAAAPAU_Node@?$_Tree_nod@V?$_Tmap_traits@W4eInfoType@DBINFO_MGR@@V?$basic_string@DU?$char_traits@D@std@@V?$allocator@D@2@@std@@U?$less@W4eInfoType@DBINFO_MGR@@@4@V?$allocator@U?$pair@$$CBW4eInfoType@DBINFO_MGR@@V?$basic_string@DU?$char_traits@D@std@@V?$allocator@D@2@@std@@@std@@@4@$0A@@std@@@2@PAU342@@Z 0055ca90 f i LocaMgr.obj
 0002:00089ad0       ?_Myval@?$_Tree@V?$_Tmap_traits@W4eInfoType@DBINFO_MGR@@V?$basic_string@DU?$char_traits@D@std@@V?$allocator@D@2@@std@@U?$less@W4eInfoType@DBINFO_MGR@@@4@V?$allocator@U?$pair@$$CBW4eInfoType@DBINFO_MGR@@V?$basic_string@DU?$char_traits@D@std@@V?$allocator@D@2@@std@@@std@@@4@$0A@@std@@@std@@KAAAU?$pair@$$CBW4eInfoType@DBINFO_MGR@@V?$basic_string@DU?$char_traits@D@std@@V?$allocator@D@2@@std@@@2@PAU_Node@?$_Tree_nod@V?$_Tmap_traits@W4eInfoType@DBINFO_MGR@@V?$basic_string@DU?$char_traits@D@std@@V?$allocator@D@2@@std@@U?$less@W4eInfoType@DBINFO_MGR@@@4@V?$allocator@U?$pair@$$CBW4eInfoType@DBINFO_MGR@@V?$basic_string@DU?$char_traits@D@std@@V?$allocator@D@2@@std@@@std@@@4@$0A@@std@@@2@@Z 0055cad0 f i LocaMgr.obj
 0002:00089b10       ?max_size@?$_Tree@V?$_Tmap_traits@W4eInfoType@DBINFO_MGR@@V?$basic_string@DU?$char_traits@D@std@@V?$allocator@D@2@@std@@U?$less@W4eInfoType@DBINFO_MGR@@@4@V?$allocator@U?$pair@$$CBW4eInfoType@DBINFO_MGR@@V?$basic_string@DU?$char_traits@D@std@@V?$allocator@D@2@@std@@@std@@@4@$0A@@std@@@std@@QBEIXZ 0055cb10 f i LocaMgr.obj
 0002:00089b70       ?erase@?$_Tree@V?$_Tmap_traits@W4eInfoType@DBINFO_MGR@@V?$basic_string@DU?$char_traits@D@std@@V?$allocator@D@2@@std@@U?$less@W4eInfoType@DBINFO_MGR@@@4@V?$allocator@U?$pair@$$CBW4eInfoType@DBINFO_MGR@@V?$basic_string@DU?$char_traits@D@std@@V?$allocator@D@2@@std@@@std@@@4@$0A@@std@@@std@@QAE?AViterator@12@V312@0@Z 0055cb70 f i LocaMgr.obj
 0002:00089c80       ?_Init@?$_Tree@V?$_Tmap_traits@W4eInfoType@DBINFO_MGR@@V?$basic_string@DU?$char_traits@D@std@@V?$allocator@D@2@@std@@U?$less@W4eInfoType@DBINFO_MGR@@@4@V?$allocator@U?$pair@$$CBW4eInfoType@DBINFO_MGR@@V?$basic_string@DU?$char_traits@D@std@@V?$allocator@D@2@@std@@@std@@@4@$0A@@std@@@std@@IAEXXZ 0055cc80 f i LocaMgr.obj
 0002:00089d40       ?_Lbound@?$_Tree@V?$_Tmap_traits@W4eInfoType@DBINFO_MGR@@V?$basic_string@DU?$char_traits@D@std@@V?$allocator@D@2@@std@@U?$less@W4eInfoType@DBINFO_MGR@@@4@V?$allocator@U?$pair@$$CBW4eInfoType@DBINFO_MGR@@V?$basic_string@DU?$char_traits@D@std@@V?$allocator@D@2@@std@@@std@@@4@$0A@@std@@@std@@IBEPAU_Node@?$_Tree_nod@V?$_Tmap_traits@W4eInfoType@DBINFO_MGR@@V?$basic_string@DU?$char_traits@D@std@@V?$allocator@D@2@@std@@U?$less@W4eInfoType@DBINFO_MGR@@@4@V?$allocator@U?$pair@$$CBW4eInfoType@DBINFO_MGR@@V?$basic_string@DU?$char_traits@D@std@@V?$allocator@D@2@@std@@@std@@@4@$0A@@std@@@2@ABW4eInfoType@DBINFO_MGR@@@Z 0055cd40 f i LocaMgr.obj
 0002:00089e20       ?_Lmost@?$_Tree@V?$_Tmap_traits@W4eInfoType@DBINFO_MGR@@V?$basic_string@DU?$char_traits@D@std@@V?$allocator@D@2@@std@@U?$less@W4eInfoType@DBINFO_MGR@@@4@V?$allocator@U?$pair@$$CBW4eInfoType@DBINFO_MGR@@V?$basic_string@DU?$char_traits@D@std@@V?$allocator@D@2@@std@@@std@@@4@$0A@@std@@@std@@IAEAAPAU_Node@?$_Tree_nod@V?$_Tmap_traits@W4eInfoType@DBINFO_MGR@@V?$basic_string@DU?$char_traits@D@std@@V?$allocator@D@2@@std@@U?$less@W4eInfoType@DBINFO_MGR@@@4@V?$allocator@U?$pair@$$CBW4eInfoType@DBINFO_MGR@@V?$basic_string@DU?$char_traits@D@std@@V?$allocator@D@2@@std@@@std@@@4@$0A@@std@@@2@XZ 0055ce20 f i LocaMgr.obj
 0002:00089e80       ?_Lrotate@?$_Tree@V?$_Tmap_traits@W4eInfoType@DBINFO_MGR@@V?$basic_string@DU?$char_traits@D@std@@V?$allocator@D@2@@std@@U?$less@W4eInfoType@DBINFO_MGR@@@4@V?$allocator@U?$pair@$$CBW4eInfoType@DBINFO_MGR@@V?$basic_string@DU?$char_traits@D@std@@V?$allocator@D@2@@std@@@std@@@4@$0A@@std@@@std@@IAEXPAU_Node@?$_Tree_nod@V?$_Tmap_traits@W4eInfoType@DBINFO_MGR@@V?$basic_string@DU?$char_traits@D@std@@V?$allocator@D@2@@std@@U?$less@W4eInfoType@DBINFO_MGR@@@4@V?$allocator@U?$pair@$$CBW4eInfoType@DBINFO_MGR@@V?$basic_string@DU?$char_traits@D@std@@V?$allocator@D@2@@std@@@std@@@4@$0A@@std@@@2@@Z 0055ce80 f i LocaMgr.obj
 0002:0008a030       ?_Rmost@?$_Tree@V?$_Tmap_traits@W4eInfoType@DBINFO_MGR@@V?$basic_string@DU?$char_traits@D@std@@V?$allocator@D@2@@std@@U?$less@W4eInfoType@DBINFO_MGR@@@4@V?$allocator@U?$pair@$$CBW4eInfoType@DBINFO_MGR@@V?$basic_string@DU?$char_traits@D@std@@V?$allocator@D@2@@std@@@std@@@4@$0A@@std@@@std@@IAEAAPAU_Node@?$_Tree_nod@V?$_Tmap_traits@W4eInfoType@DBINFO_MGR@@V?$basic_string@DU?$char_traits@D@std@@V?$allocator@D@2@@std@@U?$less@W4eInfoType@DBINFO_MGR@@@4@V?$allocator@U?$pair@$$CBW4eInfoType@DBINFO_MGR@@V?$basic_string@DU?$char_traits@D@std@@V?$allocator@D@2@@std@@@std@@@4@$0A@@std@@@2@XZ 0055d030 f i LocaMgr.obj
 0002:0008a090       ?_Rrotate@?$_Tree@V?$_Tmap_traits@W4eInfoType@DBINFO_MGR@@V?$basic_string@DU?$char_traits@D@std@@V?$allocator@D@2@@std@@U?$less@W4eInfoType@DBINFO_MGR@@@4@V?$allocator@U?$pair@$$CBW4eInfoType@DBINFO_MGR@@V?$basic_string@DU?$char_traits@D@std@@V?$allocator@D@2@@std@@@std@@@4@$0A@@std@@@std@@IAEXPAU_Node@?$_Tree_nod@V?$_Tmap_traits@W4eInfoType@DBINFO_MGR@@V?$basic_string@DU?$char_traits@D@std@@V?$allocator@D@2@@std@@U?$less@W4eInfoType@DBINFO_MGR@@@4@V?$allocator@U?$pair@$$CBW4eInfoType@DBINFO_MGR@@V?$basic_string@DU?$char_traits@D@std@@V?$allocator@D@2@@std@@@std@@@4@$0A@@std@@@2@@Z 0055d090 f i LocaMgr.obj
 0002:0008a240       ?_Buynode@?$_Tree@V?$_Tmap_traits@W4eInfoType@DBINFO_MGR@@V?$basic_string@DU?$char_traits@D@std@@V?$allocator@D@2@@std@@U?$less@W4eInfoType@DBINFO_MGR@@@4@V?$allocator@U?$pair@$$CBW4eInfoType@DBINFO_MGR@@V?$basic_string@DU?$char_traits@D@std@@V?$allocator@D@2@@std@@@std@@@4@$0A@@std@@@std@@IAEPAU_Node@?$_Tree_nod@V?$_Tmap_traits@W4eInfoType@DBINFO_MGR@@V?$basic_string@DU?$char_traits@D@std@@V?$allocator@D@2@@std@@U?$less@W4eInfoType@DBINFO_MGR@@@4@V?$allocator@U?$pair@$$CBW4eInfoType@DBINFO_MGR@@V?$basic_string@DU?$char_traits@D@std@@V?$allocator@D@2@@std@@@std@@@4@$0A@@std@@@2@PAU342@00ABU?$pair@$$CBW4eInfoType@DBINFO_MGR@@V?$basic_string@DU?$char_traits@D@std@@V?$allocator@D@2@@std@@@2@D@Z 0055d240 f i LocaMgr.obj
 0002:0008a3a0       ??0?$_Tree_val@V?$_Tmap_traits@W4eInfoType@DBINFO_MGR@@V?$basic_string@DU?$char_traits@D@std@@V?$allocator@D@2@@std@@U?$less@W4eInfoType@DBINFO_MGR@@@4@V?$allocator@U?$pair@$$CBW4eInfoType@DBINFO_MGR@@V?$basic_string@DU?$char_traits@D@std@@V?$allocator@D@2@@std@@@std@@@4@$0A@@std@@@std@@IAE@ABU?$less@W4eInfoType@DBINFO_MGR@@@1@V?$allocator@U?$pair@$$CBW4eInfoType@DBINFO_MGR@@V?$basic_string@DU?$char_traits@D@std@@V?$allocator@D@2@@std@@@std@@@1@@Z 0055d3a0 f i LocaMgr.obj
 0002:0008a420       ??0?$allocator@U?$pair@$$CBW4eInfoType@DBINFO_MGR@@V?$basic_string@DU?$char_traits@D@std@@V?$allocator@D@2@@std@@@std@@@std@@QAE@ABV01@@Z 0055d420 f i LocaMgr.obj
 0002:0008a460       ?deallocate@?$allocator@U_Node@?$_Tree_nod@V?$_Tmap_traits@W4eInfoType@DBINFO_MGR@@V?$basic_string@DU?$char_traits@D@std@@V?$allocator@D@2@@std@@U?$less@W4eInfoType@DBINFO_MGR@@@4@V?$allocator@U?$pair@$$CBW4eInfoType@DBINFO_MGR@@V?$basic_string@DU?$char_traits@D@std@@V?$allocator@D@2@@std@@@std@@@4@$0A@@std@@@std@@@std@@QAEXPAU_Node@?$_Tree_nod@V?$_Tmap_traits@W4eInfoType@DBINFO_MGR@@V?$basic_string@DU?$char_traits@D@std@@V?$allocator@D@2@@std@@U?$less@W4eInfoType@DBINFO_MGR@@@4@V?$allocator@U?$pair@$$CBW4eInfoType@DBINFO_MGR@@V?$basic_string@DU?$char_traits@D@std@@V?$allocator@D@2@@std@@@std@@@4@$0A@@std@@@2@I@Z 0055d460 f i LocaMgr.obj
 0002:0008a4c0       ?destroy@?$allocator@PAU_Node@?$_Tree_nod@V?$_Tmap_traits@W4eInfoType@DBINFO_MGR@@V?$basic_string@DU?$char_traits@D@std@@V?$allocator@D@2@@std@@U?$less@W4eInfoType@DBINFO_MGR@@@4@V?$allocator@U?$pair@$$CBW4eInfoType@DBINFO_MGR@@V?$basic_string@DU?$char_traits@D@std@@V?$allocator@D@2@@std@@@std@@@4@$0A@@std@@@std@@@std@@QAEXPAPAU_Node@?$_Tree_nod@V?$_Tmap_traits@W4eInfoType@DBINFO_MGR@@V?$basic_string@DU?$char_traits@D@std@@V?$allocator@D@2@@std@@U?$less@W4eInfoType@DBINFO_MGR@@@4@V?$allocator@U?$pair@$$CBW4eInfoType@DBINFO_MGR@@V?$basic_string@DU?$char_traits@D@std@@V?$allocator@D@2@@std@@@std@@@4@$0A@@std@@@2@@Z 0055d4c0 f i LocaMgr.obj
 0002:0008a520       ?_Color@?$_Tree@V?$_Tmap_traits@W4eDatabaseType@DBINFO_MGR@@PAV?$map@W4eInfoType@DBINFO_MGR@@V?$basic_string@DU?$char_traits@D@std@@V?$allocator@D@2@@std@@U?$less@W4eInfoType@DBINFO_MGR@@@4@V?$allocator@U?$pair@$$CBW4eInfoType@DBINFO_MGR@@V?$basic_string@DU?$char_traits@D@std@@V?$allocator@D@2@@std@@@std@@@4@@std@@U?$less@W4eDatabaseType@DBINFO_MGR@@@4@V?$allocator@U?$pair@$$CBW4eDatabaseType@DBINFO_MGR@@PAV?$map@W4eInfoType@DBINFO_MGR@@V?$basic_string@DU?$char_traits@D@std@@V?$allocator@D@2@@std@@U?$less@W4eInfoType@DBINFO_MGR@@@4@V?$allocator@U?$pair@$$CBW4eInfoType@DBINFO_MGR@@V?$basic_string@DU?$char_traits@D@std@@V?$allocator@D@2@@std@@@std@@@4@@std@@@std@@@4@$0A@@std@@@std@@KAAADPAU_Node@?$_Tree_nod@V?$_Tmap_traits@W4eDatabaseType@DBINFO_MGR@@PAV?$map@W4eInfoType@DBINFO_MGR@@V?$basic_string@DU?$char_traits@D@std@@V?$allocator@D@2@@std@@U?$less@W4eInfoType@DBINFO_MGR@@@4@V?$allocator@U?$pair@$$CBW4eInfoType@DBINFO_MGR@@V?$basic_string@DU?$char_traits@D@std@@V?$allocator@D@2@@std@@@std@@@4@@std@@U?$less@W4eDatabaseType@DBINFO_MGR@@@4@V?$allocator@U?$pair@$$CBW4eDatabaseType@DBINFO_MGR@@PAV?$map@W4eInfoType@DBINFO_MGR@@V?$basic_string@DU?$char_traits@D@std@@V?$allocator@D@2@@std@@U?$less@W4eInfoType@DBINFO_MGR@@@4@V?$allocator@U?$pair@$$CBW4eInfoType@DBINFO_MGR@@V?$basic_string@DU?$char_traits@D@std@@V?$allocator@D@2@@std@@@std@@@4@@std@@@std@@@4@$0A@@std@@@2@@Z 0055d520 f i LocaMgr.obj
 0002:0008a560       ?_Parent@?$_Tree@V?$_Tmap_traits@W4eDatabaseType@DBINFO_MGR@@PAV?$map@W4eInfoType@DBINFO_MGR@@V?$basic_string@DU?$char_traits@D@std@@V?$allocator@D@2@@std@@U?$less@W4eInfoType@DBINFO_MGR@@@4@V?$allocator@U?$pair@$$CBW4eInfoType@DBINFO_MGR@@V?$basic_string@DU?$char_traits@D@std@@V?$allocator@D@2@@std@@@std@@@4@@std@@U?$less@W4eDatabaseType@DBINFO_MGR@@@4@V?$allocator@U?$pair@$$CBW4eDatabaseType@DBINFO_MGR@@PAV?$map@W4eInfoType@DBINFO_MGR@@V?$basic_string@DU?$char_traits@D@std@@V?$allocator@D@2@@std@@U?$less@W4eInfoType@DBINFO_MGR@@@4@V?$allocator@U?$pair@$$CBW4eInfoType@DBINFO_MGR@@V?$basic_string@DU?$char_traits@D@std@@V?$allocator@D@2@@std@@@std@@@4@@std@@@std@@@4@$0A@@std@@@std@@KAAAPAU_Node@?$_Tree_nod@V?$_Tmap_traits@W4eDatabaseType@DBINFO_MGR@@PAV?$map@W4eInfoType@DBINFO_MGR@@V?$basic_string@DU?$char_traits@D@std@@V?$allocator@D@2@@std@@U?$less@W4eInfoType@DBINFO_MGR@@@4@V?$allocator@U?$pair@$$CBW4eInfoType@DBINFO_MGR@@V?$basic_string@DU?$char_traits@D@std@@V?$allocator@D@2@@std@@@std@@@4@@std@@U?$less@W4eDatabaseType@DBINFO_MGR@@@4@V?$allocator@U?$pair@$$CBW4eDatabaseType@DBINFO_MGR@@PAV?$map@W4eInfoType@DBINFO_MGR@@V?$basic_string@DU?$char_traits@D@std@@V?$allocator@D@2@@std@@U?$less@W4eInfoType@DBINFO_MGR@@@4@V?$allocator@U?$pair@$$CBW4eInfoType@DBINFO_MGR@@V?$basic_string@DU?$char_traits@D@std@@V?$allocator@D@2@@std@@@std@@@4@@std@@@std@@@4@$0A@@std@@@2@PAU342@@Z 0055d560 f i LocaMgr.obj
 0002:0008a5a0       ?_Myval@?$_Tree@V?$_Tmap_traits@W4eDatabaseType@DBINFO_MGR@@PAV?$map@W4eInfoType@DBINFO_MGR@@V?$basic_string@DU?$char_traits@D@std@@V?$allocator@D@2@@std@@U?$less@W4eInfoType@DBINFO_MGR@@@4@V?$allocator@U?$pair@$$CBW4eInfoType@DBINFO_MGR@@V?$basic_string@DU?$char_traits@D@std@@V?$allocator@D@2@@std@@@std@@@4@@std@@U?$less@W4eDatabaseType@DBINFO_MGR@@@4@V?$allocator@U?$pair@$$CBW4eDatabaseType@DBINFO_MGR@@PAV?$map@W4eInfoType@DBINFO_MGR@@V?$basic_string@DU?$char_traits@D@std@@V?$allocator@D@2@@std@@U?$less@W4eInfoType@DBINFO_MGR@@@4@V?$allocator@U?$pair@$$CBW4eInfoType@DBINFO_MGR@@V?$basic_string@DU?$char_traits@D@std@@V?$allocator@D@2@@std@@@std@@@4@@std@@@std@@@4@$0A@@std@@@std@@KAAAU?$pair@$$CBW4eDatabaseType@DBINFO_MGR@@PAV?$map@W4eInfoType@DBINFO_MGR@@V?$basic_string@DU?$char_traits@D@std@@V?$allocator@D@2@@std@@U?$less@W4eInfoType@DBINFO_MGR@@@4@V?$allocator@U?$pair@$$CBW4eInfoType@DBINFO_MGR@@V?$basic_string@DU?$char_traits@D@std@@V?$allocator@D@2@@std@@@std@@@4@@std@@@2@PAU_Node@?$_Tree_nod@V?$_Tmap_traits@W4eDatabaseType@DBINFO_MGR@@PAV?$map@W4eInfoType@DBINFO_MGR@@V?$basic_string@DU?$char_traits@D@std@@V?$allocator@D@2@@std@@U?$less@W4eInfoType@DBINFO_MGR@@@4@V?$allocator@U?$pair@$$CBW4eInfoType@DBINFO_MGR@@V?$basic_string@DU?$char_traits@D@std@@V?$allocator@D@2@@std@@@std@@@4@@std@@U?$less@W4eDatabaseType@DBINFO_MGR@@@4@V?$allocator@U?$pair@$$CBW4eDatabaseType@DBINFO_MGR@@PAV?$map@W4eInfoType@DBINFO_MGR@@V?$basic_string@DU?$char_traits@D@std@@V?$allocator@D@2@@std@@U?$less@W4eInfoType@DBINFO_MGR@@@4@V?$allocator@U?$pair@$$CBW4eInfoType@DBINFO_MGR@@V?$basic_string@DU?$char_traits@D@std@@V?$allocator@D@2@@std@@@std@@@4@@std@@@std@@@4@$0A@@std@@@2@@Z 0055d5a0 f i LocaMgr.obj
 0002:0008a5e0       ?max_size@?$_Tree@V?$_Tmap_traits@W4eDatabaseType@DBINFO_MGR@@PAV?$map@W4eInfoType@DBINFO_MGR@@V?$basic_string@DU?$char_traits@D@std@@V?$allocator@D@2@@std@@U?$less@W4eInfoType@DBINFO_MGR@@@4@V?$allocator@U?$pair@$$CBW4eInfoType@DBINFO_MGR@@V?$basic_string@DU?$char_traits@D@std@@V?$allocator@D@2@@std@@@std@@@4@@std@@U?$less@W4eDatabaseType@DBINFO_MGR@@@4@V?$allocator@U?$pair@$$CBW4eDatabaseType@DBINFO_MGR@@PAV?$map@W4eInfoType@DBINFO_MGR@@V?$basic_string@DU?$char_traits@D@std@@V?$allocator@D@2@@std@@U?$less@W4eInfoType@DBINFO_MGR@@@4@V?$allocator@U?$pair@$$CBW4eInfoType@DBINFO_MGR@@V?$basic_string@DU?$char_traits@D@std@@V?$allocator@D@2@@std@@@std@@@4@@std@@@std@@@4@$0A@@std@@@std@@QBEIXZ 0055d5e0 f i LocaMgr.obj
 0002:0008a640       ?erase@?$_Tree@V?$_Tmap_traits@W4eDatabaseType@DBINFO_MGR@@PAV?$map@W4eInfoType@DBINFO_MGR@@V?$basic_string@DU?$char_traits@D@std@@V?$allocator@D@2@@std@@U?$less@W4eInfoType@DBINFO_MGR@@@4@V?$allocator@U?$pair@$$CBW4eInfoType@DBINFO_MGR@@V?$basic_string@DU?$char_traits@D@std@@V?$allocator@D@2@@std@@@std@@@4@@std@@U?$less@W4eDatabaseType@DBINFO_MGR@@@4@V?$allocator@U?$pair@$$CBW4eDatabaseType@DBINFO_MGR@@PAV?$map@W4eInfoType@DBINFO_MGR@@V?$basic_string@DU?$char_traits@D@std@@V?$allocator@D@2@@std@@U?$less@W4eInfoType@DBINFO_MGR@@@4@V?$allocator@U?$pair@$$CBW4eInfoType@DBINFO_MGR@@V?$basic_string@DU?$char_traits@D@std@@V?$allocator@D@2@@std@@@std@@@4@@std@@@std@@@4@$0A@@std@@@std@@QAE?AViterator@12@V312@0@Z 0055d640 f i LocaMgr.obj
 0002:0008a750       ?_Init@?$_Tree@V?$_Tmap_traits@W4eDatabaseType@DBINFO_MGR@@PAV?$map@W4eInfoType@DBINFO_MGR@@V?$basic_string@DU?$char_traits@D@std@@V?$allocator@D@2@@std@@U?$less@W4eInfoType@DBINFO_MGR@@@4@V?$allocator@U?$pair@$$CBW4eInfoType@DBINFO_MGR@@V?$basic_string@DU?$char_traits@D@std@@V?$allocator@D@2@@std@@@std@@@4@@std@@U?$less@W4eDatabaseType@DBINFO_MGR@@@4@V?$allocator@U?$pair@$$CBW4eDatabaseType@DBINFO_MGR@@PAV?$map@W4eInfoType@DBINFO_MGR@@V?$basic_string@DU?$char_traits@D@std@@V?$allocator@D@2@@std@@U?$less@W4eInfoType@DBINFO_MGR@@@4@V?$allocator@U?$pair@$$CBW4eInfoType@DBINFO_MGR@@V?$basic_string@DU?$char_traits@D@std@@V?$allocator@D@2@@std@@@std@@@4@@std@@@std@@@4@$0A@@std@@@std@@IAEXXZ 0055d750 f i LocaMgr.obj
 0002:0008a810       ?_Lbound@?$_Tree@V?$_Tmap_traits@W4eDatabaseType@DBINFO_MGR@@PAV?$map@W4eInfoType@DBINFO_MGR@@V?$basic_string@DU?$char_traits@D@std@@V?$allocator@D@2@@std@@U?$less@W4eInfoType@DBINFO_MGR@@@4@V?$allocator@U?$pair@$$CBW4eInfoType@DBINFO_MGR@@V?$basic_string@DU?$char_traits@D@std@@V?$allocator@D@2@@std@@@std@@@4@@std@@U?$less@W4eDatabaseType@DBINFO_MGR@@@4@V?$allocator@U?$pair@$$CBW4eDatabaseType@DBINFO_MGR@@PAV?$map@W4eInfoType@DBINFO_MGR@@V?$basic_string@DU?$char_traits@D@std@@V?$allocator@D@2@@std@@U?$less@W4eInfoType@DBINFO_MGR@@@4@V?$allocator@U?$pair@$$CBW4eInfoType@DBINFO_MGR@@V?$basic_string@DU?$char_traits@D@std@@V?$allocator@D@2@@std@@@std@@@4@@std@@@std@@@4@$0A@@std@@@std@@IBEPAU_Node@?$_Tree_nod@V?$_Tmap_traits@W4eDatabaseType@DBINFO_MGR@@PAV?$map@W4eInfoType@DBINFO_MGR@@V?$basic_string@DU?$char_traits@D@std@@V?$allocator@D@2@@std@@U?$less@W4eInfoType@DBINFO_MGR@@@4@V?$allocator@U?$pair@$$CBW4eInfoType@DBINFO_MGR@@V?$basic_string@DU?$char_traits@D@std@@V?$allocator@D@2@@std@@@std@@@4@@std@@U?$less@W4eDatabaseType@DBINFO_MGR@@@4@V?$allocator@U?$pair@$$CBW4eDatabaseType@DBINFO_MGR@@PAV?$map@W4eInfoType@DBINFO_MGR@@V?$basic_string@DU?$char_traits@D@std@@V?$allocator@D@2@@std@@U?$less@W4eInfoType@DBINFO_MGR@@@4@V?$allocator@U?$pair@$$CBW4eInfoType@DBINFO_MGR@@V?$basic_string@DU?$char_traits@D@std@@V?$allocator@D@2@@std@@@std@@@4@@std@@@std@@@4@$0A@@std@@@2@ABW4eDatabaseType@DBINFO_MGR@@@Z 0055d810 f i LocaMgr.obj
 0002:0008a8f0       ?_Lrotate@?$_Tree@V?$_Tmap_traits@W4eDatabaseType@DBINFO_MGR@@PAV?$map@W4eInfoType@DBINFO_MGR@@V?$basic_string@DU?$char_traits@D@std@@V?$allocator@D@2@@std@@U?$less@W4eInfoType@DBINFO_MGR@@@4@V?$allocator@U?$pair@$$CBW4eInfoType@DBINFO_MGR@@V?$basic_string@DU?$char_traits@D@std@@V?$allocator@D@2@@std@@@std@@@4@@std@@U?$less@W4eDatabaseType@DBINFO_MGR@@@4@V?$allocator@U?$pair@$$CBW4eDatabaseType@DBINFO_MGR@@PAV?$map@W4eInfoType@DBINFO_MGR@@V?$basic_string@DU?$char_traits@D@std@@V?$allocator@D@2@@std@@U?$less@W4eInfoType@DBINFO_MGR@@@4@V?$allocator@U?$pair@$$CBW4eInfoType@DBINFO_MGR@@V?$basic_string@DU?$char_traits@D@std@@V?$allocator@D@2@@std@@@std@@@4@@std@@@std@@@4@$0A@@std@@@std@@IAEXPAU_Node@?$_Tree_nod@V?$_Tmap_traits@W4eDatabaseType@DBINFO_MGR@@PAV?$map@W4eInfoType@DBINFO_MGR@@V?$basic_string@DU?$char_traits@D@std@@V?$allocator@D@2@@std@@U?$less@W4eInfoType@DBINFO_MGR@@@4@V?$allocator@U?$pair@$$CBW4eInfoType@DBINFO_MGR@@V?$basic_string@DU?$char_traits@D@std@@V?$allocator@D@2@@std@@@std@@@4@@std@@U?$less@W4eDatabaseType@DBINFO_MGR@@@4@V?$allocator@U?$pair@$$CBW4eDatabaseType@DBINFO_MGR@@PAV?$map@W4eInfoType@DBINFO_MGR@@V?$basic_string@DU?$char_traits@D@std@@V?$allocator@D@2@@std@@U?$less@W4eInfoType@DBINFO_MGR@@@4@V?$allocator@U?$pair@$$CBW4eInfoType@DBINFO_MGR@@V?$basic_string@DU?$char_traits@D@std@@V?$allocator@D@2@@std@@@std@@@4@@std@@@std@@@4@$0A@@std@@@2@@Z 0055d8f0 f i LocaMgr.obj
 0002:0008aaa0       ?_Rmost@?$_Tree@V?$_Tmap_traits@W4eDatabaseType@DBINFO_MGR@@PAV?$map@W4eInfoType@DBINFO_MGR@@V?$basic_string@DU?$char_traits@D@std@@V?$allocator@D@2@@std@@U?$less@W4eInfoType@DBINFO_MGR@@@4@V?$allocator@U?$pair@$$CBW4eInfoType@DBINFO_MGR@@V?$basic_string@DU?$char_traits@D@std@@V?$allocator@D@2@@std@@@std@@@4@@std@@U?$less@W4eDatabaseType@DBINFO_MGR@@@4@V?$allocator@U?$pair@$$CBW4eDatabaseType@DBINFO_MGR@@PAV?$map@W4eInfoType@DBINFO_MGR@@V?$basic_string@DU?$char_traits@D@std@@V?$allocator@D@2@@std@@U?$less@W4eInfoType@DBINFO_MGR@@@4@V?$allocator@U?$pair@$$CBW4eInfoType@DBINFO_MGR@@V?$basic_string@DU?$char_traits@D@std@@V?$allocator@D@2@@std@@@std@@@4@@std@@@std@@@4@$0A@@std@@@std@@IAEAAPAU_Node@?$_Tree_nod@V?$_Tmap_traits@W4eDatabaseType@DBINFO_MGR@@PAV?$map@W4eInfoType@DBINFO_MGR@@V?$basic_string@DU?$char_traits@D@std@@V?$allocator@D@2@@std@@U?$less@W4eInfoType@DBINFO_MGR@@@4@V?$allocator@U?$pair@$$CBW4eInfoType@DBINFO_MGR@@V?$basic_string@DU?$char_traits@D@std@@V?$allocator@D@2@@std@@@std@@@4@@std@@U?$less@W4eDatabaseType@DBINFO_MGR@@@4@V?$allocator@U?$pair@$$CBW4eDatabaseType@DBINFO_MGR@@PAV?$map@W4eInfoType@DBINFO_MGR@@V?$basic_string@DU?$char_traits@D@std@@V?$allocator@D@2@@std@@U?$less@W4eInfoType@DBINFO_MGR@@@4@V?$allocator@U?$pair@$$CBW4eInfoType@DBINFO_MGR@@V?$basic_string@DU?$char_traits@D@std@@V?$allocator@D@2@@std@@@std@@@4@@std@@@std@@@4@$0A@@std@@@2@XZ 0055daa0 f i LocaMgr.obj
 0002:0008ab00       ?_Rrotate@?$_Tree@V?$_Tmap_traits@W4eDatabaseType@DBINFO_MGR@@PAV?$map@W4eInfoType@DBINFO_MGR@@V?$basic_string@DU?$char_traits@D@std@@V?$allocator@D@2@@std@@U?$less@W4eInfoType@DBINFO_MGR@@@4@V?$allocator@U?$pair@$$CBW4eInfoType@DBINFO_MGR@@V?$basic_string@DU?$char_traits@D@std@@V?$allocator@D@2@@std@@@std@@@4@@std@@U?$less@W4eDatabaseType@DBINFO_MGR@@@4@V?$allocator@U?$pair@$$CBW4eDatabaseType@DBINFO_MGR@@PAV?$map@W4eInfoType@DBINFO_MGR@@V?$basic_string@DU?$char_traits@D@std@@V?$allocator@D@2@@std@@U?$less@W4eInfoType@DBINFO_MGR@@@4@V?$allocator@U?$pair@$$CBW4eInfoType@DBINFO_MGR@@V?$basic_string@DU?$char_traits@D@std@@V?$allocator@D@2@@std@@@std@@@4@@std@@@std@@@4@$0A@@std@@@std@@IAEXPAU_Node@?$_Tree_nod@V?$_Tmap_traits@W4eDatabaseType@DBINFO_MGR@@PAV?$map@W4eInfoType@DBINFO_MGR@@V?$basic_string@DU?$char_traits@D@std@@V?$allocator@D@2@@std@@U?$less@W4eInfoType@DBINFO_MGR@@@4@V?$allocator@U?$pair@$$CBW4eInfoType@DBINFO_MGR@@V?$basic_string@DU?$char_traits@D@std@@V?$allocator@D@2@@std@@@std@@@4@@std@@U?$less@W4eDatabaseType@DBINFO_MGR@@@4@V?$allocator@U?$pair@$$CBW4eDatabaseType@DBINFO_MGR@@PAV?$map@W4eInfoType@DBINFO_MGR@@V?$basic_string@DU?$char_traits@D@std@@V?$allocator@D@2@@std@@U?$less@W4eInfoType@DBINFO_MGR@@@4@V?$allocator@U?$pair@$$CBW4eInfoType@DBINFO_MGR@@V?$basic_string@DU?$char_traits@D@std@@V?$allocator@D@2@@std@@@std@@@4@@std@@@std@@@4@$0A@@std@@@2@@Z 0055db00 f i LocaMgr.obj
 0002:0008acb0       ?_Buynode@?$_Tree@V?$_Tmap_traits@W4eDatabaseType@DBINFO_MGR@@PAV?$map@W4eInfoType@DBINFO_MGR@@V?$basic_string@DU?$char_traits@D@std@@V?$allocator@D@2@@std@@U?$less@W4eInfoType@DBINFO_MGR@@@4@V?$allocator@U?$pair@$$CBW4eInfoType@DBINFO_MGR@@V?$basic_string@DU?$char_traits@D@std@@V?$allocator@D@2@@std@@@std@@@4@@std@@U?$less@W4eDatabaseType@DBINFO_MGR@@@4@V?$allocator@U?$pair@$$CBW4eDatabaseType@DBINFO_MGR@@PAV?$map@W4eInfoType@DBINFO_MGR@@V?$basic_string@DU?$char_traits@D@std@@V?$allocator@D@2@@std@@U?$less@W4eInfoType@DBINFO_MGR@@@4@V?$allocator@U?$pair@$$CBW4eInfoType@DBINFO_MGR@@V?$basic_string@DU?$char_traits@D@std@@V?$allocator@D@2@@std@@@std@@@4@@std@@@std@@@4@$0A@@std@@@std@@IAEPAU_Node@?$_Tree_nod@V?$_Tmap_traits@W4eDatabaseType@DBINFO_MGR@@PAV?$map@W4eInfoType@DBINFO_MGR@@V?$basic_string@DU?$char_traits@D@std@@V?$allocator@D@2@@std@@U?$less@W4eInfoType@DBINFO_MGR@@@4@V?$allocator@U?$pair@$$CBW4eInfoType@DBINFO_MGR@@V?$basic_string@DU?$char_traits@D@std@@V?$allocator@D@2@@std@@@std@@@4@@std@@U?$less@W4eDatabaseType@DBINFO_MGR@@@4@V?$allocator@U?$pair@$$CBW4eDatabaseType@DBINFO_MGR@@PAV?$map@W4eInfoType@DBINFO_MGR@@V?$basic_string@DU?$char_traits@D@std@@V?$allocator@D@2@@std@@U?$less@W4eInfoType@DBINFO_MGR@@@4@V?$allocator@U?$pair@$$CBW4eInfoType@DBINFO_MGR@@V?$basic_string@DU?$char_traits@D@std@@V?$allocator@D@2@@std@@@std@@@4@@std@@@std@@@4@$0A@@std@@@2@PAU342@00ABU?$pair@$$CBW4eDatabaseType@DBINFO_MGR@@PAV?$map@W4eInfoType@DBINFO_MGR@@V?$basic_string@DU?$char_traits@D@std@@V?$allocator@D@2@@std@@U?$less@W4eInfoType@DBINFO_MGR@@@4@V?$allocator@U?$pair@$$CBW4eInfoType@DBINFO_MGR@@V?$basic_string@DU?$char_traits@D@std@@V?$allocator@D@2@@std@@@std@@@4@@std@@@2@D@Z 0055dcb0 f i LocaMgr.obj
 0002:0008ae10       ??0?$_Tree_val@V?$_Tmap_traits@W4eDatabaseType@DBINFO_MGR@@PAV?$map@W4eInfoType@DBINFO_MGR@@V?$basic_string@DU?$char_traits@D@std@@V?$allocator@D@2@@std@@U?$less@W4eInfoType@DBINFO_MGR@@@4@V?$allocator@U?$pair@$$CBW4eInfoType@DBINFO_MGR@@V?$basic_string@DU?$char_traits@D@std@@V?$allocator@D@2@@std@@@std@@@4@@std@@U?$less@W4eDatabaseType@DBINFO_MGR@@@4@V?$allocator@U?$pair@$$CBW4eDatabaseType@DBINFO_MGR@@PAV?$map@W4eInfoType@DBINFO_MGR@@V?$basic_string@DU?$char_traits@D@std@@V?$allocator@D@2@@std@@U?$less@W4eInfoType@DBINFO_MGR@@@4@V?$allocator@U?$pair@$$CBW4eInfoType@DBINFO_MGR@@V?$basic_string@DU?$char_traits@D@std@@V?$allocator@D@2@@std@@@std@@@4@@std@@@std@@@4@$0A@@std@@@std@@IAE@ABU?$less@W4eDatabaseType@DBINFO_MGR@@@1@V?$allocator@U?$pair@$$CBW4eDatabaseType@DBINFO_MGR@@PAV?$map@W4eInfoType@DBINFO_MGR@@V?$basic_string@DU?$char_traits@D@std@@V?$allocator@D@2@@std@@U?$less@W4eInfoType@DBINFO_MGR@@@4@V?$allocator@U?$pair@$$CBW4eInfoType@DBINFO_MGR@@V?$basic_string@DU?$char_traits@D@std@@V?$allocator@D@2@@std@@@std@@@4@@std@@@std@@@1@@Z 0055de10 f i LocaMgr.obj
 0002:0008ae90       ??0?$allocator@U?$pair@$$CBW4eDatabaseType@DBINFO_MGR@@PAV?$map@W4eInfoType@DBINFO_MGR@@V?$basic_string@DU?$char_traits@D@std@@V?$allocator@D@2@@std@@U?$less@W4eInfoType@DBINFO_MGR@@@4@V?$allocator@U?$pair@$$CBW4eInfoType@DBINFO_MGR@@V?$basic_string@DU?$char_traits@D@std@@V?$allocator@D@2@@std@@@std@@@4@@std@@@std@@@std@@QAE@ABV01@@Z 0055de90 f i LocaMgr.obj
 0002:0008aed0       ?deallocate@?$allocator@U_Node@?$_Tree_nod@V?$_Tmap_traits@W4eDatabaseType@DBINFO_MGR@@PAV?$map@W4eInfoType@DBINFO_MGR@@V?$basic_string@DU?$char_traits@D@std@@V?$allocator@D@2@@std@@U?$less@W4eInfoType@DBINFO_MGR@@@4@V?$allocator@U?$pair@$$CBW4eInfoType@DBINFO_MGR@@V?$basic_string@DU?$char_traits@D@std@@V?$allocator@D@2@@std@@@std@@@4@@std@@U?$less@W4eDatabaseType@DBINFO_MGR@@@4@V?$allocator@U?$pair@$$CBW4eDatabaseType@DBINFO_MGR@@PAV?$map@W4eInfoType@DBINFO_MGR@@V?$basic_string@DU?$char_traits@D@std@@V?$allocator@D@2@@std@@U?$less@W4eInfoType@DBINFO_MGR@@@4@V?$allocator@U?$pair@$$CBW4eInfoType@DBINFO_MGR@@V?$basic_string@DU?$char_traits@D@std@@V?$allocator@D@2@@std@@@std@@@4@@std@@@std@@@4@$0A@@std@@@std@@@std@@QAEXPAU_Node@?$_Tree_nod@V?$_Tmap_traits@W4eDatabaseType@DBINFO_MGR@@PAV?$map@W4eInfoType@DBINFO_MGR@@V?$basic_string@DU?$char_traits@D@std@@V?$allocator@D@2@@std@@U?$less@W4eInfoType@DBINFO_MGR@@@4@V?$allocator@U?$pair@$$CBW4eInfoType@DBINFO_MGR@@V?$basic_string@DU?$char_traits@D@std@@V?$allocator@D@2@@std@@@std@@@4@@std@@U?$less@W4eDatabaseType@DBINFO_MGR@@@4@V?$allocator@U?$pair@$$CBW4eDatabaseType@DBINFO_MGR@@PAV?$map@W4eInfoType@DBINFO_MGR@@V?$basic_string@DU?$char_traits@D@std@@V?$allocator@D@2@@std@@U?$less@W4eInfoType@DBINFO_MGR@@@4@V?$allocator@U?$pair@$$CBW4eInfoType@DBINFO_MGR@@V?$basic_string@DU?$char_traits@D@std@@V?$allocator@D@2@@std@@@std@@@4@@std@@@std@@@4@$0A@@std@@@2@I@Z 0055ded0 f i LocaMgr.obj
 0002:0008af30       ?destroy@?$allocator@PAU_Node@?$_Tree_nod@V?$_Tmap_traits@W4eDatabaseType@DBINFO_MGR@@PAV?$map@W4eInfoType@DBINFO_MGR@@V?$basic_string@DU?$char_traits@D@std@@V?$allocator@D@2@@std@@U?$less@W4eInfoType@DBINFO_MGR@@@4@V?$allocator@U?$pair@$$CBW4eInfoType@DBINFO_MGR@@V?$basic_string@DU?$char_traits@D@std@@V?$allocator@D@2@@std@@@std@@@4@@std@@U?$less@W4eDatabaseType@DBINFO_MGR@@@4@V?$allocator@U?$pair@$$CBW4eDatabaseType@DBINFO_MGR@@PAV?$map@W4eInfoType@DBINFO_MGR@@V?$basic_string@DU?$char_traits@D@std@@V?$allocator@D@2@@std@@U?$less@W4eInfoType@DBINFO_MGR@@@4@V?$allocator@U?$pair@$$CBW4eInfoType@DBINFO_MGR@@V?$basic_string@DU?$char_traits@D@std@@V?$allocator@D@2@@std@@@std@@@4@@std@@@std@@@4@$0A@@std@@@std@@@std@@QAEXPAPAU_Node@?$_Tree_nod@V?$_Tmap_traits@W4eDatabaseType@DBINFO_MGR@@PAV?$map@W4eInfoType@DBINFO_MGR@@V?$basic_string@DU?$char_traits@D@std@@V?$allocator@D@2@@std@@U?$less@W4eInfoType@DBINFO_MGR@@@4@V?$allocator@U?$pair@$$CBW4eInfoType@DBINFO_MGR@@V?$basic_string@DU?$char_traits@D@std@@V?$allocator@D@2@@std@@@std@@@4@@std@@U?$less@W4eDatabaseType@DBINFO_MGR@@@4@V?$allocator@U?$pair@$$CBW4eDatabaseType@DBINFO_MGR@@PAV?$map@W4eInfoType@DBINFO_MGR@@V?$basic_string@DU?$char_traits@D@std@@V?$allocator@D@2@@std@@U?$less@W4eInfoType@DBINFO_MGR@@@4@V?$allocator@U?$pair@$$CBW4eInfoType@DBINFO_MGR@@V?$basic_string@DU?$char_traits@D@std@@V?$allocator@D@2@@std@@@std@@@4@@std@@@std@@@4@$0A@@std@@@2@@Z 0055df30 f i LocaMgr.obj
 0002:0008af90       ??0const_iterator@?$_Tree@V?$_Tmap_traits@W4eDatabaseType@DBINFO_MGR@@PAV?$map@W4eInfoType@DBINFO_MGR@@V?$basic_string@DU?$char_traits@D@std@@V?$allocator@D@2@@std@@U?$less@W4eInfoType@DBINFO_MGR@@@4@V?$allocator@U?$pair@$$CBW4eInfoType@DBINFO_MGR@@V?$basic_string@DU?$char_traits@D@std@@V?$allocator@D@2@@std@@@std@@@4@@std@@U?$less@W4eDatabaseType@DBINFO_MGR@@@4@V?$allocator@U?$pair@$$CBW4eDatabaseType@DBINFO_MGR@@PAV?$map@W4eInfoType@DBINFO_MGR@@V?$basic_string@DU?$char_traits@D@std@@V?$allocator@D@2@@std@@U?$less@W4eInfoType@DBINFO_MGR@@@4@V?$allocator@U?$pair@$$CBW4eInfoType@DBINFO_MGR@@V?$basic_string@DU?$char_traits@D@std@@V?$allocator@D@2@@std@@@std@@@4@@std@@@std@@@4@$0A@@std@@@std@@QAE@PAU_Node@?$_Tree_nod@V?$_Tmap_traits@W4eDatabaseType@DBINFO_MGR@@PAV?$map@W4eInfoType@DBINFO_MGR@@V?$basic_string@DU?$char_traits@D@std@@V?$allocator@D@2@@std@@U?$less@W4eInfoType@DBINFO_MGR@@@4@V?$allocator@U?$pair@$$CBW4eInfoType@DBINFO_MGR@@V?$basic_string@DU?$char_traits@D@std@@V?$allocator@D@2@@std@@@std@@@4@@std@@U?$less@W4eDatabaseType@DBINFO_MGR@@@4@V?$allocator@U?$pair@$$CBW4eDatabaseType@DBINFO_MGR@@PAV?$map@W4eInfoType@DBINFO_MGR@@V?$basic_string@DU?$char_traits@D@std@@V?$allocator@D@2@@std@@U?$less@W4eInfoType@DBINFO_MGR@@@4@V?$allocator@U?$pair@$$CBW4eInfoType@DBINFO_MGR@@V?$basic_string@DU?$char_traits@D@std@@V?$allocator@D@2@@std@@@std@@@4@@std@@@std@@@4@$0A@@std@@@2@@Z 0055df90 f i LocaMgr.obj
 0002:0008afe0       ??Fconst_iterator@?$_Tree@V?$_Tmap_traits@W4eDatabaseType@DBINFO_MGR@@PAV?$map@W4eInfoType@DBINFO_MGR@@V?$basic_string@DU?$char_traits@D@std@@V?$allocator@D@2@@std@@U?$less@W4eInfoType@DBINFO_MGR@@@4@V?$allocator@U?$pair@$$CBW4eInfoType@DBINFO_MGR@@V?$basic_string@DU?$char_traits@D@std@@V?$allocator@D@2@@std@@@std@@@4@@std@@U?$less@W4eDatabaseType@DBINFO_MGR@@@4@V?$allocator@U?$pair@$$CBW4eDatabaseType@DBINFO_MGR@@PAV?$map@W4eInfoType@DBINFO_MGR@@V?$basic_string@DU?$char_traits@D@std@@V?$allocator@D@2@@std@@U?$less@W4eInfoType@DBINFO_MGR@@@4@V?$allocator@U?$pair@$$CBW4eInfoType@DBINFO_MGR@@V?$basic_string@DU?$char_traits@D@std@@V?$allocator@D@2@@std@@@std@@@4@@std@@@std@@@4@$0A@@std@@@std@@QAEAAV012@XZ 0055dfe0 f i LocaMgr.obj
 0002:0008b040       ?_Inc@const_iterator@?$_Tree@V?$_Tmap_traits@W4eDatabaseType@DBINFO_MGR@@PAV?$map@W4eInfoType@DBINFO_MGR@@V?$basic_string@DU?$char_traits@D@std@@V?$allocator@D@2@@std@@U?$less@W4eInfoType@DBINFO_MGR@@@4@V?$allocator@U?$pair@$$CBW4eInfoType@DBINFO_MGR@@V?$basic_string@DU?$char_traits@D@std@@V?$allocator@D@2@@std@@@std@@@4@@std@@U?$less@W4eDatabaseType@DBINFO_MGR@@@4@V?$allocator@U?$pair@$$CBW4eDatabaseType@DBINFO_MGR@@PAV?$map@W4eInfoType@DBINFO_MGR@@V?$basic_string@DU?$char_traits@D@std@@V?$allocator@D@2@@std@@U?$less@W4eInfoType@DBINFO_MGR@@@4@V?$allocator@U?$pair@$$CBW4eInfoType@DBINFO_MGR@@V?$basic_string@DU?$char_traits@D@std@@V?$allocator@D@2@@std@@@std@@@4@@std@@@std@@@4@$0A@@std@@@std@@QAEXXZ 0055e040 f i LocaMgr.obj
 0002:0008b160       ??0const_iterator@?$_Tree@V?$_Tmap_traits@W4eInfoType@DBINFO_MGR@@V?$basic_string@DU?$char_traits@D@std@@V?$allocator@D@2@@std@@U?$less@W4eInfoType@DBINFO_MGR@@@4@V?$allocator@U?$pair@$$CBW4eInfoType@DBINFO_MGR@@V?$basic_string@DU?$char_traits@D@std@@V?$allocator@D@2@@std@@@std@@@4@$0A@@std@@@std@@QAE@PAU_Node@?$_Tree_nod@V?$_Tmap_traits@W4eInfoType@DBINFO_MGR@@V?$basic_string@DU?$char_traits@D@std@@V?$allocator@D@2@@std@@U?$less@W4eInfoType@DBINFO_MGR@@@4@V?$allocator@U?$pair@$$CBW4eInfoType@DBINFO_MGR@@V?$basic_string@DU?$char_traits@D@std@@V?$allocator@D@2@@std@@@std@@@4@$0A@@std@@@2@@Z 0055e160 f i LocaMgr.obj
 0002:0008b1b0       ??Fconst_iterator@?$_Tree@V?$_Tmap_traits@W4eInfoType@DBINFO_MGR@@V?$basic_string@DU?$char_traits@D@std@@V?$allocator@D@2@@std@@U?$less@W4eInfoType@DBINFO_MGR@@@4@V?$allocator@U?$pair@$$CBW4eInfoType@DBINFO_MGR@@V?$basic_string@DU?$char_traits@D@std@@V?$allocator@D@2@@std@@@std@@@4@$0A@@std@@@std@@QAEAAV012@XZ 0055e1b0 f i LocaMgr.obj
 0002:0008b210       ?erase@?$_Tree@V?$_Tmap_traits@W4eInfoType@DBINFO_MGR@@V?$basic_string@DU?$char_traits@D@std@@V?$allocator@D@2@@std@@U?$less@W4eInfoType@DBINFO_MGR@@@4@V?$allocator@U?$pair@$$CBW4eInfoType@DBINFO_MGR@@V?$basic_string@DU?$char_traits@D@std@@V?$allocator@D@2@@std@@@std@@@4@$0A@@std@@@std@@QAE?AViterator@12@V312@@Z 0055e210 f i LocaMgr.obj
 0002:0008bc00       ?clear@?$_Tree@V?$_Tmap_traits@W4eInfoType@DBINFO_MGR@@V?$basic_string@DU?$char_traits@D@std@@V?$allocator@D@2@@std@@U?$less@W4eInfoType@DBINFO_MGR@@@4@V?$allocator@U?$pair@$$CBW4eInfoType@DBINFO_MGR@@V?$basic_string@DU?$char_traits@D@std@@V?$allocator@D@2@@std@@@std@@@4@$0A@@std@@@std@@QAEXXZ 0055ec00 f i LocaMgr.obj
 0002:0008bcb0       ?_Root@?$_Tree@V?$_Tmap_traits@W4eInfoType@DBINFO_MGR@@V?$basic_string@DU?$char_traits@D@std@@V?$allocator@D@2@@std@@U?$less@W4eInfoType@DBINFO_MGR@@@4@V?$allocator@U?$pair@$$CBW4eInfoType@DBINFO_MGR@@V?$basic_string@DU?$char_traits@D@std@@V?$allocator@D@2@@std@@@std@@@4@$0A@@std@@@std@@IBEAAPAU_Node@?$_Tree_nod@V?$_Tmap_traits@W4eInfoType@DBINFO_MGR@@V?$basic_string@DU?$char_traits@D@std@@V?$allocator@D@2@@std@@U?$less@W4eInfoType@DBINFO_MGR@@@4@V?$allocator@U?$pair@$$CBW4eInfoType@DBINFO_MGR@@V?$basic_string@DU?$char_traits@D@std@@V?$allocator@D@2@@std@@@std@@@4@$0A@@std@@@2@XZ 0055ecb0 f i LocaMgr.obj
 0002:0008bd10       ?_Buynode@?$_Tree@V?$_Tmap_traits@W4eInfoType@DBINFO_MGR@@V?$basic_string@DU?$char_traits@D@std@@V?$allocator@D@2@@std@@U?$less@W4eInfoType@DBINFO_MGR@@@4@V?$allocator@U?$pair@$$CBW4eInfoType@DBINFO_MGR@@V?$basic_string@DU?$char_traits@D@std@@V?$allocator@D@2@@std@@@std@@@4@$0A@@std@@@std@@IAEPAU_Node@?$_Tree_nod@V?$_Tmap_traits@W4eInfoType@DBINFO_MGR@@V?$basic_string@DU?$char_traits@D@std@@V?$allocator@D@2@@std@@U?$less@W4eInfoType@DBINFO_MGR@@@4@V?$allocator@U?$pair@$$CBW4eInfoType@DBINFO_MGR@@V?$basic_string@DU?$char_traits@D@std@@V?$allocator@D@2@@std@@@std@@@4@$0A@@std@@@2@XZ 0055ed10 f i LocaMgr.obj
 0002:0008bf30       ??0?$_Tree_ptr@V?$_Tmap_traits@W4eInfoType@DBINFO_MGR@@V?$basic_string@DU?$char_traits@D@std@@V?$allocator@D@2@@std@@U?$less@W4eInfoType@DBINFO_MGR@@@4@V?$allocator@U?$pair@$$CBW4eInfoType@DBINFO_MGR@@V?$basic_string@DU?$char_traits@D@std@@V?$allocator@D@2@@std@@@std@@@4@$0A@@std@@@std@@IAE@ABU?$less@W4eInfoType@DBINFO_MGR@@@1@V?$allocator@U?$pair@$$CBW4eInfoType@DBINFO_MGR@@V?$basic_string@DU?$char_traits@D@std@@V?$allocator@D@2@@std@@@std@@@1@@Z 0055ef30 f i LocaMgr.obj
 0002:0008bfb0       ?max_size@?$allocator@U?$pair@$$CBW4eInfoType@DBINFO_MGR@@V?$basic_string@DU?$char_traits@D@std@@V?$allocator@D@2@@std@@@std@@@std@@QBEIXZ 0055efb0 f i LocaMgr.obj
 0002:0008c020       ?allocate@?$allocator@U_Node@?$_Tree_nod@V?$_Tmap_traits@W4eInfoType@DBINFO_MGR@@V?$basic_string@DU?$char_traits@D@std@@V?$allocator@D@2@@std@@U?$less@W4eInfoType@DBINFO_MGR@@@4@V?$allocator@U?$pair@$$CBW4eInfoType@DBINFO_MGR@@V?$basic_string@DU?$char_traits@D@std@@V?$allocator@D@2@@std@@@std@@@4@$0A@@std@@@std@@@std@@QAEPAU_Node@?$_Tree_nod@V?$_Tmap_traits@W4eInfoType@DBINFO_MGR@@V?$basic_string@DU?$char_traits@D@std@@V?$allocator@D@2@@std@@U?$less@W4eInfoType@DBINFO_MGR@@@4@V?$allocator@U?$pair@$$CBW4eInfoType@DBINFO_MGR@@V?$basic_string@DU?$char_traits@D@std@@V?$allocator@D@2@@std@@@std@@@4@$0A@@std@@@2@I@Z 0055f020 f i LocaMgr.obj
 0002:0008c080       ?erase@?$_Tree@V?$_Tmap_traits@W4eDatabaseType@DBINFO_MGR@@PAV?$map@W4eInfoType@DBINFO_MGR@@V?$basic_string@DU?$char_traits@D@std@@V?$allocator@D@2@@std@@U?$less@W4eInfoType@DBINFO_MGR@@@4@V?$allocator@U?$pair@$$CBW4eInfoType@DBINFO_MGR@@V?$basic_string@DU?$char_traits@D@std@@V?$allocator@D@2@@std@@@std@@@4@@std@@U?$less@W4eDatabaseType@DBINFO_MGR@@@4@V?$allocator@U?$pair@$$CBW4eDatabaseType@DBINFO_MGR@@PAV?$map@W4eInfoType@DBINFO_MGR@@V?$basic_string@DU?$char_traits@D@std@@V?$allocator@D@2@@std@@U?$less@W4eInfoType@DBINFO_MGR@@@4@V?$allocator@U?$pair@$$CBW4eInfoType@DBINFO_MGR@@V?$basic_string@DU?$char_traits@D@std@@V?$allocator@D@2@@std@@@std@@@4@@std@@@std@@@4@$0A@@std@@@std@@QAE?AViterator@12@V312@@Z 0055f080 f i LocaMgr.obj
 0002:0008ca70       ?clear@?$_Tree@V?$_Tmap_traits@W4eDatabaseType@DBINFO_MGR@@PAV?$map@W4eInfoType@DBINFO_MGR@@V?$basic_string@DU?$char_traits@D@std@@V?$allocator@D@2@@std@@U?$less@W4eInfoType@DBINFO_MGR@@@4@V?$allocator@U?$pair@$$CBW4eInfoType@DBINFO_MGR@@V?$basic_string@DU?$char_traits@D@std@@V?$allocator@D@2@@std@@@std@@@4@@std@@U?$less@W4eDatabaseType@DBINFO_MGR@@@4@V?$allocator@U?$pair@$$CBW4eDatabaseType@DBINFO_MGR@@PAV?$map@W4eInfoType@DBINFO_MGR@@V?$basic_string@DU?$char_traits@D@std@@V?$allocator@D@2@@std@@U?$less@W4eInfoType@DBINFO_MGR@@@4@V?$allocator@U?$pair@$$CBW4eInfoType@DBINFO_MGR@@V?$basic_string@DU?$char_traits@D@std@@V?$allocator@D@2@@std@@@std@@@4@@std@@@std@@@4@$0A@@std@@@std@@QAEXXZ 0055fa70 f i LocaMgr.obj
 0002:0008cb20       ?_Min@?$_Tree@V?$_Tmap_traits@W4eDatabaseType@DBINFO_MGR@@PAV?$map@W4eInfoType@DBINFO_MGR@@V?$basic_string@DU?$char_traits@D@std@@V?$allocator@D@2@@std@@U?$less@W4eInfoType@DBINFO_MGR@@@4@V?$allocator@U?$pair@$$CBW4eInfoType@DBINFO_MGR@@V?$basic_string@DU?$char_traits@D@std@@V?$allocator@D@2@@std@@@std@@@4@@std@@U?$less@W4eDatabaseType@DBINFO_MGR@@@4@V?$allocator@U?$pair@$$CBW4eDatabaseType@DBINFO_MGR@@PAV?$map@W4eInfoType@DBINFO_MGR@@V?$basic_string@DU?$char_traits@D@std@@V?$allocator@D@2@@std@@U?$less@W4eInfoType@DBINFO_MGR@@@4@V?$allocator@U?$pair@$$CBW4eInfoType@DBINFO_MGR@@V?$basic_string@DU?$char_traits@D@std@@V?$allocator@D@2@@std@@@std@@@4@@std@@@std@@@4@$0A@@std@@@std@@KAPAU_Node@?$_Tree_nod@V?$_Tmap_traits@W4eDatabaseType@DBINFO_MGR@@PAV?$map@W4eInfoType@DBINFO_MGR@@V?$basic_string@DU?$char_traits@D@std@@V?$allocator@D@2@@std@@U?$less@W4eInfoType@DBINFO_MGR@@@4@V?$allocator@U?$pair@$$CBW4eInfoType@DBINFO_MGR@@V?$basic_string@DU?$char_traits@D@std@@V?$allocator@D@2@@std@@@std@@@4@@std@@U?$less@W4eDatabaseType@DBINFO_MGR@@@4@V?$allocator@U?$pair@$$CBW4eDatabaseType@DBINFO_MGR@@PAV?$map@W4eInfoType@DBINFO_MGR@@V?$basic_string@DU?$char_traits@D@std@@V?$allocator@D@2@@std@@U?$less@W4eInfoType@DBINFO_MGR@@@4@V?$allocator@U?$pair@$$CBW4eInfoType@DBINFO_MGR@@V?$basic_string@DU?$char_traits@D@std@@V?$allocator@D@2@@std@@@std@@@4@@std@@@std@@@4@$0A@@std@@@2@PAU342@@Z 0055fb20 f i LocaMgr.obj
 0002:0008cba0       ?_Root@?$_Tree@V?$_Tmap_traits@W4eDatabaseType@DBINFO_MGR@@PAV?$map@W4eInfoType@DBINFO_MGR@@V?$basic_string@DU?$char_traits@D@std@@V?$allocator@D@2@@std@@U?$less@W4eInfoType@DBINFO_MGR@@@4@V?$allocator@U?$pair@$$CBW4eInfoType@DBINFO_MGR@@V?$basic_string@DU?$char_traits@D@std@@V?$allocator@D@2@@std@@@std@@@4@@std@@U?$less@W4eDatabaseType@DBINFO_MGR@@@4@V?$allocator@U?$pair@$$CBW4eDatabaseType@DBINFO_MGR@@PAV?$map@W4eInfoType@DBINFO_MGR@@V?$basic_string@DU?$char_traits@D@std@@V?$allocator@D@2@@std@@U?$less@W4eInfoType@DBINFO_MGR@@@4@V?$allocator@U?$pair@$$CBW4eInfoType@DBINFO_MGR@@V?$basic_string@DU?$char_traits@D@std@@V?$allocator@D@2@@std@@@std@@@4@@std@@@std@@@4@$0A@@std@@@std@@IBEAAPAU_Node@?$_Tree_nod@V?$_Tmap_traits@W4eDatabaseType@DBINFO_MGR@@PAV?$map@W4eInfoType@DBINFO_MGR@@V?$basic_string@DU?$char_traits@D@std@@V?$allocator@D@2@@std@@U?$less@W4eInfoType@DBINFO_MGR@@@4@V?$allocator@U?$pair@$$CBW4eInfoType@DBINFO_MGR@@V?$basic_string@DU?$char_traits@D@std@@V?$allocator@D@2@@std@@@std@@@4@@std@@U?$less@W4eDatabaseType@DBINFO_MGR@@@4@V?$allocator@U?$pair@$$CBW4eDatabaseType@DBINFO_MGR@@PAV?$map@W4eInfoType@DBINFO_MGR@@V?$basic_string@DU?$char_traits@D@std@@V?$allocator@D@2@@std@@U?$less@W4eInfoType@DBINFO_MGR@@@4@V?$allocator@U?$pair@$$CBW4eInfoType@DBINFO_MGR@@V?$basic_string@DU?$char_traits@D@std@@V?$allocator@D@2@@std@@@std@@@4@@std@@@std@@@4@$0A@@std@@@2@XZ 0055fba0 f i LocaMgr.obj
 0002:0008cc00       ?_Buynode@?$_Tree@V?$_Tmap_traits@W4eDatabaseType@DBINFO_MGR@@PAV?$map@W4eInfoType@DBINFO_MGR@@V?$basic_string@DU?$char_traits@D@std@@V?$allocator@D@2@@std@@U?$less@W4eInfoType@DBINFO_MGR@@@4@V?$allocator@U?$pair@$$CBW4eInfoType@DBINFO_MGR@@V?$basic_string@DU?$char_traits@D@std@@V?$allocator@D@2@@std@@@std@@@4@@std@@U?$less@W4eDatabaseType@DBINFO_MGR@@@4@V?$allocator@U?$pair@$$CBW4eDatabaseType@DBINFO_MGR@@PAV?$map@W4eInfoType@DBINFO_MGR@@V?$basic_string@DU?$char_traits@D@std@@V?$allocator@D@2@@std@@U?$less@W4eInfoType@DBINFO_MGR@@@4@V?$allocator@U?$pair@$$CBW4eInfoType@DBINFO_MGR@@V?$basic_string@DU?$char_traits@D@std@@V?$allocator@D@2@@std@@@std@@@4@@std@@@std@@@4@$0A@@std@@@std@@IAEPAU_Node@?$_Tree_nod@V?$_Tmap_traits@W4eDatabaseType@DBINFO_MGR@@PAV?$map@W4eInfoType@DBINFO_MGR@@V?$basic_string@DU?$char_traits@D@std@@V?$allocator@D@2@@std@@U?$less@W4eInfoType@DBINFO_MGR@@@4@V?$allocator@U?$pair@$$CBW4eInfoType@DBINFO_MGR@@V?$basic_string@DU?$char_traits@D@std@@V?$allocator@D@2@@std@@@std@@@4@@std@@U?$less@W4eDatabaseType@DBINFO_MGR@@@4@V?$allocator@U?$pair@$$CBW4eDatabaseType@DBINFO_MGR@@PAV?$map@W4eInfoType@DBINFO_MGR@@V?$basic_string@DU?$char_traits@D@std@@V?$allocator@D@2@@std@@U?$less@W4eInfoType@DBINFO_MGR@@@4@V?$allocator@U?$pair@$$CBW4eInfoType@DBINFO_MGR@@V?$basic_string@DU?$char_traits@D@std@@V?$allocator@D@2@@std@@@std@@@4@@std@@@std@@@4@$0A@@std@@@2@XZ 0055fc00 f i LocaMgr.obj
 0002:0008ce20       ??0?$_Tree_ptr@V?$_Tmap_traits@W4eDatabaseType@DBINFO_MGR@@PAV?$map@W4eInfoType@DBINFO_MGR@@V?$basic_string@DU?$char_traits@D@std@@V?$allocator@D@2@@std@@U?$less@W4eInfoType@DBINFO_MGR@@@4@V?$allocator@U?$pair@$$CBW4eInfoType@DBINFO_MGR@@V?$basic_string@DU?$char_traits@D@std@@V?$allocator@D@2@@std@@@std@@@4@@std@@U?$less@W4eDatabaseType@DBINFO_MGR@@@4@V?$allocator@U?$pair@$$CBW4eDatabaseType@DBINFO_MGR@@PAV?$map@W4eInfoType@DBINFO_MGR@@V?$basic_string@DU?$char_traits@D@std@@V?$allocator@D@2@@std@@U?$less@W4eInfoType@DBINFO_MGR@@@4@V?$allocator@U?$pair@$$CBW4eInfoType@DBINFO_MGR@@V?$basic_string@DU?$char_traits@D@std@@V?$allocator@D@2@@std@@@std@@@4@@std@@@std@@@4@$0A@@std@@@std@@IAE@ABU?$less@W4eDatabaseType@DBINFO_MGR@@@1@V?$allocator@U?$pair@$$CBW4eDatabaseType@DBINFO_MGR@@PAV?$map@W4eInfoType@DBINFO_MGR@@V?$basic_string@DU?$char_traits@D@std@@V?$allocator@D@2@@std@@U?$less@W4eInfoType@DBINFO_MGR@@@4@V?$allocator@U?$pair@$$CBW4eInfoType@DBINFO_MGR@@V?$basic_string@DU?$char_traits@D@std@@V?$allocator@D@2@@std@@@std@@@4@@std@@@std@@@1@@Z 0055fe20 f i LocaMgr.obj
 0002:0008cea0       ?max_size@?$allocator@U?$pair@$$CBW4eDatabaseType@DBINFO_MGR@@PAV?$map@W4eInfoType@DBINFO_MGR@@V?$basic_string@DU?$char_traits@D@std@@V?$allocator@D@2@@std@@U?$less@W4eInfoType@DBINFO_MGR@@@4@V?$allocator@U?$pair@$$CBW4eInfoType@DBINFO_MGR@@V?$basic_string@DU?$char_traits@D@std@@V?$allocator@D@2@@std@@@std@@@4@@std@@@std@@@std@@QBEIXZ 0055fea0 f i LocaMgr.obj
 0002:0008cf10       ?allocate@?$allocator@U_Node@?$_Tree_nod@V?$_Tmap_traits@W4eDatabaseType@DBINFO_MGR@@PAV?$map@W4eInfoType@DBINFO_MGR@@V?$basic_string@DU?$char_traits@D@std@@V?$allocator@D@2@@std@@U?$less@W4eInfoType@DBINFO_MGR@@@4@V?$allocator@U?$pair@$$CBW4eInfoType@DBINFO_MGR@@V?$basic_string@DU?$char_traits@D@std@@V?$allocator@D@2@@std@@@std@@@4@@std@@U?$less@W4eDatabaseType@DBINFO_MGR@@@4@V?$allocator@U?$pair@$$CBW4eDatabaseType@DBINFO_MGR@@PAV?$map@W4eInfoType@DBINFO_MGR@@V?$basic_string@DU?$char_traits@D@std@@V?$allocator@D@2@@std@@U?$less@W4eInfoType@DBINFO_MGR@@@4@V?$allocator@U?$pair@$$CBW4eInfoType@DBINFO_MGR@@V?$basic_string@DU?$char_traits@D@std@@V?$allocator@D@2@@std@@@std@@@4@@std@@@std@@@4@$0A@@std@@@std@@@std@@QAEPAU_Node@?$_Tree_nod@V?$_Tmap_traits@W4eDatabaseType@DBINFO_MGR@@PAV?$map@W4eInfoType@DBINFO_MGR@@V?$basic_string@DU?$char_traits@D@std@@V?$allocator@D@2@@std@@U?$less@W4eInfoType@DBINFO_MGR@@@4@V?$allocator@U?$pair@$$CBW4eInfoType@DBINFO_MGR@@V?$basic_string@DU?$char_traits@D@std@@V?$allocator@D@2@@std@@@std@@@4@@std@@U?$less@W4eDatabaseType@DBINFO_MGR@@@4@V?$allocator@U?$pair@$$CBW4eDatabaseType@DBINFO_MGR@@PAV?$map@W4eInfoType@DBINFO_MGR@@V?$basic_string@DU?$char_traits@D@std@@V?$allocator@D@2@@std@@U?$less@W4eInfoType@DBINFO_MGR@@@4@V?$allocator@U?$pair@$$CBW4eInfoType@DBINFO_MGR@@V?$basic_string@DU?$char_traits@D@std@@V?$allocator@D@2@@std@@@std@@@4@@std@@@std@@@4@$0A@@std@@@2@I@Z 0055ff10 f i LocaMgr.obj
 0002:0008cf70       ??Eiterator@?$_Tree@V?$_Tmap_traits@W4eDatabaseType@DBINFO_MGR@@PAV?$map@W4eInfoType@DBINFO_MGR@@V?$basic_string@DU?$char_traits@D@std@@V?$allocator@D@2@@std@@U?$less@W4eInfoType@DBINFO_MGR@@@4@V?$allocator@U?$pair@$$CBW4eInfoType@DBINFO_MGR@@V?$basic_string@DU?$char_traits@D@std@@V?$allocator@D@2@@std@@@std@@@4@@std@@U?$less@W4eDatabaseType@DBINFO_MGR@@@4@V?$allocator@U?$pair@$$CBW4eDatabaseType@DBINFO_MGR@@PAV?$map@W4eInfoType@DBINFO_MGR@@V?$basic_string@DU?$char_traits@D@std@@V?$allocator@D@2@@std@@U?$less@W4eInfoType@DBINFO_MGR@@@4@V?$allocator@U?$pair@$$CBW4eInfoType@DBINFO_MGR@@V?$basic_string@DU?$char_traits@D@std@@V?$allocator@D@2@@std@@@std@@@4@@std@@@std@@@4@$0A@@std@@@std@@QAE?AV012@H@Z 0055ff70 f i LocaMgr.obj
 0002:0008d010       ?_Dec@const_iterator@?$_Tree@V?$_Tmap_traits@W4eDatabaseType@DBINFO_MGR@@PAV?$map@W4eInfoType@DBINFO_MGR@@V?$basic_string@DU?$char_traits@D@std@@V?$allocator@D@2@@std@@U?$less@W4eInfoType@DBINFO_MGR@@@4@V?$allocator@U?$pair@$$CBW4eInfoType@DBINFO_MGR@@V?$basic_string@DU?$char_traits@D@std@@V?$allocator@D@2@@std@@@std@@@4@@std@@U?$less@W4eDatabaseType@DBINFO_MGR@@@4@V?$allocator@U?$pair@$$CBW4eDatabaseType@DBINFO_MGR@@PAV?$map@W4eInfoType@DBINFO_MGR@@V?$basic_string@DU?$char_traits@D@std@@V?$allocator@D@2@@std@@U?$less@W4eInfoType@DBINFO_MGR@@@4@V?$allocator@U?$pair@$$CBW4eInfoType@DBINFO_MGR@@V?$basic_string@DU?$char_traits@D@std@@V?$allocator@D@2@@std@@@std@@@4@@std@@@std@@@4@$0A@@std@@@std@@QAEXXZ 00560010 f i LocaMgr.obj
 0002:0008d160       ??Eiterator@?$_Tree@V?$_Tmap_traits@W4eInfoType@DBINFO_MGR@@V?$basic_string@DU?$char_traits@D@std@@V?$allocator@D@2@@std@@U?$less@W4eInfoType@DBINFO_MGR@@@4@V?$allocator@U?$pair@$$CBW4eInfoType@DBINFO_MGR@@V?$basic_string@DU?$char_traits@D@std@@V?$allocator@D@2@@std@@@std@@@4@$0A@@std@@@std@@QAE?AV012@H@Z 00560160 f i LocaMgr.obj
 0002:0008d200       ?_Dec@const_iterator@?$_Tree@V?$_Tmap_traits@W4eInfoType@DBINFO_MGR@@V?$basic_string@DU?$char_traits@D@std@@V?$allocator@D@2@@std@@U?$less@W4eInfoType@DBINFO_MGR@@@4@V?$allocator@U?$pair@$$CBW4eInfoType@DBINFO_MGR@@V?$basic_string@DU?$char_traits@D@std@@V?$allocator@D@2@@std@@@std@@@4@$0A@@std@@@std@@QAEXXZ 00560200 f i LocaMgr.obj
 0002:0008d350       ??0_Node@?$_Tree_nod@V?$_Tmap_traits@W4eInfoType@DBINFO_MGR@@V?$basic_string@DU?$char_traits@D@std@@V?$allocator@D@2@@std@@U?$less@W4eInfoType@DBINFO_MGR@@@4@V?$allocator@U?$pair@$$CBW4eInfoType@DBINFO_MGR@@V?$basic_string@DU?$char_traits@D@std@@V?$allocator@D@2@@std@@@std@@@4@$0A@@std@@@std@@QAE@PAU012@00ABU?$pair@$$CBW4eInfoType@DBINFO_MGR@@V?$basic_string@DU?$char_traits@D@std@@V?$allocator@D@2@@std@@@2@D@Z 00560350 f i LocaMgr.obj
 0002:0008d3f0       ??0_Node@?$_Tree_nod@V?$_Tmap_traits@W4eDatabaseType@DBINFO_MGR@@PAV?$map@W4eInfoType@DBINFO_MGR@@V?$basic_string@DU?$char_traits@D@std@@V?$allocator@D@2@@std@@U?$less@W4eInfoType@DBINFO_MGR@@@4@V?$allocator@U?$pair@$$CBW4eInfoType@DBINFO_MGR@@V?$basic_string@DU?$char_traits@D@std@@V?$allocator@D@2@@std@@@std@@@4@@std@@U?$less@W4eDatabaseType@DBINFO_MGR@@@4@V?$allocator@U?$pair@$$CBW4eDatabaseType@DBINFO_MGR@@PAV?$map@W4eInfoType@DBINFO_MGR@@V?$basic_string@DU?$char_traits@D@std@@V?$allocator@D@2@@std@@U?$less@W4eInfoType@DBINFO_MGR@@@4@V?$allocator@U?$pair@$$CBW4eInfoType@DBINFO_MGR@@V?$basic_string@DU?$char_traits@D@std@@V?$allocator@D@2@@std@@@std@@@4@@std@@@std@@@4@$0A@@std@@@std@@QAE@PAU012@00ABU?$pair@$$CBW4eDatabaseType@DBINFO_MGR@@PAV?$map@W4eInfoType@DBINFO_MGR@@V?$basic_string@DU?$char_traits@D@std@@V?$allocator@D@2@@std@@U?$less@W4eInfoType@DBINFO_MGR@@@4@V?$allocator@U?$pair@$$CBW4eInfoType@DBINFO_MGR@@V?$basic_string@DU?$char_traits@D@std@@V?$allocator@D@2@@std@@@std@@@4@@std@@@2@D@Z 005603f0 f i LocaMgr.obj
 0002:0008d480       ??0?$pair@$$CBW4eInfoType@DBINFO_MGR@@V?$basic_string@DU?$char_traits@D@std@@V?$allocator@D@2@@std@@@std@@QAE@ABU01@@Z 00560480 f i LocaMgr.obj
 0002:0008d4f0       ?_Erase@?$_Tree@V?$_Tmap_traits@W4eInfoType@DBINFO_MGR@@V?$basic_string@DU?$char_traits@D@std@@V?$allocator@D@2@@std@@U?$less@W4eInfoType@DBINFO_MGR@@@4@V?$allocator@U?$pair@$$CBW4eInfoType@DBINFO_MGR@@V?$basic_string@DU?$char_traits@D@std@@V?$allocator@D@2@@std@@@std@@@4@$0A@@std@@@std@@IAEXPAU_Node@?$_Tree_nod@V?$_Tmap_traits@W4eInfoType@DBINFO_MGR@@V?$basic_string@DU?$char_traits@D@std@@V?$allocator@D@2@@std@@U?$less@W4eInfoType@DBINFO_MGR@@@4@V?$allocator@U?$pair@$$CBW4eInfoType@DBINFO_MGR@@V?$basic_string@DU?$char_traits@D@std@@V?$allocator@D@2@@std@@@std@@@4@$0A@@std@@@2@@Z 005604f0 f i LocaMgr.obj
 0002:0008d5c0       ?_Max@?$_Tree@V?$_Tmap_traits@W4eInfoType@DBINFO_MGR@@V?$basic_string@DU?$char_traits@D@std@@V?$allocator@D@2@@std@@U?$less@W4eInfoType@DBINFO_MGR@@@4@V?$allocator@U?$pair@$$CBW4eInfoType@DBINFO_MGR@@V?$basic_string@DU?$char_traits@D@std@@V?$allocator@D@2@@std@@@std@@@4@$0A@@std@@@std@@KAPAU_Node@?$_Tree_nod@V?$_Tmap_traits@W4eInfoType@DBINFO_MGR@@V?$basic_string@DU?$char_traits@D@std@@V?$allocator@D@2@@std@@U?$less@W4eInfoType@DBINFO_MGR@@@4@V?$allocator@U?$pair@$$CBW4eInfoType@DBINFO_MGR@@V?$basic_string@DU?$char_traits@D@std@@V?$allocator@D@2@@std@@@std@@@4@$0A@@std@@@2@PAU342@@Z 005605c0 f i LocaMgr.obj
 0002:0008d640       ?_Min@?$_Tree@V?$_Tmap_traits@W4eInfoType@DBINFO_MGR@@V?$basic_string@DU?$char_traits@D@std@@V?$allocator@D@2@@std@@U?$less@W4eInfoType@DBINFO_MGR@@@4@V?$allocator@U?$pair@$$CBW4eInfoType@DBINFO_MGR@@V?$basic_string@DU?$char_traits@D@std@@V?$allocator@D@2@@std@@@std@@@4@$0A@@std@@@std@@KAPAU_Node@?$_Tree_nod@V?$_Tmap_traits@W4eInfoType@DBINFO_MGR@@V?$basic_string@DU?$char_traits@D@std@@V?$allocator@D@2@@std@@U?$less@W4eInfoType@DBINFO_MGR@@@4@V?$allocator@U?$pair@$$CBW4eInfoType@DBINFO_MGR@@V?$basic_string@DU?$char_traits@D@std@@V?$allocator@D@2@@std@@@std@@@4@$0A@@std@@@2@PAU342@@Z 00560640 f i LocaMgr.obj
 0002:0008d6c0       ??0?$_Tree_nod@V?$_Tmap_traits@W4eInfoType@DBINFO_MGR@@V?$basic_string@DU?$char_traits@D@std@@V?$allocator@D@2@@std@@U?$less@W4eInfoType@DBINFO_MGR@@@4@V?$allocator@U?$pair@$$CBW4eInfoType@DBINFO_MGR@@V?$basic_string@DU?$char_traits@D@std@@V?$allocator@D@2@@std@@@std@@@4@$0A@@std@@@std@@IAE@ABU?$less@W4eInfoType@DBINFO_MGR@@@1@V?$allocator@U?$pair@$$CBW4eInfoType@DBINFO_MGR@@V?$basic_string@DU?$char_traits@D@std@@V?$allocator@D@2@@std@@@std@@@1@@Z 005606c0 f i LocaMgr.obj
 0002:0008d730       ?destroy@?$allocator@U_Node@?$_Tree_nod@V?$_Tmap_traits@W4eInfoType@DBINFO_MGR@@V?$basic_string@DU?$char_traits@D@std@@V?$allocator@D@2@@std@@U?$less@W4eInfoType@DBINFO_MGR@@@4@V?$allocator@U?$pair@$$CBW4eInfoType@DBINFO_MGR@@V?$basic_string@DU?$char_traits@D@std@@V?$allocator@D@2@@std@@@std@@@4@$0A@@std@@@std@@@std@@QAEXPAU_Node@?$_Tree_nod@V?$_Tmap_traits@W4eInfoType@DBINFO_MGR@@V?$basic_string@DU?$char_traits@D@std@@V?$allocator@D@2@@std@@U?$less@W4eInfoType@DBINFO_MGR@@@4@V?$allocator@U?$pair@$$CBW4eInfoType@DBINFO_MGR@@V?$basic_string@DU?$char_traits@D@std@@V?$allocator@D@2@@std@@@std@@@4@$0A@@std@@@2@@Z 00560730 f i LocaMgr.obj
 0002:0008d790       ?construct@?$allocator@PAU_Node@?$_Tree_nod@V?$_Tmap_traits@W4eInfoType@DBINFO_MGR@@V?$basic_string@DU?$char_traits@D@std@@V?$allocator@D@2@@std@@U?$less@W4eInfoType@DBINFO_MGR@@@4@V?$allocator@U?$pair@$$CBW4eInfoType@DBINFO_MGR@@V?$basic_string@DU?$char_traits@D@std@@V?$allocator@D@2@@std@@@std@@@4@$0A@@std@@@std@@@std@@QAEXPAPAU_Node@?$_Tree_nod@V?$_Tmap_traits@W4eInfoType@DBINFO_MGR@@V?$basic_string@DU?$char_traits@D@std@@V?$allocator@D@2@@std@@U?$less@W4eInfoType@DBINFO_MGR@@@4@V?$allocator@U?$pair@$$CBW4eInfoType@DBINFO_MGR@@V?$basic_string@DU?$char_traits@D@std@@V?$allocator@D@2@@std@@@std@@@4@$0A@@std@@@2@ABQAU342@@Z 00560790 f i LocaMgr.obj
 0002:0008d7f0       ?_Erase@?$_Tree@V?$_Tmap_traits@W4eDatabaseType@DBINFO_MGR@@PAV?$map@W4eInfoType@DBINFO_MGR@@V?$basic_string@DU?$char_traits@D@std@@V?$allocator@D@2@@std@@U?$less@W4eInfoType@DBINFO_MGR@@@4@V?$allocator@U?$pair@$$CBW4eInfoType@DBINFO_MGR@@V?$basic_string@DU?$char_traits@D@std@@V?$allocator@D@2@@std@@@std@@@4@@std@@U?$less@W4eDatabaseType@DBINFO_MGR@@@4@V?$allocator@U?$pair@$$CBW4eDatabaseType@DBINFO_MGR@@PAV?$map@W4eInfoType@DBINFO_MGR@@V?$basic_string@DU?$char_traits@D@std@@V?$allocator@D@2@@std@@U?$less@W4eInfoType@DBINFO_MGR@@@4@V?$allocator@U?$pair@$$CBW4eInfoType@DBINFO_MGR@@V?$basic_string@DU?$char_traits@D@std@@V?$allocator@D@2@@std@@@std@@@4@@std@@@std@@@4@$0A@@std@@@std@@IAEXPAU_Node@?$_Tree_nod@V?$_Tmap_traits@W4eDatabaseType@DBINFO_MGR@@PAV?$map@W4eInfoType@DBINFO_MGR@@V?$basic_string@DU?$char_traits@D@std@@V?$allocator@D@2@@std@@U?$less@W4eInfoType@DBINFO_MGR@@@4@V?$allocator@U?$pair@$$CBW4eInfoType@DBINFO_MGR@@V?$basic_string@DU?$char_traits@D@std@@V?$allocator@D@2@@std@@@std@@@4@@std@@U?$less@W4eDatabaseType@DBINFO_MGR@@@4@V?$allocator@U?$pair@$$CBW4eDatabaseType@DBINFO_MGR@@PAV?$map@W4eInfoType@DBINFO_MGR@@V?$basic_string@DU?$char_traits@D@std@@V?$allocator@D@2@@std@@U?$less@W4eInfoType@DBINFO_MGR@@@4@V?$allocator@U?$pair@$$CBW4eInfoType@DBINFO_MGR@@V?$basic_string@DU?$char_traits@D@std@@V?$allocator@D@2@@std@@@std@@@4@@std@@@std@@@4@$0A@@std@@@2@@Z 005607f0 f i LocaMgr.obj
 0002:0008d8c0       ?_Max@?$_Tree@V?$_Tmap_traits@W4eDatabaseType@DBINFO_MGR@@PAV?$map@W4eInfoType@DBINFO_MGR@@V?$basic_string@DU?$char_traits@D@std@@V?$allocator@D@2@@std@@U?$less@W4eInfoType@DBINFO_MGR@@@4@V?$allocator@U?$pair@$$CBW4eInfoType@DBINFO_MGR@@V?$basic_string@DU?$char_traits@D@std@@V?$allocator@D@2@@std@@@std@@@4@@std@@U?$less@W4eDatabaseType@DBINFO_MGR@@@4@V?$allocator@U?$pair@$$CBW4eDatabaseType@DBINFO_MGR@@PAV?$map@W4eInfoType@DBINFO_MGR@@V?$basic_string@DU?$char_traits@D@std@@V?$allocator@D@2@@std@@U?$less@W4eInfoType@DBINFO_MGR@@@4@V?$allocator@U?$pair@$$CBW4eInfoType@DBINFO_MGR@@V?$basic_string@DU?$char_traits@D@std@@V?$allocator@D@2@@std@@@std@@@4@@std@@@std@@@4@$0A@@std@@@std@@KAPAU_Node@?$_Tree_nod@V?$_Tmap_traits@W4eDatabaseType@DBINFO_MGR@@PAV?$map@W4eInfoType@DBINFO_MGR@@V?$basic_string@DU?$char_traits@D@std@@V?$allocator@D@2@@std@@U?$less@W4eInfoType@DBINFO_MGR@@@4@V?$allocator@U?$pair@$$CBW4eInfoType@DBINFO_MGR@@V?$basic_string@DU?$char_traits@D@std@@V?$allocator@D@2@@std@@@std@@@4@@std@@U?$less@W4eDatabaseType@DBINFO_MGR@@@4@V?$allocator@U?$pair@$$CBW4eDatabaseType@DBINFO_MGR@@PAV?$map@W4eInfoType@DBINFO_MGR@@V?$basic_string@DU?$char_traits@D@std@@V?$allocator@D@2@@std@@U?$less@W4eInfoType@DBINFO_MGR@@@4@V?$allocator@U?$pair@$$CBW4eInfoType@DBINFO_MGR@@V?$basic_string@DU?$char_traits@D@std@@V?$allocator@D@2@@std@@@std@@@4@@std@@@std@@@4@$0A@@std@@@2@PAU342@@Z 005608c0 f i LocaMgr.obj
 0002:0008d940       ??0?$_Tree_nod@V?$_Tmap_traits@W4eDatabaseType@DBINFO_MGR@@PAV?$map@W4eInfoType@DBINFO_MGR@@V?$basic_string@DU?$char_traits@D@std@@V?$allocator@D@2@@std@@U?$less@W4eInfoType@DBINFO_MGR@@@4@V?$allocator@U?$pair@$$CBW4eInfoType@DBINFO_MGR@@V?$basic_string@DU?$char_traits@D@std@@V?$allocator@D@2@@std@@@std@@@4@@std@@U?$less@W4eDatabaseType@DBINFO_MGR@@@4@V?$allocator@U?$pair@$$CBW4eDatabaseType@DBINFO_MGR@@PAV?$map@W4eInfoType@DBINFO_MGR@@V?$basic_string@DU?$char_traits@D@std@@V?$allocator@D@2@@std@@U?$less@W4eInfoType@DBINFO_MGR@@@4@V?$allocator@U?$pair@$$CBW4eInfoType@DBINFO_MGR@@V?$basic_string@DU?$char_traits@D@std@@V?$allocator@D@2@@std@@@std@@@4@@std@@@std@@@4@$0A@@std@@@std@@IAE@ABU?$less@W4eDatabaseType@DBINFO_MGR@@@1@V?$allocator@U?$pair@$$CBW4eDatabaseType@DBINFO_MGR@@PAV?$map@W4eInfoType@DBINFO_MGR@@V?$basic_string@DU?$char_traits@D@std@@V?$allocator@D@2@@std@@U?$less@W4eInfoType@DBINFO_MGR@@@4@V?$allocator@U?$pair@$$CBW4eInfoType@DBINFO_MGR@@V?$basic_string@DU?$char_traits@D@std@@V?$allocator@D@2@@std@@@std@@@4@@std@@@std@@@1@@Z 00560940 f i LocaMgr.obj
 0002:0008d9b0       ?destroy@?$allocator@U_Node@?$_Tree_nod@V?$_Tmap_traits@W4eDatabaseType@DBINFO_MGR@@PAV?$map@W4eInfoType@DBINFO_MGR@@V?$basic_string@DU?$char_traits@D@std@@V?$allocator@D@2@@std@@U?$less@W4eInfoType@DBINFO_MGR@@@4@V?$allocator@U?$pair@$$CBW4eInfoType@DBINFO_MGR@@V?$basic_string@DU?$char_traits@D@std@@V?$allocator@D@2@@std@@@std@@@4@@std@@U?$less@W4eDatabaseType@DBINFO_MGR@@@4@V?$allocator@U?$pair@$$CBW4eDatabaseType@DBINFO_MGR@@PAV?$map@W4eInfoType@DBINFO_MGR@@V?$basic_string@DU?$char_traits@D@std@@V?$allocator@D@2@@std@@U?$less@W4eInfoType@DBINFO_MGR@@@4@V?$allocator@U?$pair@$$CBW4eInfoType@DBINFO_MGR@@V?$basic_string@DU?$char_traits@D@std@@V?$allocator@D@2@@std@@@std@@@4@@std@@@std@@@4@$0A@@std@@@std@@@std@@QAEXPAU_Node@?$_Tree_nod@V?$_Tmap_traits@W4eDatabaseType@DBINFO_MGR@@PAV?$map@W4eInfoType@DBINFO_MGR@@V?$basic_string@DU?$char_traits@D@std@@V?$allocator@D@2@@std@@U?$less@W4eInfoType@DBINFO_MGR@@@4@V?$allocator@U?$pair@$$CBW4eInfoType@DBINFO_MGR@@V?$basic_string@DU?$char_traits@D@std@@V?$allocator@D@2@@std@@@std@@@4@@std@@U?$less@W4eDatabaseType@DBINFO_MGR@@@4@V?$allocator@U?$pair@$$CBW4eDatabaseType@DBINFO_MGR@@PAV?$map@W4eInfoType@DBINFO_MGR@@V?$basic_string@DU?$char_traits@D@std@@V?$allocator@D@2@@std@@U?$less@W4eInfoType@DBINFO_MGR@@@4@V?$allocator@U?$pair@$$CBW4eInfoType@DBINFO_MGR@@V?$basic_string@DU?$char_traits@D@std@@V?$allocator@D@2@@std@@@std@@@4@@std@@@std@@@4@$0A@@std@@@2@@Z 005609b0 f i LocaMgr.obj
 0002:0008da10       ?construct@?$allocator@PAU_Node@?$_Tree_nod@V?$_Tmap_traits@W4eDatabaseType@DBINFO_MGR@@PAV?$map@W4eInfoType@DBINFO_MGR@@V?$basic_string@DU?$char_traits@D@std@@V?$allocator@D@2@@std@@U?$less@W4eInfoType@DBINFO_MGR@@@4@V?$allocator@U?$pair@$$CBW4eInfoType@DBINFO_MGR@@V?$basic_string@DU?$char_traits@D@std@@V?$allocator@D@2@@std@@@std@@@4@@std@@U?$less@W4eDatabaseType@DBINFO_MGR@@@4@V?$allocator@U?$pair@$$CBW4eDatabaseType@DBINFO_MGR@@PAV?$map@W4eInfoType@DBINFO_MGR@@V?$basic_string@DU?$char_traits@D@std@@V?$allocator@D@2@@std@@U?$less@W4eInfoType@DBINFO_MGR@@@4@V?$allocator@U?$pair@$$CBW4eInfoType@DBINFO_MGR@@V?$basic_string@DU?$char_traits@D@std@@V?$allocator@D@2@@std@@@std@@@4@@std@@@std@@@4@$0A@@std@@@std@@@std@@QAEXPAPAU_Node@?$_Tree_nod@V?$_Tmap_traits@W4eDatabaseType@DBINFO_MGR@@PAV?$map@W4eInfoType@DBINFO_MGR@@V?$basic_string@DU?$char_traits@D@std@@V?$allocator@D@2@@std@@U?$less@W4eInfoType@DBINFO_MGR@@@4@V?$allocator@U?$pair@$$CBW4eInfoType@DBINFO_MGR@@V?$basic_string@DU?$char_traits@D@std@@V?$allocator@D@2@@std@@@std@@@4@@std@@U?$less@W4eDatabaseType@DBINFO_MGR@@@4@V?$allocator@U?$pair@$$CBW4eDatabaseType@DBINFO_MGR@@PAV?$map@W4eInfoType@DBINFO_MGR@@V?$basic_string@DU?$char_traits@D@std@@V?$allocator@D@2@@std@@U?$less@W4eInfoType@DBINFO_MGR@@@4@V?$allocator@U?$pair@$$CBW4eInfoType@DBINFO_MGR@@V?$basic_string@DU?$char_traits@D@std@@V?$allocator@D@2@@std@@@std@@@4@@std@@@std@@@4@$0A@@std@@@2@ABQAU342@@Z 00560a10 f i LocaMgr.obj
 0002:0008da70       ??Eiterator@?$_Tree@V?$_Tmap_traits@W4eInfoType@DBINFO_MGR@@V?$basic_string@DU?$char_traits@D@std@@V?$allocator@D@2@@std@@U?$less@W4eInfoType@DBINFO_MGR@@@4@V?$allocator@U?$pair@$$CBW4eInfoType@DBINFO_MGR@@V?$basic_string@DU?$char_traits@D@std@@V?$allocator@D@2@@std@@@std@@@4@$0A@@std@@@std@@QAEAAV012@XZ 00560a70 f i LocaMgr.obj
 0002:0008dad0       ??0?$_Tmap_traits@W4eInfoType@DBINFO_MGR@@V?$basic_string@DU?$char_traits@D@std@@V?$allocator@D@2@@std@@U?$less@W4eInfoType@DBINFO_MGR@@@4@V?$allocator@U?$pair@$$CBW4eInfoType@DBINFO_MGR@@V?$basic_string@DU?$char_traits@D@std@@V?$allocator@D@2@@std@@@std@@@4@$0A@@std@@QAE@U?$less@W4eInfoType@DBINFO_MGR@@@1@@Z 00560ad0 f i LocaMgr.obj
 0002:0008db10       ??0?$_Tmap_traits@W4eDatabaseType@DBINFO_MGR@@PAV?$map@W4eInfoType@DBINFO_MGR@@V?$basic_string@DU?$char_traits@D@std@@V?$allocator@D@2@@std@@U?$less@W4eInfoType@DBINFO_MGR@@@4@V?$allocator@U?$pair@$$CBW4eInfoType@DBINFO_MGR@@V?$basic_string@DU?$char_traits@D@std@@V?$allocator@D@2@@std@@@std@@@4@@std@@U?$less@W4eDatabaseType@DBINFO_MGR@@@4@V?$allocator@U?$pair@$$CBW4eDatabaseType@DBINFO_MGR@@PAV?$map@W4eInfoType@DBINFO_MGR@@V?$basic_string@DU?$char_traits@D@std@@V?$allocator@D@2@@std@@U?$less@W4eInfoType@DBINFO_MGR@@@4@V?$allocator@U?$pair@$$CBW4eInfoType@DBINFO_MGR@@V?$basic_string@DU?$char_traits@D@std@@V?$allocator@D@2@@std@@@std@@@4@@std@@@std@@@4@$0A@@std@@QAE@U?$less@W4eDatabaseType@DBINFO_MGR@@@1@@Z 00560b10 f i LocaMgr.obj
 0002:0008db50       ??Econst_iterator@?$_Tree@V?$_Tmap_traits@W4eInfoType@DBINFO_MGR@@V?$basic_string@DU?$char_traits@D@std@@V?$allocator@D@2@@std@@U?$less@W4eInfoType@DBINFO_MGR@@@4@V?$allocator@U?$pair@$$CBW4eInfoType@DBINFO_MGR@@V?$basic_string@DU?$char_traits@D@std@@V?$allocator@D@2@@std@@@std@@@4@$0A@@std@@@std@@QAEAAV012@XZ 00560b50 f i LocaMgr.obj
 0002:0008dbb0       ?_Inc@const_iterator@?$_Tree@V?$_Tmap_traits@W4eInfoType@DBINFO_MGR@@V?$basic_string@DU?$char_traits@D@std@@V?$allocator@D@2@@std@@U?$less@W4eInfoType@DBINFO_MGR@@@4@V?$allocator@U?$pair@$$CBW4eInfoType@DBINFO_MGR@@V?$basic_string@DU?$char_traits@D@std@@V?$allocator@D@2@@std@@@std@@@4@$0A@@std@@@std@@QAEXXZ 00560bb0 f i LocaMgr.obj
 0002:0008dcd0       ??$make_pair@W4eDatabaseType@DBINFO_MGR@@PAV?$map@W4eInfoType@DBINFO_MGR@@V?$basic_string@DU?$char_traits@D@std@@V?$allocator@D@2@@std@@U?$less@W4eInfoType@DBINFO_MGR@@@4@V?$allocator@U?$pair@$$CBW4eInfoType@DBINFO_MGR@@V?$basic_string@DU?$char_traits@D@std@@V?$allocator@D@2@@std@@@std@@@4@@std@@@std@@YA?AU?$pair@W4eDatabaseType@DBINFO_MGR@@PAV?$map@W4eInfoType@DBINFO_MGR@@V?$basic_string@DU?$char_traits@D@std@@V?$allocator@D@2@@std@@U?$less@W4eInfoType@DBINFO_MGR@@@4@V?$allocator@U?$pair@$$CBW4eInfoType@DBINFO_MGR@@V?$basic_string@DU?$char_traits@D@std@@V?$allocator@D@2@@std@@@std@@@4@@std@@@0@W4eDatabaseType@DBINFO_MGR@@PAV?$map@W4eInfoType@DBINFO_MGR@@V?$basic_string@DU?$char_traits@D@std@@V?$allocator@D@2@@std@@U?$less@W4eInfoType@DBINFO_MGR@@@4@V?$allocator@U?$pair@$$CBW4eInfoType@DBINFO_MGR@@V?$basic_string@DU?$char_traits@D@std@@V?$allocator@D@2@@std@@@std@@@4@@0@@Z 00560cd0 f i LocaMgr.obj
 0002:0008dd30       ??$?0W4eDatabaseType@DBINFO_MGR@@PAV?$map@W4eInfoType@DBINFO_MGR@@V?$basic_string@DU?$char_traits@D@std@@V?$allocator@D@2@@std@@U?$less@W4eInfoType@DBINFO_MGR@@@4@V?$allocator@U?$pair@$$CBW4eInfoType@DBINFO_MGR@@V?$basic_string@DU?$char_traits@D@std@@V?$allocator@D@2@@std@@@std@@@4@@std@@@?$pair@$$CBW4eDatabaseType@DBINFO_MGR@@PAV?$map@W4eInfoType@DBINFO_MGR@@V?$basic_string@DU?$char_traits@D@std@@V?$allocator@D@2@@std@@U?$less@W4eInfoType@DBINFO_MGR@@@4@V?$allocator@U?$pair@$$CBW4eInfoType@DBINFO_MGR@@V?$basic_string@DU?$char_traits@D@std@@V?$allocator@D@2@@std@@@std@@@4@@std@@@std@@QAE@ABU?$pair@W4eDatabaseType@DBINFO_MGR@@PAV?$map@W4eInfoType@DBINFO_MGR@@V?$basic_string@DU?$char_traits@D@std@@V?$allocator@D@2@@std@@U?$less@W4eInfoType@DBINFO_MGR@@@4@V?$allocator@U?$pair@$$CBW4eInfoType@DBINFO_MGR@@V?$basic_string@DU?$char_traits@D@std@@V?$allocator@D@2@@std@@@std@@@4@@std@@@1@@Z 00560d30 f i LocaMgr.obj
 0002:0008dd90       ??$make_pair@W4eInfoType@DBINFO_MGR@@V?$basic_string@DU?$char_traits@D@std@@V?$allocator@D@2@@std@@@std@@YA?AU?$pair@W4eInfoType@DBINFO_MGR@@V?$basic_string@DU?$char_traits@D@std@@V?$allocator@D@2@@std@@@0@W4eInfoType@DBINFO_MGR@@V?$basic_string@DU?$char_traits@D@std@@V?$allocator@D@2@@0@@Z 00560d90 f i LocaMgr.obj
 0002:0008de50       ??$?0W4eInfoType@DBINFO_MGR@@V?$basic_string@DU?$char_traits@D@std@@V?$allocator@D@2@@std@@@?$pair@$$CBW4eInfoType@DBINFO_MGR@@V?$basic_string@DU?$char_traits@D@std@@V?$allocator@D@2@@std@@@std@@QAE@ABU?$pair@W4eInfoType@DBINFO_MGR@@V?$basic_string@DU?$char_traits@D@std@@V?$allocator@D@2@@std@@@1@@Z 00560e50 f i LocaMgr.obj
 0002:0008dec0       ??$_Destroy@PAU_Node@?$_Tree_nod@V?$_Tmap_traits@W4eInfoType@DBINFO_MGR@@V?$basic_string@DU?$char_traits@D@std@@V?$allocator@D@2@@std@@U?$less@W4eInfoType@DBINFO_MGR@@@4@V?$allocator@U?$pair@$$CBW4eInfoType@DBINFO_MGR@@V?$basic_string@DU?$char_traits@D@std@@V?$allocator@D@2@@std@@@std@@@4@$0A@@std@@@std@@@std@@YAXPAPAU_Node@?$_Tree_nod@V?$_Tmap_traits@W4eInfoType@DBINFO_MGR@@V?$basic_string@DU?$char_traits@D@std@@V?$allocator@D@2@@std@@U?$less@W4eInfoType@DBINFO_MGR@@@4@V?$allocator@U?$pair@$$CBW4eInfoType@DBINFO_MGR@@V?$basic_string@DU?$char_traits@D@std@@V?$allocator@D@2@@std@@@std@@@4@$0A@@std@@@0@@Z 00560ec0 f i LocaMgr.obj
 0002:0008def0       ??$_Destroy@PAU_Node@?$_Tree_nod@V?$_Tmap_traits@W4eDatabaseType@DBINFO_MGR@@PAV?$map@W4eInfoType@DBINFO_MGR@@V?$basic_string@DU?$char_traits@D@std@@V?$allocator@D@2@@std@@U?$less@W4eInfoType@DBINFO_MGR@@@4@V?$allocator@U?$pair@$$CBW4eInfoType@DBINFO_MGR@@V?$basic_string@DU?$char_traits@D@std@@V?$allocator@D@2@@std@@@std@@@4@@std@@U?$less@W4eDatabaseType@DBINFO_MGR@@@4@V?$allocator@U?$pair@$$CBW4eDatabaseType@DBINFO_MGR@@PAV?$map@W4eInfoType@DBINFO_MGR@@V?$basic_string@DU?$char_traits@D@std@@V?$allocator@D@2@@std@@U?$less@W4eInfoType@DBINFO_MGR@@@4@V?$allocator@U?$pair@$$CBW4eInfoType@DBINFO_MGR@@V?$basic_string@DU?$char_traits@D@std@@V?$allocator@D@2@@std@@@std@@@4@@std@@@std@@@4@$0A@@std@@@std@@@std@@YAXPAPAU_Node@?$_Tree_nod@V?$_Tmap_traits@W4eDatabaseType@DBINFO_MGR@@PAV?$map@W4eInfoType@DBINFO_MGR@@V?$basic_string@DU?$char_traits@D@std@@V?$allocator@D@2@@std@@U?$less@W4eInfoType@DBINFO_MGR@@@4@V?$allocator@U?$pair@$$CBW4eInfoType@DBINFO_MGR@@V?$basic_string@DU?$char_traits@D@std@@V?$allocator@D@2@@std@@@std@@@4@@std@@U?$less@W4eDatabaseType@DBINFO_MGR@@@4@V?$allocator@U?$pair@$$CBW4eDatabaseType@DBINFO_MGR@@PAV?$map@W4eInfoType@DBINFO_MGR@@V?$basic_string@DU?$char_traits@D@std@@V?$allocator@D@2@@std@@U?$less@W4eInfoType@DBINFO_MGR@@@4@V?$allocator@U?$pair@$$CBW4eInfoType@DBINFO_MGR@@V?$basic_string@DU?$char_traits@D@std@@V?$allocator@D@2@@std@@@std@@@4@@std@@@std@@@4@$0A@@std@@@0@@Z 00560ef0 f i LocaMgr.obj
 0002:0008df20       ??$?0U?$pair@$$CBW4eInfoType@DBINFO_MGR@@V?$basic_string@DU?$char_traits@D@std@@V?$allocator@D@2@@std@@@std@@@?$allocator@PAU_Node@?$_Tree_nod@V?$_Tmap_traits@W4eInfoType@DBINFO_MGR@@V?$basic_string@DU?$char_traits@D@std@@V?$allocator@D@2@@std@@U?$less@W4eInfoType@DBINFO_MGR@@@4@V?$allocator@U?$pair@$$CBW4eInfoType@DBINFO_MGR@@V?$basic_string@DU?$char_traits@D@std@@V?$allocator@D@2@@std@@@std@@@4@$0A@@std@@@std@@@std@@QAE@ABV?$allocator@U?$pair@$$CBW4eInfoType@DBINFO_MGR@@V?$basic_string@DU?$char_traits@D@std@@V?$allocator@D@2@@std@@@std@@@1@@Z 00560f20 f i LocaMgr.obj
 0002:0008df60       ??$_Allocate@U_Node@?$_Tree_nod@V?$_Tmap_traits@W4eInfoType@DBINFO_MGR@@V?$basic_string@DU?$char_traits@D@std@@V?$allocator@D@2@@std@@U?$less@W4eInfoType@DBINFO_MGR@@@4@V?$allocator@U?$pair@$$CBW4eInfoType@DBINFO_MGR@@V?$basic_string@DU?$char_traits@D@std@@V?$allocator@D@2@@std@@@std@@@4@$0A@@std@@@std@@@std@@YAPAU_Node@?$_Tree_nod@V?$_Tmap_traits@W4eInfoType@DBINFO_MGR@@V?$basic_string@DU?$char_traits@D@std@@V?$allocator@D@2@@std@@U?$less@W4eInfoType@DBINFO_MGR@@@4@V?$allocator@U?$pair@$$CBW4eInfoType@DBINFO_MGR@@V?$basic_string@DU?$char_traits@D@std@@V?$allocator@D@2@@std@@@std@@@4@$0A@@std@@@0@IPAU120@@Z 00560f60 f i LocaMgr.obj
 0002:0008dfc0       ??$?0U?$pair@$$CBW4eDatabaseType@DBINFO_MGR@@PAV?$map@W4eInfoType@DBINFO_MGR@@V?$basic_string@DU?$char_traits@D@std@@V?$allocator@D@2@@std@@U?$less@W4eInfoType@DBINFO_MGR@@@4@V?$allocator@U?$pair@$$CBW4eInfoType@DBINFO_MGR@@V?$basic_string@DU?$char_traits@D@std@@V?$allocator@D@2@@std@@@std@@@4@@std@@@std@@@?$allocator@PAU_Node@?$_Tree_nod@V?$_Tmap_traits@W4eDatabaseType@DBINFO_MGR@@PAV?$map@W4eInfoType@DBINFO_MGR@@V?$basic_string@DU?$char_traits@D@std@@V?$allocator@D@2@@std@@U?$less@W4eInfoType@DBINFO_MGR@@@4@V?$allocator@U?$pair@$$CBW4eInfoType@DBINFO_MGR@@V?$basic_string@DU?$char_traits@D@std@@V?$allocator@D@2@@std@@@std@@@4@@std@@U?$less@W4eDatabaseType@DBINFO_MGR@@@4@V?$allocator@U?$pair@$$CBW4eDatabaseType@DBINFO_MGR@@PAV?$map@W4eInfoType@DBINFO_MGR@@V?$basic_string@DU?$char_traits@D@std@@V?$allocator@D@2@@std@@U?$less@W4eInfoType@DBINFO_MGR@@@4@V?$allocator@U?$pair@$$CBW4eInfoType@DBINFO_MGR@@V?$basic_string@DU?$char_traits@D@std@@V?$allocator@D@2@@std@@@std@@@4@@std@@@std@@@4@$0A@@std@@@std@@@std@@QAE@ABV?$allocator@U?$pair@$$CBW4eDatabaseType@DBINFO_MGR@@PAV?$map@W4eInfoType@DBINFO_MGR@@V?$basic_string@DU?$char_traits@D@std@@V?$allocator@D@2@@std@@U?$less@W4eInfoType@DBINFO_MGR@@@4@V?$allocator@U?$pair@$$CBW4eInfoType@DBINFO_MGR@@V?$basic_string@DU?$char_traits@D@std@@V?$allocator@D@2@@std@@@std@@@4@@std@@@std@@@1@@Z 00560fc0 f i LocaMgr.obj
 0002:0008e000       ??$_Allocate@U_Node@?$_Tree_nod@V?$_Tmap_traits@W4eDatabaseType@DBINFO_MGR@@PAV?$map@W4eInfoType@DBINFO_MGR@@V?$basic_string@DU?$char_traits@D@std@@V?$allocator@D@2@@std@@U?$less@W4eInfoType@DBINFO_MGR@@@4@V?$allocator@U?$pair@$$CBW4eInfoType@DBINFO_MGR@@V?$basic_string@DU?$char_traits@D@std@@V?$allocator@D@2@@std@@@std@@@4@@std@@U?$less@W4eDatabaseType@DBINFO_MGR@@@4@V?$allocator@U?$pair@$$CBW4eDatabaseType@DBINFO_MGR@@PAV?$map@W4eInfoType@DBINFO_MGR@@V?$basic_string@DU?$char_traits@D@std@@V?$allocator@D@2@@std@@U?$less@W4eInfoType@DBINFO_MGR@@@4@V?$allocator@U?$pair@$$CBW4eInfoType@DBINFO_MGR@@V?$basic_string@DU?$char_traits@D@std@@V?$allocator@D@2@@std@@@std@@@4@@std@@@std@@@4@$0A@@std@@@std@@@std@@YAPAU_Node@?$_Tree_nod@V?$_Tmap_traits@W4eDatabaseType@DBINFO_MGR@@PAV?$map@W4eInfoType@DBINFO_MGR@@V?$basic_string@DU?$char_traits@D@std@@V?$allocator@D@2@@std@@U?$less@W4eInfoType@DBINFO_MGR@@@4@V?$allocator@U?$pair@$$CBW4eInfoType@DBINFO_MGR@@V?$basic_string@DU?$char_traits@D@std@@V?$allocator@D@2@@std@@@std@@@4@@std@@U?$less@W4eDatabaseType@DBINFO_MGR@@@4@V?$allocator@U?$pair@$$CBW4eDatabaseType@DBINFO_MGR@@PAV?$map@W4eInfoType@DBINFO_MGR@@V?$basic_string@DU?$char_traits@D@std@@V?$allocator@D@2@@std@@U?$less@W4eInfoType@DBINFO_MGR@@@4@V?$allocator@U?$pair@$$CBW4eInfoType@DBINFO_MGR@@V?$basic_string@DU?$char_traits@D@std@@V?$allocator@D@2@@std@@@std@@@4@@std@@@std@@@4@$0A@@std@@@0@IPAU120@@Z 00561000 f i LocaMgr.obj
 0002:0008e060       ??$?0U?$pair@$$CBW4eInfoType@DBINFO_MGR@@V?$basic_string@DU?$char_traits@D@std@@V?$allocator@D@2@@std@@@std@@@?$allocator@U_Node@?$_Tree_nod@V?$_Tmap_traits@W4eInfoType@DBINFO_MGR@@V?$basic_string@DU?$char_traits@D@std@@V?$allocator@D@2@@std@@U?$less@W4eInfoType@DBINFO_MGR@@@4@V?$allocator@U?$pair@$$CBW4eInfoType@DBINFO_MGR@@V?$basic_string@DU?$char_traits@D@std@@V?$allocator@D@2@@std@@@std@@@4@$0A@@std@@@std@@@std@@QAE@ABV?$allocator@U?$pair@$$CBW4eInfoType@DBINFO_MGR@@V?$basic_string@DU?$char_traits@D@std@@V?$allocator@D@2@@std@@@std@@@1@@Z 00561060 f i LocaMgr.obj
 0002:0008e0a0       ??$_Destroy@U_Node@?$_Tree_nod@V?$_Tmap_traits@W4eInfoType@DBINFO_MGR@@V?$basic_string@DU?$char_traits@D@std@@V?$allocator@D@2@@std@@U?$less@W4eInfoType@DBINFO_MGR@@@4@V?$allocator@U?$pair@$$CBW4eInfoType@DBINFO_MGR@@V?$basic_string@DU?$char_traits@D@std@@V?$allocator@D@2@@std@@@std@@@4@$0A@@std@@@std@@@std@@YAXPAU_Node@?$_Tree_nod@V?$_Tmap_traits@W4eInfoType@DBINFO_MGR@@V?$basic_string@DU?$char_traits@D@std@@V?$allocator@D@2@@std@@U?$less@W4eInfoType@DBINFO_MGR@@@4@V?$allocator@U?$pair@$$CBW4eInfoType@DBINFO_MGR@@V?$basic_string@DU?$char_traits@D@std@@V?$allocator@D@2@@std@@@std@@@4@$0A@@std@@@0@@Z 005610a0 f i LocaMgr.obj
 0002:0008e0f0       ??$_Construct@PAU_Node@?$_Tree_nod@V?$_Tmap_traits@W4eInfoType@DBINFO_MGR@@V?$basic_string@DU?$char_traits@D@std@@V?$allocator@D@2@@std@@U?$less@W4eInfoType@DBINFO_MGR@@@4@V?$allocator@U?$pair@$$CBW4eInfoType@DBINFO_MGR@@V?$basic_string@DU?$char_traits@D@std@@V?$allocator@D@2@@std@@@std@@@4@$0A@@std@@@std@@PAU123@@std@@YAXPAPAU_Node@?$_Tree_nod@V?$_Tmap_traits@W4eInfoType@DBINFO_MGR@@V?$basic_string@DU?$char_traits@D@std@@V?$allocator@D@2@@std@@U?$less@W4eInfoType@DBINFO_MGR@@@4@V?$allocator@U?$pair@$$CBW4eInfoType@DBINFO_MGR@@V?$basic_string@DU?$char_traits@D@std@@V?$allocator@D@2@@std@@@std@@@4@$0A@@std@@@0@ABQAU120@@Z 005610f0 f i LocaMgr.obj
 0002:0008e190       ??$?0U?$pair@$$CBW4eDatabaseType@DBINFO_MGR@@PAV?$map@W4eInfoType@DBINFO_MGR@@V?$basic_string@DU?$char_traits@D@std@@V?$allocator@D@2@@std@@U?$less@W4eInfoType@DBINFO_MGR@@@4@V?$allocator@U?$pair@$$CBW4eInfoType@DBINFO_MGR@@V?$basic_string@DU?$char_traits@D@std@@V?$allocator@D@2@@std@@@std@@@4@@std@@@std@@@?$allocator@U_Node@?$_Tree_nod@V?$_Tmap_traits@W4eDatabaseType@DBINFO_MGR@@PAV?$map@W4eInfoType@DBINFO_MGR@@V?$basic_string@DU?$char_traits@D@std@@V?$allocator@D@2@@std@@U?$less@W4eInfoType@DBINFO_MGR@@@4@V?$allocator@U?$pair@$$CBW4eInfoType@DBINFO_MGR@@V?$basic_string@DU?$char_traits@D@std@@V?$allocator@D@2@@std@@@std@@@4@@std@@U?$less@W4eDatabaseType@DBINFO_MGR@@@4@V?$allocator@U?$pair@$$CBW4eDatabaseType@DBINFO_MGR@@PAV?$map@W4eInfoType@DBINFO_MGR@@V?$basic_string@DU?$char_traits@D@std@@V?$allocator@D@2@@std@@U?$less@W4eInfoType@DBINFO_MGR@@@4@V?$allocator@U?$pair@$$CBW4eInfoType@DBINFO_MGR@@V?$basic_string@DU?$char_traits@D@std@@V?$allocator@D@2@@std@@@std@@@4@@std@@@std@@@4@$0A@@std@@@std@@@std@@QAE@ABV?$allocator@U?$pair@$$CBW4eDatabaseType@DBINFO_MGR@@PAV?$map@W4eInfoType@DBINFO_MGR@@V?$basic_string@DU?$char_traits@D@std@@V?$allocator@D@2@@std@@U?$less@W4eInfoType@DBINFO_MGR@@@4@V?$allocator@U?$pair@$$CBW4eInfoType@DBINFO_MGR@@V?$basic_string@DU?$char_traits@D@std@@V?$allocator@D@2@@std@@@std@@@4@@std@@@std@@@1@@Z 00561190 f i LocaMgr.obj
 0002:0008e1d0       ??$_Destroy@U_Node@?$_Tree_nod@V?$_Tmap_traits@W4eDatabaseType@DBINFO_MGR@@PAV?$map@W4eInfoType@DBINFO_MGR@@V?$basic_string@DU?$char_traits@D@std@@V?$allocator@D@2@@std@@U?$less@W4eInfoType@DBINFO_MGR@@@4@V?$allocator@U?$pair@$$CBW4eInfoType@DBINFO_MGR@@V?$basic_string@DU?$char_traits@D@std@@V?$allocator@D@2@@std@@@std@@@4@@std@@U?$less@W4eDatabaseType@DBINFO_MGR@@@4@V?$allocator@U?$pair@$$CBW4eDatabaseType@DBINFO_MGR@@PAV?$map@W4eInfoType@DBINFO_MGR@@V?$basic_string@DU?$char_traits@D@std@@V?$allocator@D@2@@std@@U?$less@W4eInfoType@DBINFO_MGR@@@4@V?$allocator@U?$pair@$$CBW4eInfoType@DBINFO_MGR@@V?$basic_string@DU?$char_traits@D@std@@V?$allocator@D@2@@std@@@std@@@4@@std@@@std@@@4@$0A@@std@@@std@@@std@@YAXPAU_Node@?$_Tree_nod@V?$_Tmap_traits@W4eDatabaseType@DBINFO_MGR@@PAV?$map@W4eInfoType@DBINFO_MGR@@V?$basic_string@DU?$char_traits@D@std@@V?$allocator@D@2@@std@@U?$less@W4eInfoType@DBINFO_MGR@@@4@V?$allocator@U?$pair@$$CBW4eInfoType@DBINFO_MGR@@V?$basic_string@DU?$char_traits@D@std@@V?$allocator@D@2@@std@@@std@@@4@@std@@U?$less@W4eDatabaseType@DBINFO_MGR@@@4@V?$allocator@U?$pair@$$CBW4eDatabaseType@DBINFO_MGR@@PAV?$map@W4eInfoType@DBINFO_MGR@@V?$basic_string@DU?$char_traits@D@std@@V?$allocator@D@2@@std@@U?$less@W4eInfoType@DBINFO_MGR@@@4@V?$allocator@U?$pair@$$CBW4eInfoType@DBINFO_MGR@@V?$basic_string@DU?$char_traits@D@std@@V?$allocator@D@2@@std@@@std@@@4@@std@@@std@@@4@$0A@@std@@@0@@Z 005611d0 f i LocaMgr.obj
 0002:0008e200       ??$_Construct@PAU_Node@?$_Tree_nod@V?$_Tmap_traits@W4eDatabaseType@DBINFO_MGR@@PAV?$map@W4eInfoType@DBINFO_MGR@@V?$basic_string@DU?$char_traits@D@std@@V?$allocator@D@2@@std@@U?$less@W4eInfoType@DBINFO_MGR@@@4@V?$allocator@U?$pair@$$CBW4eInfoType@DBINFO_MGR@@V?$basic_string@DU?$char_traits@D@std@@V?$allocator@D@2@@std@@@std@@@4@@std@@U?$less@W4eDatabaseType@DBINFO_MGR@@@4@V?$allocator@U?$pair@$$CBW4eDatabaseType@DBINFO_MGR@@PAV?$map@W4eInfoType@DBINFO_MGR@@V?$basic_string@DU?$char_traits@D@std@@V?$allocator@D@2@@std@@U?$less@W4eInfoType@DBINFO_MGR@@@4@V?$allocator@U?$pair@$$CBW4eInfoType@DBINFO_MGR@@V?$basic_string@DU?$char_traits@D@std@@V?$allocator@D@2@@std@@@std@@@4@@std@@@std@@@4@$0A@@std@@@std@@PAU123@@std@@YAXPAPAU_Node@?$_Tree_nod@V?$_Tmap_traits@W4eDatabaseType@DBINFO_MGR@@PAV?$map@W4eInfoType@DBINFO_MGR@@V?$basic_string@DU?$char_traits@D@std@@V?$allocator@D@2@@std@@U?$less@W4eInfoType@DBINFO_MGR@@@4@V?$allocator@U?$pair@$$CBW4eInfoType@DBINFO_MGR@@V?$basic_string@DU?$char_traits@D@std@@V?$allocator@D@2@@std@@@std@@@4@@std@@U?$less@W4eDatabaseType@DBINFO_MGR@@@4@V?$allocator@U?$pair@$$CBW4eDatabaseType@DBINFO_MGR@@PAV?$map@W4eInfoType@DBINFO_MGR@@V?$basic_string@DU?$char_traits@D@std@@V?$allocator@D@2@@std@@U?$less@W4eInfoType@DBINFO_MGR@@@4@V?$allocator@U?$pair@$$CBW4eInfoType@DBINFO_MGR@@V?$basic_string@DU?$char_traits@D@std@@V?$allocator@D@2@@std@@@std@@@4@@std@@@std@@@4@$0A@@std@@@0@ABQAU120@@Z 00561200 f i LocaMgr.obj
 0002:0008e2a0       ??_G_Node@?$_Tree_nod@V?$_Tmap_traits@W4eInfoType@DBINFO_MGR@@V?$basic_string@DU?$char_traits@D@std@@V?$allocator@D@2@@std@@U?$less@W4eInfoType@DBINFO_MGR@@@4@V?$allocator@U?$pair@$$CBW4eInfoType@DBINFO_MGR@@V?$basic_string@DU?$char_traits@D@std@@V?$allocator@D@2@@std@@@std@@@4@$0A@@std@@@std@@QAEPAXI@Z 005612a0 f i LocaMgr.obj
 0002:0008e310       ??1_Node@?$_Tree_nod@V?$_Tmap_traits@W4eInfoType@DBINFO_MGR@@V?$basic_string@DU?$char_traits@D@std@@V?$allocator@D@2@@std@@U?$less@W4eInfoType@DBINFO_MGR@@@4@V?$allocator@U?$pair@$$CBW4eInfoType@DBINFO_MGR@@V?$basic_string@DU?$char_traits@D@std@@V?$allocator@D@2@@std@@@std@@@4@$0A@@std@@@std@@QAE@XZ 00561310 f i LocaMgr.obj
 0002:0008e370       ??0?$pair@W4eDatabaseType@DBINFO_MGR@@PAV?$map@W4eInfoType@DBINFO_MGR@@V?$basic_string@DU?$char_traits@D@std@@V?$allocator@D@2@@std@@U?$less@W4eInfoType@DBINFO_MGR@@@4@V?$allocator@U?$pair@$$CBW4eInfoType@DBINFO_MGR@@V?$basic_string@DU?$char_traits@D@std@@V?$allocator@D@2@@std@@@std@@@4@@std@@@std@@QAE@ABW4eDatabaseType@DBINFO_MGR@@ABQAV?$map@W4eInfoType@DBINFO_MGR@@V?$basic_string@DU?$char_traits@D@std@@V?$allocator@D@2@@std@@U?$less@W4eInfoType@DBINFO_MGR@@@4@V?$allocator@U?$pair@$$CBW4eInfoType@DBINFO_MGR@@V?$basic_string@DU?$char_traits@D@std@@V?$allocator@D@2@@std@@@std@@@4@@1@@Z 00561370 f i LocaMgr.obj
 0002:0008e3d0       ??0?$pair@W4eInfoType@DBINFO_MGR@@V?$basic_string@DU?$char_traits@D@std@@V?$allocator@D@2@@std@@@std@@QAE@ABW4eInfoType@DBINFO_MGR@@ABV?$basic_string@DU?$char_traits@D@std@@V?$allocator@D@2@@1@@Z 005613d0 f i LocaMgr.obj
 0002:0008e440       ?VersionCode@CLocal@LOCAL_MGR@@QBE?AW4eVersionCode@2@XZ 00561440 f i LocaMgr.obj
 0002:0008e480       ?ServiceType@CLocal@LOCAL_MGR@@QBEKXZ 00561480 f i LocaMgr.obj
 0002:0008e4c0       ?NationCode@CLocal@LOCAL_MGR@@AAEXW4eNationCode@2@@Z 005614c0 f i LocaMgr.obj
 0002:0008e510       ?VersionCode@CLocal@LOCAL_MGR@@AAEXW4eVersionCode@2@@Z 00561510 f i LocaMgr.obj
 0002:0008e560       ?ServiceType@CLocal@LOCAL_MGR@@AAEXK@Z 00561560 f i LocaMgr.obj
 0002:0008e5b0       ?NationName@CLocal@LOCAL_MGR@@AAEXABV?$basic_string@DU?$char_traits@D@std@@V?$allocator@D@2@@std@@@Z 005615b0 f i LocaMgr.obj
 0002:0008e610       ??0CDebugLog@@QAE@XZ       00561610 f   DebugLog.obj
 0002:0008e710       ??0t_LogDate@CDebugLog@@QAE@HHH@Z 00561710 f i DebugLog.obj
 0002:0008e770       ??_ECDebugLog@@UAEPAXI@Z   00561770 f i DebugLog.obj
 0002:0008e770       ??_GCDebugLog@@UAEPAXI@Z   00561770 f i DebugLog.obj
 0002:0008e7e0       ??1CDebugLog@@UAE@XZ       005617e0 f   DebugLog.obj
 0002:0008e8e0       ?Init@CDebugLog@@QAE_NW4eOUPUT_TYPE@@ABV?$basic_string@DU?$char_traits@D@std@@V?$allocator@D@2@@std@@1@Z 005618e0 f   DebugLog.obj
 0002:0008ea50       ?Clear@CDebugLog@@IAEXXZ   00561a50 f   DebugLog.obj
 0002:0008eb70       ?SetWriteFile@CDebugLog@@IAEXXZ 00561b70 f   DebugLog.obj
 0002:0008ee50       ?Log@CDebugLog@@QAAXW4eLOG_LEVEL@@PBDZZ 00561e50 f   DebugLog.obj
 0002:0008f080       ?OutFile@CDebugLog@@IAEXPBD@Z 00562080 f   DebugLog.obj
 0002:0008f1a0       ?OutTrace@CDebugLog@@IAEXPBD@Z 005621a0 f   DebugLog.obj
 0002:0008f270       ?OutConsole@CDebugLog@@IAEXPBD@Z 00562270 f   DebugLog.obj
 0002:0008f3a0       ?OpenConsole@CDebugLog@@IAE_NXZ 005623a0 f   DebugLog.obj
 0002:0008f560       ?CloseConsole@CDebugLog@@IAEXXZ 00562560 f   DebugLog.obj
 0002:0008f650       ??0?$ObjectLevelLockable@VCDebugLog@@@Loki@@QAE@XZ 00562650 f i DebugLog.obj
 0002:0008f6b0       ??1?$ObjectLevelLockable@VCDebugLog@@@Loki@@QAE@XZ 005626b0 f i DebugLog.obj
 0002:0008f710       ??0Lock@?$ObjectLevelLockable@VCDebugLog@@@Loki@@QAE@AAVCDebugLog@@@Z 00562710 f i DebugLog.obj
 0002:0008f7b0       ??1Lock@?$ObjectLevelLockable@VCDebugLog@@@Loki@@QAE@XZ 005627b0 f i DebugLog.obj
 0002:0008f810       ??4?$basic_string@DU?$char_traits@D@std@@V?$allocator@D@2@@std@@QAEAAV01@PBD@Z 00562810 f i DebugLog.obj
 0002:0008f870       ?WorldMatchProc@@YGXK@Z    00562870 f   GuildWar.obj
 0002:0008f9d0       ?HandleEvent@CGuildMatcher@@UAE_NXZ 005629d0 f i GuildWar.obj
 0002:000903d0       ?ReadyPlayerCount@CGuildMatchHandler@@QBEIXZ 005633d0 f i GuildWar.obj
 0002:00090410       ??1?$map@V?$CCondition@VCMatchCondition@@I@@V?$vector@UtagReadyElement@?$CTeamMatcher@V?$CCondition@VCMatchCondition@@VCTeamInfo@@@@VCGuildMatchHandler@@@@V?$allocator@UtagReadyElement@?$CTeamMatcher@V?$CCondition@VCMatchCondition@@VCTeamInfo@@@@VCGuildMatchHandler@@@@@std@@@std@@U?$less@V?$CCondition@VCMatchCondition@@I@@@3@V?$allocator@U?$pair@$$CBV?$CCondition@VCMatchCondition@@I@@V?$vector@UtagReadyElement@?$CTeamMatcher@V?$CCondition@VCMatchCondition@@VCTeamInfo@@@@VCGuildMatchHandler@@@@V?$allocator@UtagReadyElement@?$CTeamMatcher@V?$CCondition@VCMatchCondition@@VCTeamInfo@@@@VCGuildMatchHandler@@@@@std@@@std@@@std@@@3@@std@@QAE@XZ 00563410 f i GuildWar.obj
 0002:00090460       ??1tagReadyElement@?$CTeamMatcher@V?$CCondition@VCMatchCondition@@VCTeamInfo@@@@VCGuildMatchHandler@@@@QAE@XZ 00563460 f i GuildWar.obj
 0002:000904b0       ??0?$CCondition@VCMatchCondition@@I@@QAE@ABV0@@Z 005634b0 f i GuildWar.obj
 0002:00090520       ??1?$pair@V?$CCondition@VCMatchCondition@@I@@V?$vector@UtagReadyElement@?$CTeamMatcher@V?$CCondition@VCMatchCondition@@VCTeamInfo@@@@VCGuildMatchHandler@@@@V?$allocator@UtagReadyElement@?$CTeamMatcher@V?$CCondition@VCMatchCondition@@VCTeamInfo@@@@VCGuildMatchHandler@@@@@std@@@std@@@std@@QAE@XZ 00563520 f i GuildWar.obj
 0002:000905c0       ??1?$pair@$$CBV?$CCondition@VCMatchCondition@@I@@V?$vector@UtagReadyElement@?$CTeamMatcher@V?$CCondition@VCMatchCondition@@VCTeamInfo@@@@VCGuildMatchHandler@@@@V?$allocator@UtagReadyElement@?$CTeamMatcher@V?$CCondition@VCMatchCondition@@VCTeamInfo@@@@VCGuildMatchHandler@@@@@std@@@std@@@std@@QAE@XZ 005635c0 f i GuildWar.obj
 0002:00090660       ??0CMatchCondition@@QAE@ABV0@@Z 00563660 f i GuildWar.obj
 0002:000906d0       ?GetCanMatchGuildLeader@@YAPAVCWorldUser@@KE@Z 005636d0 f   GuildWar.obj
 0002:000908f0       ?BroadCastGuildUser@@YAXKPADK@Z 005638f0 f   GuildWar.obj
 0002:00090a00       ?GetRandomMatchType@@YAKXZ 00563a00 f   GuildWar.obj
 0002:00090ad0       ?GetRandomBasePlayerCount@@YAIXZ 00563ad0 f   GuildWar.obj
 0002:00090b40       ?GetTeamType@@YAKPBVCWorldUser@@@Z 00563b40 f   GuildWar.obj
 0002:00090ba0       ?GetMatchLevel@@YAKPBVCWorldUser@@@Z 00563ba0 f   GuildWar.obj
 0002:00090c00       ?MakeGMC@@YAXPAVCWorldUser@@KK_N@Z 00563c00 f   GuildWar.obj
 0002:00090eb0       ??4?$CCondition@VCMatchCondition@@VCTeamInfo@@@@QAEAAV0@ABV0@@Z 00563eb0 f i GuildWar.obj
 0002:00090f20       ??4CMatchCondition@@QAEAAV0@ABV0@@Z 00563f20 f i GuildWar.obj
 0002:00090f80       ??4CTeamInfo@@QAEAAV0@ABV0@@Z 00563f80 f i GuildWar.obj
 0002:00091000       ?Recv_CMD_TEAM_MATCH@@YAXPAVCWorldUser@@PADK@Z 00564000 f   GuildWar.obj
 0002:000921b0       ??0tagStadiumPlayer@@QAE@ABKABUtagDungeonMoveInfo@@ABI00@Z 005651b0 f i GuildWar.obj
 0002:00092260       ?InsertUser@CStadium@@QAEXPAVCWorldUser@@UtagStadiumPlayer@@@Z 00565260 f i GuildWar.obj
 0002:000925b0       ?TeamHash@CStadium@@QAEAAV?$CHS_HASH@IUtagTeamData@@@@XZ 005655b0 f i GuildWar.obj
 0002:000925f0       ??0tagTeamData@@QAE@XZ     005655f0 f i GuildWar.obj
 0002:00092650       ?CmdGuildMatchBeginSetting@@YAXPAVCWorldUser@@PADK@Z 00565650 f   GuildWar.obj
 0002:00093100       ?RemoveUser@CStadium@@QAE_NPAVCWorldUser@@@Z 00566100 f i GuildWar.obj
 0002:000932d0       ?SendLadderInfoToUser@CStadium@@QAEXPAVCWorldUser@@@Z 005662d0 f i GuildWar.obj
 0002:000936b0       ?BroadCastToPlayer@CStadium@@QAEXPADI@Z 005666b0 f i GuildWar.obj
 0002:00093870       ?Name@CPlayerInfo@@QBEPBDXZ 00566870 f i GuildWar.obj
 0002:000938d0       ?Class@CPlayerInfo@@QBEGXZ 005668d0 f i GuildWar.obj
 0002:00093920       ?LV@CPlayerInfo@@QBEKXZ    00566920 f i GuildWar.obj
 0002:00093970       ?GetSTypeHandler@CGuildMatcher@@QAEPAVCGuildMatchHandler@@AAV?$CCondition@VCMatchCondition@@VCTeamInfo@@@@@Z 00566970 f i GuildWar.obj
 0002:00093a80       ?CmdGuildMatchStatusRequest@@YAXPAVCWorldUser@@PADK@Z 00566a80 f   GuildWar.obj
 0002:00093ba0       ?SendTeamInfoToUser@CStadium@@QAEXPAVCWorldUser@@@Z 00566ba0 f i GuildWar.obj
 0002:00093ea0       ?CmdGuildMatchCancelObserver@@YAXPAVCWorldUser@@PADK@Z 00566ea0 f   GuildWar.obj
 0002:00094010       ?CheckHaveTeamMatch@@YA_NPAVCWorldUser@@@Z 00567010 f   GuildWar.obj
 0002:00094190       ?Recv_CTWS_TM_INSERT@@YAXPAVCWorldUser@@PADK@Z 00567190 f   GuildWar.obj
 0002:000942b0       ?Recv_CTWS_TM_REMOVE@@YAXPAVCWorldUser@@@Z 005672b0 f   GuildWar.obj
 0002:000943e0       ?Recv_CMD_STADIUM_STATE@@YAXPAUSERVER_DATA@@PADK@Z 005673e0 f   GuildWar.obj
 0002:00094740       ??0CStadium@@QAE@ABUtagStadiumData@@@Z 00567740 f i GuildWar.obj
 0002:00094800       ??4CStadium@@QAEXABUtagStadiumData@@@Z 00567800 f i GuildWar.obj
 0002:00094900       ?ClearUser@CStadium@@QAEXXZ 00567900 f i GuildWar.obj
 0002:00094ad0       ?ModifyPoint@CStadium@@QAEXIIE@Z 00567ad0 f i GuildWar.obj
 0002:00094c40       ?SendStateBroadCast@CStadium@@QAEXXZ 00567c40 f i GuildWar.obj
 0002:00094fb0       ?SendPointToUser@CStadium@@QAEXEPAVCWorldUser@@@Z 00567fb0 f i GuildWar.obj
 0002:000951d0       ?BroadCastToAllUser@CStadium@@QAEXPADI@Z 005681d0 f i GuildWar.obj
 0002:00095230       ?Send_WSTDS_TEAM_MATCH@@YAXPAVCWorldUser@@ABUtagDungeonMoveInfo@@IK@Z 00568230 f   GuildWar.obj
 0002:00095390       ?MoveToStadium@@YA_NPAVCWorldUser@@ABUtagDungeonMoveInfo@@IK_N@Z 00568390 f   GuildWar.obj
 0002:000955e0       ?MoveToPrevDungeon@@YA_NPAVCWorldUser@@G_N@Z 005685e0 f   GuildWar.obj
 0002:000957f0       ??0?$CCondition@VCMatchCondition@@VCTeamInfo@@@@QAE@XZ 005687f0 f i GuildWar.obj
 0002:000958a0       ??8?$CCondition@VCMatchCondition@@VCTeamInfo@@@@QBE_NABV0@@Z 005688a0 f i GuildWar.obj
 0002:00095930       ?Second@?$CCondition@VCMatchCondition@@VCTeamInfo@@@@QAEAAVCTeamInfo@@XZ 00568930 f i GuildWar.obj
 0002:00095970       ??0?$CHS_HASH@V?$basic_string@DU?$char_traits@D@std@@V?$allocator@D@2@@std@@UtagStadiumPlayer@@@@QAE@XZ 00568970 f i GuildWar.obj
 0002:000959e0       ??0?$CHS_HASH@IUtagTeamData@@@@QAE@XZ 005689e0 f i GuildWar.obj
 0002:00095a50       ?size@?$_Tree@V?$_Tmap_traits@IUtagTeamData@@U?$less@I@std@@V?$allocator@U?$pair@$$CBIUtagTeamData@@@std@@@3@$0A@@std@@@std@@QBEIXZ 00568a50 f i GuildWar.obj
 0002:00095a90       ?size@?$list@VCPlayerInfo@@V?$allocator@VCPlayerInfo@@@std@@@std@@QBEIXZ 00568a90 f i GuildWar.obj
 0002:00095ad0       ?MakeGuildWarList@?$CStadiumMgr@VCStadium@@@@QAEXAAUtagGuildWarDataList@@I@Z 00568ad0 f i GuildWar.obj
 0002:00095e70       ?EmptyStadiumCount@?$CStadiumMgr@VCStadium@@@@QAEIK@Z 00568e70 f i GuildWar.obj
 0002:00095fa0       ?PreparedStadium@?$CStadiumMgr@VCStadium@@@@QAEPAVCStadium@@KKIIW4eGuildWarTime@@_N@Z 00568fa0 f i GuildWar.obj
 0002:00096150       ?GetUserStadium@?$CStadiumMgr@VCStadium@@@@QAEPAUtagStadiumPlayer@@ABV?$basic_string@DU?$char_traits@D@std@@V?$allocator@D@2@@std@@@Z 00569150 f i GuildWar.obj
 0002:000962d0       ?GetUserStadium@CStadium@@QAEPAUtagStadiumPlayer@@ABV?$basic_string@DU?$char_traits@D@std@@V?$allocator@D@2@@std@@@Z 005692d0 f i GuildWar.obj
 0002:00096400       ?GetStadium@?$CStadiumMgr@VCStadium@@@@QAEPAVCStadium@@KGE@Z 00569400 f i GuildWar.obj
 0002:00096530       ?GetStadium@?$CStadiumMgr@VCStadium@@@@QAEPAVCStadium@@PAVCWorldUser@@@Z 00569530 f i GuildWar.obj
 0002:00096630       ?SendEndTeamMatch@?$CStadiumMgr@VCStadium@@@@QAEXGE@Z 00569630 f i GuildWar.obj
 0002:00096760       ?LogGuildWar@?$CStadiumMgr@VCStadium@@@@QAEXPAVCStadium@@_N@Z 00569760 f i GuildWar.obj
 0002:000970f0       ?ModifyStadiumState@?$CStadiumMgr@VCStadium@@@@QAEXAAVCStadium@@@Z 0056a0f0 f i GuildWar.obj
 0002:00097370       ??4CStadium@@QAEXABV0@@Z   0056a370 f i GuildWar.obj
 0002:00097470       ?begin@?$_Tree@V?$_Tmap_traits@V?$CCondition@VCMatchCondition@@VCTeamInfo@@@@PAVCGuildMatchHandler@@U?$less@V?$CCondition@VCMatchCondition@@VCTeamInfo@@@@@std@@V?$allocator@U?$pair@$$CBV?$CCondition@VCMatchCondition@@VCTeamInfo@@@@PAVCGuildMatchHandler@@@std@@@4@$0A@@std@@@std@@QAE?AViterator@12@XZ 0056a470 f i GuildWar.obj
 0002:000974e0       ?end@?$_Tree@V?$_Tmap_traits@V?$CCondition@VCMatchCondition@@VCTeamInfo@@@@PAVCGuildMatchHandler@@U?$less@V?$CCondition@VCMatchCondition@@VCTeamInfo@@@@@std@@V?$allocator@U?$pair@$$CBV?$CCondition@VCMatchCondition@@VCTeamInfo@@@@PAVCGuildMatchHandler@@@std@@@4@$0A@@std@@@std@@QAE?AViterator@12@XZ 0056a4e0 f i GuildWar.obj
 0002:00097540       ??0?$map@V?$CCondition@VCMatchCondition@@I@@V?$vector@UtagReadyElement@?$CTeamMatcher@V?$CCondition@VCMatchCondition@@VCTeamInfo@@@@VCGuildMatchHandler@@@@V?$allocator@UtagReadyElement@?$CTeamMatcher@V?$CCondition@VCMatchCondition@@VCTeamInfo@@@@VCGuildMatchHandler@@@@@std@@@std@@U?$less@V?$CCondition@VCMatchCondition@@I@@@3@V?$allocator@U?$pair@$$CBV?$CCondition@VCMatchCondition@@I@@V?$vector@UtagReadyElement@?$CTeamMatcher@V?$CCondition@VCMatchCondition@@VCTeamInfo@@@@VCGuildMatchHandler@@@@V?$allocator@UtagReadyElement@?$CTeamMatcher@V?$CCondition@VCMatchCondition@@VCTeamInfo@@@@VCGuildMatchHandler@@@@@std@@@std@@@std@@@3@@std@@QAE@XZ 0056a540 f i GuildWar.obj
 0002:000975b0       ??1?$_Tree@V?$_Tmap_traits@V?$CCondition@VCMatchCondition@@I@@V?$vector@UtagReadyElement@?$CTeamMatcher@V?$CCondition@VCMatchCondition@@VCTeamInfo@@@@VCGuildMatchHandler@@@@V?$allocator@UtagReadyElement@?$CTeamMatcher@V?$CCondition@VCMatchCondition@@VCTeamInfo@@@@VCGuildMatchHandler@@@@@std@@@std@@U?$less@V?$CCondition@VCMatchCondition@@I@@@3@V?$allocator@U?$pair@$$CBV?$CCondition@VCMatchCondition@@I@@V?$vector@UtagReadyElement@?$CTeamMatcher@V?$CCondition@VCMatchCondition@@VCTeamInfo@@@@VCGuildMatchHandler@@@@V?$allocator@UtagReadyElement@?$CTeamMatcher@V?$CCondition@VCMatchCondition@@VCTeamInfo@@@@VCGuildMatchHandler@@@@@std@@@std@@@std@@@3@$0A@@std@@@std@@QAE@XZ 0056a5b0 f i GuildWar.obj
 0002:00097600       ?begin@?$_Tree@V?$_Tmap_traits@V?$CCondition@VCMatchCondition@@I@@V?$vector@UtagReadyElement@?$CTeamMatcher@V?$CCondition@VCMatchCondition@@VCTeamInfo@@@@VCGuildMatchHandler@@@@V?$allocator@UtagReadyElement@?$CTeamMatcher@V?$CCondition@VCMatchCondition@@VCTeamInfo@@@@VCGuildMatchHandler@@@@@std@@@std@@U?$less@V?$CCondition@VCMatchCondition@@I@@@3@V?$allocator@U?$pair@$$CBV?$CCondition@VCMatchCondition@@I@@V?$vector@UtagReadyElement@?$CTeamMatcher@V?$CCondition@VCMatchCondition@@VCTeamInfo@@@@VCGuildMatchHandler@@@@V?$allocator@UtagReadyElement@?$CTeamMatcher@V?$CCondition@VCMatchCondition@@VCTeamInfo@@@@VCGuildMatchHandler@@@@@std@@@std@@@std@@@3@$0A@@std@@@std@@QAE?AViterator@12@XZ 0056a600 f i GuildWar.obj
 0002:00097670       ?end@?$_Tree@V?$_Tmap_traits@V?$CCondition@VCMatchCondition@@I@@V?$vector@UtagReadyElement@?$CTeamMatcher@V?$CCondition@VCMatchCondition@@VCTeamInfo@@@@VCGuildMatchHandler@@@@V?$allocator@UtagReadyElement@?$CTeamMatcher@V?$CCondition@VCMatchCondition@@VCTeamInfo@@@@VCGuildMatchHandler@@@@@std@@@std@@U?$less@V?$CCondition@VCMatchCondition@@I@@@3@V?$allocator@U?$pair@$$CBV?$CCondition@VCMatchCondition@@I@@V?$vector@UtagReadyElement@?$CTeamMatcher@V?$CCondition@VCMatchCondition@@VCTeamInfo@@@@VCGuildMatchHandler@@@@V?$allocator@UtagReadyElement@?$CTeamMatcher@V?$CCondition@VCMatchCondition@@VCTeamInfo@@@@VCGuildMatchHandler@@@@@std@@@std@@@std@@@3@$0A@@std@@@std@@QAE?AViterator@12@XZ 0056a670 f i GuildWar.obj
 0002:000976d0       ?insert@?$_Tree@V?$_Tmap_traits@V?$CCondition@VCMatchCondition@@I@@V?$vector@UtagReadyElement@?$CTeamMatcher@V?$CCondition@VCMatchCondition@@VCTeamInfo@@@@VCGuildMatchHandler@@@@V?$allocator@UtagReadyElement@?$CTeamMatcher@V?$CCondition@VCMatchCondition@@VCTeamInfo@@@@VCGuildMatchHandler@@@@@std@@@std@@U?$less@V?$CCondition@VCMatchCondition@@I@@@3@V?$allocator@U?$pair@$$CBV?$CCondition@VCMatchCondition@@I@@V?$vector@UtagReadyElement@?$CTeamMatcher@V?$CCondition@VCMatchCondition@@VCTeamInfo@@@@VCGuildMatchHandler@@@@V?$allocator@UtagReadyElement@?$CTeamMatcher@V?$CCondition@VCMatchCondition@@VCTeamInfo@@@@VCGuildMatchHandler@@@@@std@@@std@@@std@@@3@$0A@@std@@@std@@QAE?AU?$pair@Viterator@?$_Tree@V?$_Tmap_traits@V?$CCondition@VCMatchCondition@@I@@V?$vector@UtagReadyElement@?$CTeamMatcher@V?$CCondition@VCMatchCondition@@VCTeamInfo@@@@VCGuildMatchHandler@@@@V?$allocator@UtagReadyElement@?$CTeamMatcher@V?$CCondition@VCMatchCondition@@VCTeamInfo@@@@VCGuildMatchHandler@@@@@std@@@std@@U?$less@V?$CCondition@VCMatchCondition@@I@@@3@V?$allocator@U?$pair@$$CBV?$CCondition@VCMatchCondition@@I@@V?$vector@UtagReadyElement@?$CTeamMatcher@V?$CCondition@VCMatchCondition@@VCTeamInfo@@@@VCGuildMatchHandler@@@@V?$allocator@UtagReadyElement@?$CTeamMatcher@V?$CCondition@VCMatchCondition@@VCTeamInfo@@@@VCGuildMatchHandler@@@@@std@@@std@@@std@@@3@$0A@@std@@@std@@_N@2@ABU?$pair@$$CBV?$CCondition@VCMatchCondition@@I@@V?$vector@UtagReadyElement@?$CTeamMatcher@V?$CCondition@VCMatchCondition@@VCTeamInfo@@@@VCGuildMatchHandler@@@@V?$allocator@UtagReadyElement@?$CTeamMatcher@V?$CCondition@VCMatchCondition@@VCTeamInfo@@@@VCGuildMatchHandler@@@@@std@@@std@@@2@@Z 0056a6d0 f i GuildWar.obj
 0002:00097990       ?clear@?$_Tree@V?$_Tmap_traits@V?$CCondition@VCMatchCondition@@I@@V?$vector@UtagReadyElement@?$CTeamMatcher@V?$CCondition@VCMatchCondition@@VCTeamInfo@@@@VCGuildMatchHandler@@@@V?$allocator@UtagReadyElement@?$CTeamMatcher@V?$CCondition@VCMatchCondition@@VCTeamInfo@@@@VCGuildMatchHandler@@@@@std@@@std@@U?$less@V?$CCondition@VCMatchCondition@@I@@@3@V?$allocator@U?$pair@$$CBV?$CCondition@VCMatchCondition@@I@@V?$vector@UtagReadyElement@?$CTeamMatcher@V?$CCondition@VCMatchCondition@@VCTeamInfo@@@@VCGuildMatchHandler@@@@V?$allocator@UtagReadyElement@?$CTeamMatcher@V?$CCondition@VCMatchCondition@@VCTeamInfo@@@@VCGuildMatchHandler@@@@@std@@@std@@@std@@@3@$0A@@std@@@std@@QAEXXZ 0056a990 f i GuildWar.obj
 0002:00097a40       ?find@?$_Tree@V?$_Tmap_traits@V?$CCondition@VCMatchCondition@@I@@V?$vector@UtagReadyElement@?$CTeamMatcher@V?$CCondition@VCMatchCondition@@VCTeamInfo@@@@VCGuildMatchHandler@@@@V?$allocator@UtagReadyElement@?$CTeamMatcher@V?$CCondition@VCMatchCondition@@VCTeamInfo@@@@VCGuildMatchHandler@@@@@std@@@std@@U?$less@V?$CCondition@VCMatchCondition@@I@@@3@V?$allocator@U?$pair@$$CBV?$CCondition@VCMatchCondition@@I@@V?$vector@UtagReadyElement@?$CTeamMatcher@V?$CCondition@VCMatchCondition@@VCTeamInfo@@@@VCGuildMatchHandler@@@@V?$allocator@UtagReadyElement@?$CTeamMatcher@V?$CCondition@VCMatchCondition@@VCTeamInfo@@@@VCGuildMatchHandler@@@@@std@@@std@@@std@@@3@$0A@@std@@@std@@QAE?AViterator@12@ABV?$CCondition@VCMatchCondition@@I@@@Z 0056aa40 f i GuildWar.obj
 0002:00097b80       ??Diterator@?$_Tree@V?$_Tmap_traits@V?$CCondition@VCMatchCondition@@VCTeamInfo@@@@PAVCGuildMatchHandler@@U?$less@V?$CCondition@VCMatchCondition@@VCTeamInfo@@@@@std@@V?$allocator@U?$pair@$$CBV?$CCondition@VCMatchCondition@@VCTeamInfo@@@@PAVCGuildMatchHandler@@@std@@@4@$0A@@std@@@std@@QBEAAU?$pair@$$CBV?$CCondition@VCMatchCondition@@VCTeamInfo@@@@PAVCGuildMatchHandler@@@2@XZ 0056ab80 f i GuildWar.obj
 0002:00097bd0       ??Eiterator@?$_Tree@V?$_Tmap_traits@V?$CCondition@VCMatchCondition@@VCTeamInfo@@@@PAVCGuildMatchHandler@@U?$less@V?$CCondition@VCMatchCondition@@VCTeamInfo@@@@@std@@V?$allocator@U?$pair@$$CBV?$CCondition@VCMatchCondition@@VCTeamInfo@@@@PAVCGuildMatchHandler@@@std@@@4@$0A@@std@@@std@@QAEAAV012@XZ 0056abd0 f i GuildWar.obj
 0002:00097c30       ??9const_iterator@?$_Tree@V?$_Tmap_traits@V?$CCondition@VCMatchCondition@@VCTeamInfo@@@@PAVCGuildMatchHandler@@U?$less@V?$CCondition@VCMatchCondition@@VCTeamInfo@@@@@std@@V?$allocator@U?$pair@$$CBV?$CCondition@VCMatchCondition@@VCTeamInfo@@@@PAVCGuildMatchHandler@@@std@@@4@$0A@@std@@@std@@QBE_NABV012@@Z 0056ac30 f i GuildWar.obj
 0002:00097c90       ??0?$CCondition@VCMatchCondition@@I@@QAE@XZ 0056ac90 f i GuildWar.obj
 0002:00097d00       ??1?$CCondition@VCMatchCondition@@I@@QAE@XZ 0056ad00 f i GuildWar.obj
 0002:00097d50       ?First@?$CCondition@VCMatchCondition@@I@@QAEXABVCMatchCondition@@@Z 0056ad50 f i GuildWar.obj
 0002:00097db0       ?Second@?$CCondition@VCMatchCondition@@I@@QAEXABI@Z 0056adb0 f i GuildWar.obj
 0002:00097e00       ?First@?$CCondition@VCMatchCondition@@I@@QAEAAVCMatchCondition@@XZ 0056ae00 f i GuildWar.obj
 0002:00097e40       ?Second@?$CCondition@VCMatchCondition@@I@@QAEAAIXZ 0056ae40 f i GuildWar.obj
 0002:00097e80       ??Diterator@?$_Tree@V?$_Tmap_traits@V?$CCondition@VCMatchCondition@@I@@V?$vector@UtagReadyElement@?$CTeamMatcher@V?$CCondition@VCMatchCondition@@VCTeamInfo@@@@VCGuildMatchHandler@@@@V?$allocator@UtagReadyElement@?$CTeamMatcher@V?$CCondition@VCMatchCondition@@VCTeamInfo@@@@VCGuildMatchHandler@@@@@std@@@std@@U?$less@V?$CCondition@VCMatchCondition@@I@@@3@V?$allocator@U?$pair@$$CBV?$CCondition@VCMatchCondition@@I@@V?$vector@UtagReadyElement@?$CTeamMatcher@V?$CCondition@VCMatchCondition@@VCTeamInfo@@@@VCGuildMatchHandler@@@@V?$allocator@UtagReadyElement@?$CTeamMatcher@V?$CCondition@VCMatchCondition@@VCTeamInfo@@@@VCGuildMatchHandler@@@@@std@@@std@@@std@@@3@$0A@@std@@@std@@QBEAAU?$pair@$$CBV?$CCondition@VCMatchCondition@@I@@V?$vector@UtagReadyElement@?$CTeamMatcher@V?$CCondition@VCMatchCondition@@VCTeamInfo@@@@VCGuildMatchHandler@@@@V?$allocator@UtagReadyElement@?$CTeamMatcher@V?$CCondition@VCMatchCondition@@VCTeamInfo@@@@VCGuildMatchHandler@@@@@std@@@std@@@2@XZ 0056ae80 f i GuildWar.obj
 0002:00097ed0       ??Eiterator@?$_Tree@V?$_Tmap_traits@V?$CCondition@VCMatchCondition@@I@@V?$vector@UtagReadyElement@?$CTeamMatcher@V?$CCondition@VCMatchCondition@@VCTeamInfo@@@@VCGuildMatchHandler@@@@V?$allocator@UtagReadyElement@?$CTeamMatcher@V?$CCondition@VCMatchCondition@@VCTeamInfo@@@@VCGuildMatchHandler@@@@@std@@@std@@U?$less@V?$CCondition@VCMatchCondition@@I@@@3@V?$allocator@U?$pair@$$CBV?$CCondition@VCMatchCondition@@I@@V?$vector@UtagReadyElement@?$CTeamMatcher@V?$CCondition@VCMatchCondition@@VCTeamInfo@@@@VCGuildMatchHandler@@@@V?$allocator@UtagReadyElement@?$CTeamMatcher@V?$CCondition@VCMatchCondition@@VCTeamInfo@@@@VCGuildMatchHandler@@@@@std@@@std@@@std@@@3@$0A@@std@@@std@@QAEAAV012@XZ 0056aed0 f i GuildWar.obj
 0002:00097f30       ??9const_iterator@?$_Tree@V?$_Tmap_traits@V?$CCondition@VCMatchCondition@@I@@V?$vector@UtagReadyElement@?$CTeamMatcher@V?$CCondition@VCMatchCondition@@VCTeamInfo@@@@VCGuildMatchHandler@@@@V?$allocator@UtagReadyElement@?$CTeamMatcher@V?$CCondition@VCMatchCondition@@VCTeamInfo@@@@VCGuildMatchHandler@@@@@std@@@std@@U?$less@V?$CCondition@VCMatchCondition@@I@@@3@V?$allocator@U?$pair@$$CBV?$CCondition@VCMatchCondition@@I@@V?$vector@UtagReadyElement@?$CTeamMatcher@V?$CCondition@VCMatchCondition@@VCTeamInfo@@@@VCGuildMatchHandler@@@@V?$allocator@UtagReadyElement@?$CTeamMatcher@V?$CCondition@VCMatchCondition@@VCTeamInfo@@@@VCGuildMatchHandler@@@@@std@@@std@@@std@@@3@$0A@@std@@@std@@QBE_NABV012@@Z 0056af30 f i GuildWar.obj
 0002:00097f90       ??0?$vector@UtagReadyElement@?$CTeamMatcher@V?$CCondition@VCMatchCondition@@VCTeamInfo@@@@VCGuildMatchHandler@@@@V?$allocator@UtagReadyElement@?$CTeamMatcher@V?$CCondition@VCMatchCondition@@VCTeamInfo@@@@VCGuildMatchHandler@@@@@std@@@std@@QAE@XZ 0056af90 f i GuildWar.obj
 0002:00098000       ??1?$vector@UtagReadyElement@?$CTeamMatcher@V?$CCondition@VCMatchCondition@@VCTeamInfo@@@@VCGuildMatchHandler@@@@V?$allocator@UtagReadyElement@?$CTeamMatcher@V?$CCondition@VCMatchCondition@@VCTeamInfo@@@@VCGuildMatchHandler@@@@@std@@@std@@QAE@XZ 0056b000 f i GuildWar.obj
 0002:00098050       ?begin@?$vector@UtagReadyElement@?$CTeamMatcher@V?$CCondition@VCMatchCondition@@VCTeamInfo@@@@VCGuildMatchHandler@@@@V?$allocator@UtagReadyElement@?$CTeamMatcher@V?$CCondition@VCMatchCondition@@VCTeamInfo@@@@VCGuildMatchHandler@@@@@std@@@std@@QAE?AViterator@12@XZ 0056b050 f i GuildWar.obj
 0002:000980b0       ?end@?$vector@UtagReadyElement@?$CTeamMatcher@V?$CCondition@VCMatchCondition@@VCTeamInfo@@@@VCGuildMatchHandler@@@@V?$allocator@UtagReadyElement@?$CTeamMatcher@V?$CCondition@VCMatchCondition@@VCTeamInfo@@@@VCGuildMatchHandler@@@@@std@@@std@@QAE?AViterator@12@XZ 0056b0b0 f i GuildWar.obj
 0002:00098110       ?rbegin@?$vector@UtagReadyElement@?$CTeamMatcher@V?$CCondition@VCMatchCondition@@VCTeamInfo@@@@VCGuildMatchHandler@@@@V?$allocator@UtagReadyElement@?$CTeamMatcher@V?$CCondition@VCMatchCondition@@VCTeamInfo@@@@VCGuildMatchHandler@@@@@std@@@std@@QAE?AV?$reverse_iterator@Viterator@?$vector@UtagReadyElement@?$CTeamMatcher@V?$CCondition@VCMatchCondition@@VCTeamInfo@@@@VCGuildMatchHandler@@@@V?$allocator@UtagReadyElement@?$CTeamMatcher@V?$CCondition@VCMatchCondition@@VCTeamInfo@@@@VCGuildMatchHandler@@@@@std@@@std@@@2@XZ 0056b110 f i GuildWar.obj
 0002:00098180       ?size@?$vector@UtagReadyElement@?$CTeamMatcher@V?$CCondition@VCMatchCondition@@VCTeamInfo@@@@VCGuildMatchHandler@@@@V?$allocator@UtagReadyElement@?$CTeamMatcher@V?$CCondition@VCMatchCondition@@VCTeamInfo@@@@VCGuildMatchHandler@@@@@std@@@std@@QBEIXZ 0056b180 f i GuildWar.obj
 0002:00098200       ?empty@?$vector@UtagReadyElement@?$CTeamMatcher@V?$CCondition@VCMatchCondition@@VCTeamInfo@@@@VCGuildMatchHandler@@@@V?$allocator@UtagReadyElement@?$CTeamMatcher@V?$CCondition@VCMatchCondition@@VCTeamInfo@@@@VCGuildMatchHandler@@@@@std@@@std@@QBE_NXZ 0056b200 f i GuildWar.obj
 0002:00098260       ?push_back@?$vector@UtagReadyElement@?$CTeamMatcher@V?$CCondition@VCMatchCondition@@VCTeamInfo@@@@VCGuildMatchHandler@@@@V?$allocator@UtagReadyElement@?$CTeamMatcher@V?$CCondition@VCMatchCondition@@VCTeamInfo@@@@VCGuildMatchHandler@@@@@std@@@std@@QAEXABUtagReadyElement@?$CTeamMatcher@V?$CCondition@VCMatchCondition@@VCTeamInfo@@@@VCGuildMatchHandler@@@@@Z 0056b260 f i GuildWar.obj
 0002:00098320       ?pop_back@?$vector@UtagReadyElement@?$CTeamMatcher@V?$CCondition@VCMatchCondition@@VCTeamInfo@@@@VCGuildMatchHandler@@@@V?$allocator@UtagReadyElement@?$CTeamMatcher@V?$CCondition@VCMatchCondition@@VCTeamInfo@@@@VCGuildMatchHandler@@@@@std@@@std@@QAEXXZ 0056b320 f i GuildWar.obj
 0002:000983b0       ??0tagReadyElement@?$CTeamMatcher@V?$CCondition@VCMatchCondition@@VCTeamInfo@@@@VCGuildMatchHandler@@@@QAE@ABV?$CCondition@VCMatchCondition@@VCTeamInfo@@@@PAVCGuildMatchHandler@@@Z 0056b3b0 f i GuildWar.obj
 0002:00098460       ??Diterator@?$vector@UtagReadyElement@?$CTeamMatcher@V?$CCondition@VCMatchCondition@@VCTeamInfo@@@@VCGuildMatchHandler@@@@V?$allocator@UtagReadyElement@?$CTeamMatcher@V?$CCondition@VCMatchCondition@@VCTeamInfo@@@@VCGuildMatchHandler@@@@@std@@@std@@QBEAAUtagReadyElement@?$CTeamMatcher@V?$CCondition@VCMatchCondition@@VCTeamInfo@@@@VCGuildMatchHandler@@@@XZ 0056b460 f i GuildWar.obj
 0002:000984b0       ??Eiterator@?$vector@UtagReadyElement@?$CTeamMatcher@V?$CCondition@VCMatchCondition@@VCTeamInfo@@@@VCGuildMatchHandler@@@@V?$allocator@UtagReadyElement@?$CTeamMatcher@V?$CCondition@VCMatchCondition@@VCTeamInfo@@@@VCGuildMatchHandler@@@@@std@@@std@@QAEAAV012@XZ 0056b4b0 f i GuildWar.obj
 0002:00098500       ??9const_iterator@?$vector@UtagReadyElement@?$CTeamMatcher@V?$CCondition@VCMatchCondition@@VCTeamInfo@@@@VCGuildMatchHandler@@@@V?$allocator@UtagReadyElement@?$CTeamMatcher@V?$CCondition@VCMatchCondition@@VCTeamInfo@@@@VCGuildMatchHandler@@@@@std@@@std@@QBE_NABV012@@Z 0056b500 f i GuildWar.obj
 0002:00098560       ??D?$reverse_iterator@Viterator@?$vector@UtagReadyElement@?$CTeamMatcher@V?$CCondition@VCMatchCondition@@VCTeamInfo@@@@VCGuildMatchHandler@@@@V?$allocator@UtagReadyElement@?$CTeamMatcher@V?$CCondition@VCMatchCondition@@VCTeamInfo@@@@VCGuildMatchHandler@@@@@std@@@std@@@std@@QBEAAUtagReadyElement@?$CTeamMatcher@V?$CCondition@VCMatchCondition@@VCTeamInfo@@@@VCGuildMatchHandler@@@@XZ 0056b560 f i GuildWar.obj
 0002:00098600       ??0?$vector@IV?$allocator@I@std@@@std@@QAE@XZ 0056b600 f i GuildWar.obj
 0002:00098670       ??1?$vector@IV?$allocator@I@std@@@std@@QAE@XZ 0056b670 f i GuildWar.obj
 0002:000986c0       ?begin@?$vector@IV?$allocator@I@std@@@std@@QAE?AViterator@12@XZ 0056b6c0 f i GuildWar.obj
 0002:00098720       ?end@?$vector@IV?$allocator@I@std@@@std@@QAE?AViterator@12@XZ 0056b720 f i GuildWar.obj
 0002:00098780       ?at@?$vector@IV?$allocator@I@std@@@std@@QAEAAII@Z 0056b780 f i GuildWar.obj
 0002:00098820       ?push_back@?$vector@IV?$allocator@I@std@@@std@@QAEXABI@Z 0056b820 f i GuildWar.obj
 0002:000988e0       ?clear@?$vector@IV?$allocator@I@std@@@std@@QAEXXZ 0056b8e0 f i GuildWar.obj
 0002:00098930       ?Process@?$CMatcher@UMATCH_CONDITION_PARTY@@KVCMatcherActionParty@@@@QAEXH@Z 0056b930 f i GuildWar.obj
 0002:00098ce0       ??1?$pair@KV?$CHS_LIST@VCStadium@@PAX@@@std@@QAE@XZ 0056bce0 f i GuildWar.obj
 0002:00098d40       ??1?$CHS_LIST@VCStadium@@PAX@@UAE@XZ 0056bd40 f i GuildWar.obj
 0002:00098dd0       ??1?$pair@$$CBKV?$CHS_LIST@VCStadium@@PAX@@@std@@QAE@XZ 0056bdd0 f i GuildWar.obj
 0002:00098e30       ??_G?$CHS_LIST@VCStadium@@PAX@@UAEPAXI@Z 0056be30 f i GuildWar.obj
 0002:00098e30       ??_E?$CHS_LIST@VCStadium@@PAX@@UAEPAXI@Z 0056be30 f i GuildWar.obj
 0002:00098ea0       ??Y?$basic_string@DU?$char_traits@D@std@@V?$allocator@D@2@@std@@QAEAAV01@ABV01@@Z 0056bea0 f i GuildWar.obj
 0002:00098f00       ??Y?$basic_string@DU?$char_traits@D@std@@V?$allocator@D@2@@std@@QAEAAV01@PBD@Z 0056bf00 f i GuildWar.obj
 0002:00098f60       ??0?$map@V?$basic_string@DU?$char_traits@D@std@@V?$allocator@D@2@@std@@UtagStadiumPlayer@@U?$less@V?$basic_string@DU?$char_traits@D@std@@V?$allocator@D@2@@std@@@2@V?$allocator@U?$pair@$$CBV?$basic_string@DU?$char_traits@D@std@@V?$allocator@D@2@@std@@UtagStadiumPlayer@@@std@@@2@@std@@QAE@XZ 0056bf60 f i GuildWar.obj
 0002:00098fd0       ??0?$map@IUtagTeamData@@U?$less@I@std@@V?$allocator@U?$pair@$$CBIUtagTeamData@@@std@@@3@@std@@QAE@XZ 0056bfd0 f i GuildWar.obj
 0002:00099040       ??0?$allocator@I@std@@QAE@XZ 0056c040 f i GuildWar.obj
 0002:00099080       ?MakeGuildLadderData@?$CStadiumMgr@VCStadium@@@@QAEXKKIAAUtagGuildLadderData@@@Z 0056c080 f i GuildWar.obj
 0002:00099200       ?SendStartTeamMatch@?$CStadiumMgr@VCStadium@@@@QAEXGEKKIIW4eGuildWarTime@@_N@Z 0056c200 f i GuildWar.obj
 0002:00099360       ??0?$CHS_LIST@VCStadium@@PAX@@QAE@XZ 0056c360 f i GuildWar.obj
 0002:000993d0       ?Find@?$CHS_LIST@VCStadium@@PAX@@QAEPAVCStadium@@ABV2@@Z 0056c3d0 f i GuildWar.obj
 0002:000994d0       ??1?$list@VCStadium@@V?$allocator@VCStadium@@@std@@@std@@QAE@XZ 0056c4d0 f i GuildWar.obj
 0002:00099520       ?push_back@?$list@VCStadium@@V?$allocator@VCStadium@@@std@@@std@@QAEXABVCStadium@@@Z 0056c520 f i GuildWar.obj
 0002:00099590       ?insert@?$_Tree@V?$_Tmap_traits@KV?$CHS_LIST@VCStadium@@PAX@@U?$less@K@std@@V?$allocator@U?$pair@$$CBKV?$CHS_LIST@VCStadium@@PAX@@@std@@@3@$0A@@std@@@std@@QAE?AU?$pair@Viterator@?$_Tree@V?$_Tmap_traits@KV?$CHS_LIST@VCStadium@@PAX@@U?$less@K@std@@V?$allocator@U?$pair@$$CBKV?$CHS_LIST@VCStadium@@PAX@@@std@@@3@$0A@@std@@@std@@_N@2@ABU?$pair@$$CBKV?$CHS_LIST@VCStadium@@PAX@@@2@@Z 0056c590 f i GuildWar.obj
 0002:00099850       ?_Lmost@?$_Tree@V?$_Tmap_traits@V?$CCondition@VCMatchCondition@@VCTeamInfo@@@@PAVCGuildMatchHandler@@U?$less@V?$CCondition@VCMatchCondition@@VCTeamInfo@@@@@std@@V?$allocator@U?$pair@$$CBV?$CCondition@VCMatchCondition@@VCTeamInfo@@@@PAVCGuildMatchHandler@@@std@@@4@$0A@@std@@@std@@IAEAAPAU_Node@?$_Tree_nod@V?$_Tmap_traits@V?$CCondition@VCMatchCondition@@VCTeamInfo@@@@PAVCGuildMatchHandler@@U?$less@V?$CCondition@VCMatchCondition@@VCTeamInfo@@@@@std@@V?$allocator@U?$pair@$$CBV?$CCondition@VCMatchCondition@@VCTeamInfo@@@@PAVCGuildMatchHandler@@@std@@@4@$0A@@std@@@2@XZ 0056c850 f i GuildWar.obj
 0002:000998b0       ?_Isnil@?$_Tree@V?$_Tmap_traits@V?$CCondition@VCMatchCondition@@I@@V?$vector@UtagReadyElement@?$CTeamMatcher@V?$CCondition@VCMatchCondition@@VCTeamInfo@@@@VCGuildMatchHandler@@@@V?$allocator@UtagReadyElement@?$CTeamMatcher@V?$CCondition@VCMatchCondition@@VCTeamInfo@@@@VCGuildMatchHandler@@@@@std@@@std@@U?$less@V?$CCondition@VCMatchCondition@@I@@@3@V?$allocator@U?$pair@$$CBV?$CCondition@VCMatchCondition@@I@@V?$vector@UtagReadyElement@?$CTeamMatcher@V?$CCondition@VCMatchCondition@@VCTeamInfo@@@@VCGuildMatchHandler@@@@V?$allocator@UtagReadyElement@?$CTeamMatcher@V?$CCondition@VCMatchCondition@@VCTeamInfo@@@@VCGuildMatchHandler@@@@@std@@@std@@@std@@@3@$0A@@std@@@std@@KAAADPAU_Node@?$_Tree_nod@V?$_Tmap_traits@V?$CCondition@VCMatchCondition@@I@@V?$vector@UtagReadyElement@?$CTeamMatcher@V?$CCondition@VCMatchCondition@@VCTeamInfo@@@@VCGuildMatchHandler@@@@V?$allocator@UtagReadyElement@?$CTeamMatcher@V?$CCondition@VCMatchCondition@@VCTeamInfo@@@@VCGuildMatchHandler@@@@@std@@@std@@U?$less@V?$CCondition@VCMatchCondition@@I@@@3@V?$allocator@U?$pair@$$CBV?$CCondition@VCMatchCondition@@I@@V?$vector@UtagReadyElement@?$CTeamMatcher@V?$CCondition@VCMatchCondition@@VCTeamInfo@@@@VCGuildMatchHandler@@@@V?$allocator@UtagReadyElement@?$CTeamMatcher@V?$CCondition@VCMatchCondition@@VCTeamInfo@@@@VCGuildMatchHandler@@@@@std@@@std@@@std@@@3@$0A@@std@@@2@@Z 0056c8b0 f i GuildWar.obj
 0002:000998f0       ?_Key@?$_Tree@V?$_Tmap_traits@V?$CCondition@VCMatchCondition@@I@@V?$vector@UtagReadyElement@?$CTeamMatcher@V?$CCondition@VCMatchCondition@@VCTeamInfo@@@@VCGuildMatchHandler@@@@V?$allocator@UtagReadyElement@?$CTeamMatcher@V?$CCondition@VCMatchCondition@@VCTeamInfo@@@@VCGuildMatchHandler@@@@@std@@@std@@U?$less@V?$CCondition@VCMatchCondition@@I@@@3@V?$allocator@U?$pair@$$CBV?$CCondition@VCMatchCondition@@I@@V?$vector@UtagReadyElement@?$CTeamMatcher@V?$CCondition@VCMatchCondition@@VCTeamInfo@@@@VCGuildMatchHandler@@@@V?$allocator@UtagReadyElement@?$CTeamMatcher@V?$CCondition@VCMatchCondition@@VCTeamInfo@@@@VCGuildMatchHandler@@@@@std@@@std@@@std@@@3@$0A@@std@@@std@@KAABV?$CCondition@VCMatchCondition@@I@@PAU_Node@?$_Tree_nod@V?$_Tmap_traits@V?$CCondition@VCMatchCondition@@I@@V?$vector@UtagReadyElement@?$CTeamMatcher@V?$CCondition@VCMatchCondition@@VCTeamInfo@@@@VCGuildMatchHandler@@@@V?$allocator@UtagReadyElement@?$CTeamMatcher@V?$CCondition@VCMatchCondition@@VCTeamInfo@@@@VCGuildMatchHandler@@@@@std@@@std@@U?$less@V?$CCondition@VCMatchCondition@@I@@@3@V?$allocator@U?$pair@$$CBV?$CCondition@VCMatchCondition@@I@@V?$vector@UtagReadyElement@?$CTeamMatcher@V?$CCondition@VCMatchCondition@@VCTeamInfo@@@@VCGuildMatchHandler@@@@V?$allocator@UtagReadyElement@?$CTeamMatcher@V?$CCondition@VCMatchCondition@@VCTeamInfo@@@@VCGuildMatchHandler@@@@@std@@@std@@@std@@@3@$0A@@std@@@2@@Z 0056c8f0 f i GuildWar.obj
 0002:00099950       ?_Left@?$_Tree@V?$_Tmap_traits@V?$CCondition@VCMatchCondition@@I@@V?$vector@UtagReadyElement@?$CTeamMatcher@V?$CCondition@VCMatchCondition@@VCTeamInfo@@@@VCGuildMatchHandler@@@@V?$allocator@UtagReadyElement@?$CTeamMatcher@V?$CCondition@VCMatchCondition@@VCTeamInfo@@@@VCGuildMatchHandler@@@@@std@@@std@@U?$less@V?$CCondition@VCMatchCondition@@I@@@3@V?$allocator@U?$pair@$$CBV?$CCondition@VCMatchCondition@@I@@V?$vector@UtagReadyElement@?$CTeamMatcher@V?$CCondition@VCMatchCondition@@VCTeamInfo@@@@VCGuildMatchHandler@@@@V?$allocator@UtagReadyElement@?$CTeamMatcher@V?$CCondition@VCMatchCondition@@VCTeamInfo@@@@VCGuildMatchHandler@@@@@std@@@std@@@std@@@3@$0A@@std@@@std@@KAAAPAU_Node@?$_Tree_nod@V?$_Tmap_traits@V?$CCondition@VCMatchCondition@@I@@V?$vector@UtagReadyElement@?$CTeamMatcher@V?$CCondition@VCMatchCondition@@VCTeamInfo@@@@VCGuildMatchHandler@@@@V?$allocator@UtagReadyElement@?$CTeamMatcher@V?$CCondition@VCMatchCondition@@VCTeamInfo@@@@VCGuildMatchHandler@@@@@std@@@std@@U?$less@V?$CCondition@VCMatchCondition@@I@@@3@V?$allocator@U?$pair@$$CBV?$CCondition@VCMatchCondition@@I@@V?$vector@UtagReadyElement@?$CTeamMatcher@V?$CCondition@VCMatchCondition@@VCTeamInfo@@@@VCGuildMatchHandler@@@@V?$allocator@UtagReadyElement@?$CTeamMatcher@V?$CCondition@VCMatchCondition@@VCTeamInfo@@@@VCGuildMatchHandler@@@@@std@@@std@@@std@@@3@$0A@@std@@@2@PAU342@@Z 0056c950 f i GuildWar.obj
 0002:00099990       ?_Right@?$_Tree@V?$_Tmap_traits@V?$CCondition@VCMatchCondition@@I@@V?$vector@UtagReadyElement@?$CTeamMatcher@V?$CCondition@VCMatchCondition@@VCTeamInfo@@@@VCGuildMatchHandler@@@@V?$allocator@UtagReadyElement@?$CTeamMatcher@V?$CCondition@VCMatchCondition@@VCTeamInfo@@@@VCGuildMatchHandler@@@@@std@@@std@@U?$less@V?$CCondition@VCMatchCondition@@I@@@3@V?$allocator@U?$pair@$$CBV?$CCondition@VCMatchCondition@@I@@V?$vector@UtagReadyElement@?$CTeamMatcher@V?$CCondition@VCMatchCondition@@VCTeamInfo@@@@VCGuildMatchHandler@@@@V?$allocator@UtagReadyElement@?$CTeamMatcher@V?$CCondition@VCMatchCondition@@VCTeamInfo@@@@VCGuildMatchHandler@@@@@std@@@std@@@std@@@3@$0A@@std@@@std@@KAAAPAU_Node@?$_Tree_nod@V?$_Tmap_traits@V?$CCondition@VCMatchCondition@@I@@V?$vector@UtagReadyElement@?$CTeamMatcher@V?$CCondition@VCMatchCondition@@VCTeamInfo@@@@VCGuildMatchHandler@@@@V?$allocator@UtagReadyElement@?$CTeamMatcher@V?$CCondition@VCMatchCondition@@VCTeamInfo@@@@VCGuildMatchHandler@@@@@std@@@std@@U?$less@V?$CCondition@VCMatchCondition@@I@@@3@V?$allocator@U?$pair@$$CBV?$CCondition@VCMatchCondition@@I@@V?$vector@UtagReadyElement@?$CTeamMatcher@V?$CCondition@VCMatchCondition@@VCTeamInfo@@@@VCGuildMatchHandler@@@@V?$allocator@UtagReadyElement@?$CTeamMatcher@V?$CCondition@VCMatchCondition@@VCTeamInfo@@@@VCGuildMatchHandler@@@@@std@@@std@@@std@@@3@$0A@@std@@@2@PAU342@@Z 0056c990 f i GuildWar.obj
 0002:000999d0       ??0?$_Tree@V?$_Tmap_traits@V?$CCondition@VCMatchCondition@@I@@V?$vector@UtagReadyElement@?$CTeamMatcher@V?$CCondition@VCMatchCondition@@VCTeamInfo@@@@VCGuildMatchHandler@@@@V?$allocator@UtagReadyElement@?$CTeamMatcher@V?$CCondition@VCMatchCondition@@VCTeamInfo@@@@VCGuildMatchHandler@@@@@std@@@std@@U?$less@V?$CCondition@VCMatchCondition@@I@@@3@V?$allocator@U?$pair@$$CBV?$CCondition@VCMatchCondition@@I@@V?$vector@UtagReadyElement@?$CTeamMatcher@V?$CCondition@VCMatchCondition@@VCTeamInfo@@@@VCGuildMatchHandler@@@@V?$allocator@UtagReadyElement@?$CTeamMatcher@V?$CCondition@VCMatchCondition@@VCTeamInfo@@@@VCGuildMatchHandler@@@@@std@@@std@@@std@@@3@$0A@@std@@@std@@QAE@ABU?$less@V?$CCondition@VCMatchCondition@@I@@@1@ABV?$allocator@U?$pair@$$CBV?$CCondition@VCMatchCondition@@I@@V?$vector@UtagReadyElement@?$CTeamMatcher@V?$CCondition@VCMatchCondition@@VCTeamInfo@@@@VCGuildMatchHandler@@@@V?$allocator@UtagReadyElement@?$CTeamMatcher@V?$CCondition@VCMatchCondition@@VCTeamInfo@@@@VCGuildMatchHandler@@@@@std@@@std@@@std@@@1@@Z 0056c9d0 f i GuildWar.obj
 0002:00099a50       ?lower_bound@?$_Tree@V?$_Tmap_traits@V?$CCondition@VCMatchCondition@@I@@V?$vector@UtagReadyElement@?$CTeamMatcher@V?$CCondition@VCMatchCondition@@VCTeamInfo@@@@VCGuildMatchHandler@@@@V?$allocator@UtagReadyElement@?$CTeamMatcher@V?$CCondition@VCMatchCondition@@VCTeamInfo@@@@VCGuildMatchHandler@@@@@std@@@std@@U?$less@V?$CCondition@VCMatchCondition@@I@@@3@V?$allocator@U?$pair@$$CBV?$CCondition@VCMatchCondition@@I@@V?$vector@UtagReadyElement@?$CTeamMatcher@V?$CCondition@VCMatchCondition@@VCTeamInfo@@@@VCGuildMatchHandler@@@@V?$allocator@UtagReadyElement@?$CTeamMatcher@V?$CCondition@VCMatchCondition@@VCTeamInfo@@@@VCGuildMatchHandler@@@@@std@@@std@@@std@@@3@$0A@@std@@@std@@QAE?AViterator@12@ABV?$CCondition@VCMatchCondition@@I@@@Z 0056ca50 f i GuildWar.obj
 0002:00099ac0       ?_Erase@?$_Tree@V?$_Tmap_traits@V?$CCondition@VCMatchCondition@@I@@V?$vector@UtagReadyElement@?$CTeamMatcher@V?$CCondition@VCMatchCondition@@VCTeamInfo@@@@VCGuildMatchHandler@@@@V?$allocator@UtagReadyElement@?$CTeamMatcher@V?$CCondition@VCMatchCondition@@VCTeamInfo@@@@VCGuildMatchHandler@@@@@std@@@std@@U?$less@V?$CCondition@VCMatchCondition@@I@@@3@V?$allocator@U?$pair@$$CBV?$CCondition@VCMatchCondition@@I@@V?$vector@UtagReadyElement@?$CTeamMatcher@V?$CCondition@VCMatchCondition@@VCTeamInfo@@@@VCGuildMatchHandler@@@@V?$allocator@UtagReadyElement@?$CTeamMatcher@V?$CCondition@VCMatchCondition@@VCTeamInfo@@@@VCGuildMatchHandler@@@@@std@@@std@@@std@@@3@$0A@@std@@@std@@IAEXPAU_Node@?$_Tree_nod@V?$_Tmap_traits@V?$CCondition@VCMatchCondition@@I@@V?$vector@UtagReadyElement@?$CTeamMatcher@V?$CCondition@VCMatchCondition@@VCTeamInfo@@@@VCGuildMatchHandler@@@@V?$allocator@UtagReadyElement@?$CTeamMatcher@V?$CCondition@VCMatchCondition@@VCTeamInfo@@@@VCGuildMatchHandler@@@@@std@@@std@@U?$less@V?$CCondition@VCMatchCondition@@I@@@3@V?$allocator@U?$pair@$$CBV?$CCondition@VCMatchCondition@@I@@V?$vector@UtagReadyElement@?$CTeamMatcher@V?$CCondition@VCMatchCondition@@VCTeamInfo@@@@VCGuildMatchHandler@@@@V?$allocator@UtagReadyElement@?$CTeamMatcher@V?$CCondition@VCMatchCondition@@VCTeamInfo@@@@VCGuildMatchHandler@@@@@std@@@std@@@std@@@3@$0A@@std@@@2@@Z 0056cac0 f i GuildWar.obj
 0002:00099b90       ?_Insert@?$_Tree@V?$_Tmap_traits@V?$CCondition@VCMatchCondition@@I@@V?$vector@UtagReadyElement@?$CTeamMatcher@V?$CCondition@VCMatchCondition@@VCTeamInfo@@@@VCGuildMatchHandler@@@@V?$allocator@UtagReadyElement@?$CTeamMatcher@V?$CCondition@VCMatchCondition@@VCTeamInfo@@@@VCGuildMatchHandler@@@@@std@@@std@@U?$less@V?$CCondition@VCMatchCondition@@I@@@3@V?$allocator@U?$pair@$$CBV?$CCondition@VCMatchCondition@@I@@V?$vector@UtagReadyElement@?$CTeamMatcher@V?$CCondition@VCMatchCondition@@VCTeamInfo@@@@VCGuildMatchHandler@@@@V?$allocator@UtagReadyElement@?$CTeamMatcher@V?$CCondition@VCMatchCondition@@VCTeamInfo@@@@VCGuildMatchHandler@@@@@std@@@std@@@std@@@3@$0A@@std@@@std@@IAE?AViterator@12@_NPAU_Node@?$_Tree_nod@V?$_Tmap_traits@V?$CCondition@VCMatchCondition@@I@@V?$vector@UtagReadyElement@?$CTeamMatcher@V?$CCondition@VCMatchCondition@@VCTeamInfo@@@@VCGuildMatchHandler@@@@V?$allocator@UtagReadyElement@?$CTeamMatcher@V?$CCondition@VCMatchCondition@@VCTeamInfo@@@@VCGuildMatchHandler@@@@@std@@@std@@U?$less@V?$CCondition@VCMatchCondition@@I@@@3@V?$allocator@U?$pair@$$CBV?$CCondition@VCMatchCondition@@I@@V?$vector@UtagReadyElement@?$CTeamMatcher@V?$CCondition@VCMatchCondition@@VCTeamInfo@@@@VCGuildMatchHandler@@@@V?$allocator@UtagReadyElement@?$CTeamMatcher@V?$CCondition@VCMatchCondition@@VCTeamInfo@@@@VCGuildMatchHandler@@@@@std@@@std@@@std@@@3@$0A@@std@@@2@ABU?$pair@$$CBV?$CCondition@VCMatchCondition@@I@@V?$vector@UtagReadyElement@?$CTeamMatcher@V?$CCondition@VCMatchCondition@@VCTeamInfo@@@@VCGuildMatchHandler@@@@V?$allocator@UtagReadyElement@?$CTeamMatcher@V?$CCondition@VCMatchCondition@@VCTeamInfo@@@@VCGuildMatchHandler@@@@@std@@@std@@@2@@Z 0056cb90 f i GuildWar.obj
 0002:0009a140       ?_Lmost@?$_Tree@V?$_Tmap_traits@V?$CCondition@VCMatchCondition@@I@@V?$vector@UtagReadyElement@?$CTeamMatcher@V?$CCondition@VCMatchCondition@@VCTeamInfo@@@@VCGuildMatchHandler@@@@V?$allocator@UtagReadyElement@?$CTeamMatcher@V?$CCondition@VCMatchCondition@@VCTeamInfo@@@@VCGuildMatchHandler@@@@@std@@@std@@U?$less@V?$CCondition@VCMatchCondition@@I@@@3@V?$allocator@U?$pair@$$CBV?$CCondition@VCMatchCondition@@I@@V?$vector@UtagReadyElement@?$CTeamMatcher@V?$CCondition@VCMatchCondition@@VCTeamInfo@@@@VCGuildMatchHandler@@@@V?$allocator@UtagReadyElement@?$CTeamMatcher@V?$CCondition@VCMatchCondition@@VCTeamInfo@@@@VCGuildMatchHandler@@@@@std@@@std@@@std@@@3@$0A@@std@@@std@@IAEAAPAU_Node@?$_Tree_nod@V?$_Tmap_traits@V?$CCondition@VCMatchCondition@@I@@V?$vector@UtagReadyElement@?$CTeamMatcher@V?$CCondition@VCMatchCondition@@VCTeamInfo@@@@VCGuildMatchHandler@@@@V?$allocator@UtagReadyElement@?$CTeamMatcher@V?$CCondition@VCMatchCondition@@VCTeamInfo@@@@VCGuildMatchHandler@@@@@std@@@std@@U?$less@V?$CCondition@VCMatchCondition@@I@@@3@V?$allocator@U?$pair@$$CBV?$CCondition@VCMatchCondition@@I@@V?$vector@UtagReadyElement@?$CTeamMatcher@V?$CCondition@VCMatchCondition@@VCTeamInfo@@@@VCGuildMatchHandler@@@@V?$allocator@UtagReadyElement@?$CTeamMatcher@V?$CCondition@VCMatchCondition@@VCTeamInfo@@@@VCGuildMatchHandler@@@@@std@@@std@@@std@@@3@$0A@@std@@@2@XZ 0056d140 f i GuildWar.obj
 0002:0009a1a0       ?_Rmost@?$_Tree@V?$_Tmap_traits@V?$CCondition@VCMatchCondition@@I@@V?$vector@UtagReadyElement@?$CTeamMatcher@V?$CCondition@VCMatchCondition@@VCTeamInfo@@@@VCGuildMatchHandler@@@@V?$allocator@UtagReadyElement@?$CTeamMatcher@V?$CCondition@VCMatchCondition@@VCTeamInfo@@@@VCGuildMatchHandler@@@@@std@@@std@@U?$less@V?$CCondition@VCMatchCondition@@I@@@3@V?$allocator@U?$pair@$$CBV?$CCondition@VCMatchCondition@@I@@V?$vector@UtagReadyElement@?$CTeamMatcher@V?$CCondition@VCMatchCondition@@VCTeamInfo@@@@VCGuildMatchHandler@@@@V?$allocator@UtagReadyElement@?$CTeamMatcher@V?$CCondition@VCMatchCondition@@VCTeamInfo@@@@VCGuildMatchHandler@@@@@std@@@std@@@std@@@3@$0A@@std@@@std@@IAEAAPAU_Node@?$_Tree_nod@V?$_Tmap_traits@V?$CCondition@VCMatchCondition@@I@@V?$vector@UtagReadyElement@?$CTeamMatcher@V?$CCondition@VCMatchCondition@@VCTeamInfo@@@@VCGuildMatchHandler@@@@V?$allocator@UtagReadyElement@?$CTeamMatcher@V?$CCondition@VCMatchCondition@@VCTeamInfo@@@@VCGuildMatchHandler@@@@@std@@@std@@U?$less@V?$CCondition@VCMatchCondition@@I@@@3@V?$allocator@U?$pair@$$CBV?$CCondition@VCMatchCondition@@I@@V?$vector@UtagReadyElement@?$CTeamMatcher@V?$CCondition@VCMatchCondition@@VCTeamInfo@@@@VCGuildMatchHandler@@@@V?$allocator@UtagReadyElement@?$CTeamMatcher@V?$CCondition@VCMatchCondition@@VCTeamInfo@@@@VCGuildMatchHandler@@@@@std@@@std@@@std@@@3@$0A@@std@@@2@XZ 0056d1a0 f i GuildWar.obj
 0002:0009a200       ?_Root@?$_Tree@V?$_Tmap_traits@V?$CCondition@VCMatchCondition@@I@@V?$vector@UtagReadyElement@?$CTeamMatcher@V?$CCondition@VCMatchCondition@@VCTeamInfo@@@@VCGuildMatchHandler@@@@V?$allocator@UtagReadyElement@?$CTeamMatcher@V?$CCondition@VCMatchCondition@@VCTeamInfo@@@@VCGuildMatchHandler@@@@@std@@@std@@U?$less@V?$CCondition@VCMatchCondition@@I@@@3@V?$allocator@U?$pair@$$CBV?$CCondition@VCMatchCondition@@I@@V?$vector@UtagReadyElement@?$CTeamMatcher@V?$CCondition@VCMatchCondition@@VCTeamInfo@@@@VCGuildMatchHandler@@@@V?$allocator@UtagReadyElement@?$CTeamMatcher@V?$CCondition@VCMatchCondition@@VCTeamInfo@@@@VCGuildMatchHandler@@@@@std@@@std@@@std@@@3@$0A@@std@@@std@@IAEAAPAU_Node@?$_Tree_nod@V?$_Tmap_traits@V?$CCondition@VCMatchCondition@@I@@V?$vector@UtagReadyElement@?$CTeamMatcher@V?$CCondition@VCMatchCondition@@VCTeamInfo@@@@VCGuildMatchHandler@@@@V?$allocator@UtagReadyElement@?$CTeamMatcher@V?$CCondition@VCMatchCondition@@VCTeamInfo@@@@VCGuildMatchHandler@@@@@std@@@std@@U?$less@V?$CCondition@VCMatchCondition@@I@@@3@V?$allocator@U?$pair@$$CBV?$CCondition@VCMatchCondition@@I@@V?$vector@UtagReadyElement@?$CTeamMatcher@V?$CCondition@VCMatchCondition@@VCTeamInfo@@@@VCGuildMatchHandler@@@@V?$allocator@UtagReadyElement@?$CTeamMatcher@V?$CCondition@VCMatchCondition@@VCTeamInfo@@@@VCGuildMatchHandler@@@@@std@@@std@@@std@@@3@$0A@@std@@@2@XZ 0056d200 f i GuildWar.obj
 0002:0009a260       ?_Tidy@?$_Tree@V?$_Tmap_traits@V?$CCondition@VCMatchCondition@@I@@V?$vector@UtagReadyElement@?$CTeamMatcher@V?$CCondition@VCMatchCondition@@VCTeamInfo@@@@VCGuildMatchHandler@@@@V?$allocator@UtagReadyElement@?$CTeamMatcher@V?$CCondition@VCMatchCondition@@VCTeamInfo@@@@VCGuildMatchHandler@@@@@std@@@std@@U?$less@V?$CCondition@VCMatchCondition@@I@@@3@V?$allocator@U?$pair@$$CBV?$CCondition@VCMatchCondition@@I@@V?$vector@UtagReadyElement@?$CTeamMatcher@V?$CCondition@VCMatchCondition@@VCTeamInfo@@@@VCGuildMatchHandler@@@@V?$allocator@UtagReadyElement@?$CTeamMatcher@V?$CCondition@VCMatchCondition@@VCTeamInfo@@@@VCGuildMatchHandler@@@@@std@@@std@@@std@@@3@$0A@@std@@@std@@IAEXXZ 0056d260 f i GuildWar.obj
 0002:0009a380       ?_Kfn@?$_Tmap_traits@V?$CCondition@VCMatchCondition@@I@@V?$vector@UtagReadyElement@?$CTeamMatcher@V?$CCondition@VCMatchCondition@@VCTeamInfo@@@@VCGuildMatchHandler@@@@V?$allocator@UtagReadyElement@?$CTeamMatcher@V?$CCondition@VCMatchCondition@@VCTeamInfo@@@@VCGuildMatchHandler@@@@@std@@@std@@U?$less@V?$CCondition@VCMatchCondition@@I@@@3@V?$allocator@U?$pair@$$CBV?$CCondition@VCMatchCondition@@I@@V?$vector@UtagReadyElement@?$CTeamMatcher@V?$CCondition@VCMatchCondition@@VCTeamInfo@@@@VCGuildMatchHandler@@@@V?$allocator@UtagReadyElement@?$CTeamMatcher@V?$CCondition@VCMatchCondition@@VCTeamInfo@@@@VCGuildMatchHandler@@@@@std@@@std@@@std@@@3@$0A@@std@@SAABV?$CCondition@VCMatchCondition@@I@@ABU?$pair@$$CBV?$CCondition@VCMatchCondition@@I@@V?$vector@UtagReadyElement@?$CTeamMatcher@V?$CCondition@VCMatchCondition@@VCTeamInfo@@@@VCGuildMatchHandler@@@@V?$allocator@UtagReadyElement@?$CTeamMatcher@V?$CCondition@VCMatchCondition@@VCTeamInfo@@@@VCGuildMatchHandler@@@@@std@@@std@@@2@@Z 0056d380 f i GuildWar.obj
 0002:0009a3c0       ??0?$allocator@U?$pair@$$CBV?$CCondition@VCMatchCondition@@I@@V?$vector@UtagReadyElement@?$CTeamMatcher@V?$CCondition@VCMatchCondition@@VCTeamInfo@@@@VCGuildMatchHandler@@@@V?$allocator@UtagReadyElement@?$CTeamMatcher@V?$CCondition@VCMatchCondition@@VCTeamInfo@@@@VCGuildMatchHandler@@@@@std@@@std@@@std@@@std@@QAE@XZ 0056d3c0 f i GuildWar.obj
 0002:0009a400       ??R?$less@V?$CCondition@VCMatchCondition@@I@@@std@@QBE_NABV?$CCondition@VCMatchCondition@@I@@0@Z 0056d400 f i GuildWar.obj
 0002:0009a460       ??0iterator@?$_Tree@V?$_Tmap_traits@V?$CCondition@VCMatchCondition@@VCTeamInfo@@@@PAVCGuildMatchHandler@@U?$less@V?$CCondition@VCMatchCondition@@VCTeamInfo@@@@@std@@V?$allocator@U?$pair@$$CBV?$CCondition@VCMatchCondition@@VCTeamInfo@@@@PAVCGuildMatchHandler@@@std@@@4@$0A@@std@@@std@@QAE@PAU_Node@?$_Tree_nod@V?$_Tmap_traits@V?$CCondition@VCMatchCondition@@VCTeamInfo@@@@PAVCGuildMatchHandler@@U?$less@V?$CCondition@VCMatchCondition@@VCTeamInfo@@@@@std@@V?$allocator@U?$pair@$$CBV?$CCondition@VCMatchCondition@@VCTeamInfo@@@@PAVCGuildMatchHandler@@@std@@@4@$0A@@std@@@2@@Z 0056d460 f i GuildWar.obj
 0002:0009a4c0       ??Dconst_iterator@?$_Tree@V?$_Tmap_traits@V?$CCondition@VCMatchCondition@@VCTeamInfo@@@@PAVCGuildMatchHandler@@U?$less@V?$CCondition@VCMatchCondition@@VCTeamInfo@@@@@std@@V?$allocator@U?$pair@$$CBV?$CCondition@VCMatchCondition@@VCTeamInfo@@@@PAVCGuildMatchHandler@@@std@@@4@$0A@@std@@@std@@QBEABU?$pair@$$CBV?$CCondition@VCMatchCondition@@VCTeamInfo@@@@PAVCGuildMatchHandler@@@2@XZ 0056d4c0 f i GuildWar.obj
 0002:0009a520       ??Econst_iterator@?$_Tree@V?$_Tmap_traits@V?$CCondition@VCMatchCondition@@VCTeamInfo@@@@PAVCGuildMatchHandler@@U?$less@V?$CCondition@VCMatchCondition@@VCTeamInfo@@@@@std@@V?$allocator@U?$pair@$$CBV?$CCondition@VCMatchCondition@@VCTeamInfo@@@@PAVCGuildMatchHandler@@@std@@@4@$0A@@std@@@std@@QAEAAV012@XZ 0056d520 f i GuildWar.obj
 0002:0009a580       ??8const_iterator@?$_Tree@V?$_Tmap_traits@V?$CCondition@VCMatchCondition@@VCTeamInfo@@@@PAVCGuildMatchHandler@@U?$less@V?$CCondition@VCMatchCondition@@VCTeamInfo@@@@@std@@V?$allocator@U?$pair@$$CBV?$CCondition@VCMatchCondition@@VCTeamInfo@@@@PAVCGuildMatchHandler@@@std@@@4@$0A@@std@@@std@@QBE_NABV012@@Z 0056d580 f i GuildWar.obj
 0002:0009a5d0       ??0iterator@?$_Tree@V?$_Tmap_traits@V?$CCondition@VCMatchCondition@@I@@V?$vector@UtagReadyElement@?$CTeamMatcher@V?$CCondition@VCMatchCondition@@VCTeamInfo@@@@VCGuildMatchHandler@@@@V?$allocator@UtagReadyElement@?$CTeamMatcher@V?$CCondition@VCMatchCondition@@VCTeamInfo@@@@VCGuildMatchHandler@@@@@std@@@std@@U?$less@V?$CCondition@VCMatchCondition@@I@@@3@V?$allocator@U?$pair@$$CBV?$CCondition@VCMatchCondition@@I@@V?$vector@UtagReadyElement@?$CTeamMatcher@V?$CCondition@VCMatchCondition@@VCTeamInfo@@@@VCGuildMatchHandler@@@@V?$allocator@UtagReadyElement@?$CTeamMatcher@V?$CCondition@VCMatchCondition@@VCTeamInfo@@@@VCGuildMatchHandler@@@@@std@@@std@@@std@@@3@$0A@@std@@@std@@QAE@PAU_Node@?$_Tree_nod@V?$_Tmap_traits@V?$CCondition@VCMatchCondition@@I@@V?$vector@UtagReadyElement@?$CTeamMatcher@V?$CCondition@VCMatchCondition@@VCTeamInfo@@@@VCGuildMatchHandler@@@@V?$allocator@UtagReadyElement@?$CTeamMatcher@V?$CCondition@VCMatchCondition@@VCTeamInfo@@@@VCGuildMatchHandler@@@@@std@@@std@@U?$less@V?$CCondition@VCMatchCondition@@I@@@3@V?$allocator@U?$pair@$$CBV?$CCondition@VCMatchCondition@@I@@V?$vector@UtagReadyElement@?$CTeamMatcher@V?$CCondition@VCMatchCondition@@VCTeamInfo@@@@VCGuildMatchHandler@@@@V?$allocator@UtagReadyElement@?$CTeamMatcher@V?$CCondition@VCMatchCondition@@VCTeamInfo@@@@VCGuildMatchHandler@@@@@std@@@std@@@std@@@3@$0A@@std@@@2@@Z 0056d5d0 f i GuildWar.obj
 0002:0009a630       ??Fiterator@?$_Tree@V?$_Tmap_traits@V?$CCondition@VCMatchCondition@@I@@V?$vector@UtagReadyElement@?$CTeamMatcher@V?$CCondition@VCMatchCondition@@VCTeamInfo@@@@VCGuildMatchHandler@@@@V?$allocator@UtagReadyElement@?$CTeamMatcher@V?$CCondition@VCMatchCondition@@VCTeamInfo@@@@VCGuildMatchHandler@@@@@std@@@std@@U?$less@V?$CCondition@VCMatchCondition@@I@@@3@V?$allocator@U?$pair@$$CBV?$CCondition@VCMatchCondition@@I@@V?$vector@UtagReadyElement@?$CTeamMatcher@V?$CCondition@VCMatchCondition@@VCTeamInfo@@@@VCGuildMatchHandler@@@@V?$allocator@UtagReadyElement@?$CTeamMatcher@V?$CCondition@VCMatchCondition@@VCTeamInfo@@@@VCGuildMatchHandler@@@@@std@@@std@@@std@@@3@$0A@@std@@@std@@QAEAAV012@XZ 0056d630 f i GuildWar.obj
 0002:0009a690       ??Dconst_iterator@?$_Tree@V?$_Tmap_traits@V?$CCondition@VCMatchCondition@@I@@V?$vector@UtagReadyElement@?$CTeamMatcher@V?$CCondition@VCMatchCondition@@VCTeamInfo@@@@VCGuildMatchHandler@@@@V?$allocator@UtagReadyElement@?$CTeamMatcher@V?$CCondition@VCMatchCondition@@VCTeamInfo@@@@VCGuildMatchHandler@@@@@std@@@std@@U?$less@V?$CCondition@VCMatchCondition@@I@@@3@V?$allocator@U?$pair@$$CBV?$CCondition@VCMatchCondition@@I@@V?$vector@UtagReadyElement@?$CTeamMatcher@V?$CCondition@VCMatchCondition@@VCTeamInfo@@@@VCGuildMatchHandler@@@@V?$allocator@UtagReadyElement@?$CTeamMatcher@V?$CCondition@VCMatchCondition@@VCTeamInfo@@@@VCGuildMatchHandler@@@@@std@@@std@@@std@@@3@$0A@@std@@@std@@QBEABU?$pair@$$CBV?$CCondition@VCMatchCondition@@I@@V?$vector@UtagReadyElement@?$CTeamMatcher@V?$CCondition@VCMatchCondition@@VCTeamInfo@@@@VCGuildMatchHandler@@@@V?$allocator@UtagReadyElement@?$CTeamMatcher@V?$CCondition@VCMatchCondition@@VCTeamInfo@@@@VCGuildMatchHandler@@@@@std@@@std@@@2@XZ 0056d690 f i GuildWar.obj
 0002:0009a6f0       ??Econst_iterator@?$_Tree@V?$_Tmap_traits@V?$CCondition@VCMatchCondition@@I@@V?$vector@UtagReadyElement@?$CTeamMatcher@V?$CCondition@VCMatchCondition@@VCTeamInfo@@@@VCGuildMatchHandler@@@@V?$allocator@UtagReadyElement@?$CTeamMatcher@V?$CCondition@VCMatchCondition@@VCTeamInfo@@@@VCGuildMatchHandler@@@@@std@@@std@@U?$less@V?$CCondition@VCMatchCondition@@I@@@3@V?$allocator@U?$pair@$$CBV?$CCondition@VCMatchCondition@@I@@V?$vector@UtagReadyElement@?$CTeamMatcher@V?$CCondition@VCMatchCondition@@VCTeamInfo@@@@VCGuildMatchHandler@@@@V?$allocator@UtagReadyElement@?$CTeamMatcher@V?$CCondition@VCMatchCondition@@VCTeamInfo@@@@VCGuildMatchHandler@@@@@std@@@std@@@std@@@3@$0A@@std@@@std@@QAEAAV012@XZ 0056d6f0 f i GuildWar.obj
 0002:0009a750       ??8const_iterator@?$_Tree@V?$_Tmap_traits@V?$CCondition@VCMatchCondition@@I@@V?$vector@UtagReadyElement@?$CTeamMatcher@V?$CCondition@VCMatchCondition@@VCTeamInfo@@@@VCGuildMatchHandler@@@@V?$allocator@UtagReadyElement@?$CTeamMatcher@V?$CCondition@VCMatchCondition@@VCTeamInfo@@@@VCGuildMatchHandler@@@@@std@@@std@@U?$less@V?$CCondition@VCMatchCondition@@I@@@3@V?$allocator@U?$pair@$$CBV?$CCondition@VCMatchCondition@@I@@V?$vector@UtagReadyElement@?$CTeamMatcher@V?$CCondition@VCMatchCondition@@VCTeamInfo@@@@VCGuildMatchHandler@@@@V?$allocator@UtagReadyElement@?$CTeamMatcher@V?$CCondition@VCMatchCondition@@VCTeamInfo@@@@VCGuildMatchHandler@@@@@std@@@std@@@std@@@3@$0A@@std@@@std@@QBE_NABV012@@Z 0056d750 f i GuildWar.obj
 0002:0009a7a0       ?_Mynode@const_iterator@?$_Tree@V?$_Tmap_traits@V?$CCondition@VCMatchCondition@@I@@V?$vector@UtagReadyElement@?$CTeamMatcher@V?$CCondition@VCMatchCondition@@VCTeamInfo@@@@VCGuildMatchHandler@@@@V?$allocator@UtagReadyElement@?$CTeamMatcher@V?$CCondition@VCMatchCondition@@VCTeamInfo@@@@VCGuildMatchHandler@@@@@std@@@std@@U?$less@V?$CCondition@VCMatchCondition@@I@@@3@V?$allocator@U?$pair@$$CBV?$CCondition@VCMatchCondition@@I@@V?$vector@UtagReadyElement@?$CTeamMatcher@V?$CCondition@VCMatchCondition@@VCTeamInfo@@@@VCGuildMatchHandler@@@@V?$allocator@UtagReadyElement@?$CTeamMatcher@V?$CCondition@VCMatchCondition@@VCTeamInfo@@@@VCGuildMatchHandler@@@@@std@@@std@@@std@@@3@$0A@@std@@@std@@QBEPAU_Node@?$_Tree_nod@V?$_Tmap_traits@V?$CCondition@VCMatchCondition@@I@@V?$vector@UtagReadyElement@?$CTeamMatcher@V?$CCondition@VCMatchCondition@@VCTeamInfo@@@@VCGuildMatchHandler@@@@V?$allocator@UtagReadyElement@?$CTeamMatcher@V?$CCondition@VCMatchCondition@@VCTeamInfo@@@@VCGuildMatchHandler@@@@@std@@@std@@U?$less@V?$CCondition@VCMatchCondition@@I@@@3@V?$allocator@U?$pair@$$CBV?$CCondition@VCMatchCondition@@I@@V?$vector@UtagReadyElement@?$CTeamMatcher@V?$CCondition@VCMatchCondition@@VCTeamInfo@@@@VCGuildMatchHandler@@@@V?$allocator@UtagReadyElement@?$CTeamMatcher@V?$CCondition@VCMatchCondition@@VCTeamInfo@@@@VCGuildMatchHandler@@@@@std@@@std@@@std@@@3@$0A@@std@@@3@XZ 0056d7a0 f i GuildWar.obj
 0002:0009a7e0       ?capacity@?$vector@UtagReadyElement@?$CTeamMatcher@V?$CCondition@VCMatchCondition@@VCTeamInfo@@@@VCGuildMatchHandler@@@@V?$allocator@UtagReadyElement@?$CTeamMatcher@V?$CCondition@VCMatchCondition@@VCTeamInfo@@@@VCGuildMatchHandler@@@@@std@@@std@@QBEIXZ 0056d7e0 f i GuildWar.obj
 0002:0009a860       ?insert@?$vector@UtagReadyElement@?$CTeamMatcher@V?$CCondition@VCMatchCondition@@VCTeamInfo@@@@VCGuildMatchHandler@@@@V?$allocator@UtagReadyElement@?$CTeamMatcher@V?$CCondition@VCMatchCondition@@VCTeamInfo@@@@VCGuildMatchHandler@@@@@std@@@std@@QAE?AViterator@12@V312@ABUtagReadyElement@?$CTeamMatcher@V?$CCondition@VCMatchCondition@@VCTeamInfo@@@@VCGuildMatchHandler@@@@@Z 0056d860 f i GuildWar.obj
 0002:0009a940       ?_Buy@?$vector@UtagReadyElement@?$CTeamMatcher@V?$CCondition@VCMatchCondition@@VCTeamInfo@@@@VCGuildMatchHandler@@@@V?$allocator@UtagReadyElement@?$CTeamMatcher@V?$CCondition@VCMatchCondition@@VCTeamInfo@@@@VCGuildMatchHandler@@@@@std@@@std@@IAE_NI@Z 0056d940 f i GuildWar.obj
 0002:0009aa20       ?_Destroy@?$vector@UtagReadyElement@?$CTeamMatcher@V?$CCondition@VCMatchCondition@@VCTeamInfo@@@@VCGuildMatchHandler@@@@V?$allocator@UtagReadyElement@?$CTeamMatcher@V?$CCondition@VCMatchCondition@@VCTeamInfo@@@@VCGuildMatchHandler@@@@@std@@@std@@IAEXPAUtagReadyElement@?$CTeamMatcher@V?$CCondition@VCMatchCondition@@VCTeamInfo@@@@VCGuildMatchHandler@@@@0@Z 0056da20 f i GuildWar.obj
 0002:0009aa80       ?_Tidy@?$vector@UtagReadyElement@?$CTeamMatcher@V?$CCondition@VCMatchCondition@@VCTeamInfo@@@@VCGuildMatchHandler@@@@V?$allocator@UtagReadyElement@?$CTeamMatcher@V?$CCondition@VCMatchCondition@@VCTeamInfo@@@@VCGuildMatchHandler@@@@@std@@@std@@IAEXXZ 0056da80 f i GuildWar.obj
 0002:0009ab40       ?_Ufill@?$vector@UtagReadyElement@?$CTeamMatcher@V?$CCondition@VCMatchCondition@@VCTeamInfo@@@@VCGuildMatchHandler@@@@V?$allocator@UtagReadyElement@?$CTeamMatcher@V?$CCondition@VCMatchCondition@@VCTeamInfo@@@@VCGuildMatchHandler@@@@@std@@@std@@IAEPAUtagReadyElement@?$CTeamMatcher@V?$CCondition@VCMatchCondition@@VCTeamInfo@@@@VCGuildMatchHandler@@@@PAU34@IABU34@@Z 0056db40 f i GuildWar.obj
 0002:0009abb0       ??0?$_Vector_val@UtagReadyElement@?$CTeamMatcher@V?$CCondition@VCMatchCondition@@VCTeamInfo@@@@VCGuildMatchHandler@@@@V?$allocator@UtagReadyElement@?$CTeamMatcher@V?$CCondition@VCMatchCondition@@VCTeamInfo@@@@VCGuildMatchHandler@@@@@std@@@std@@IAE@V?$allocator@UtagReadyElement@?$CTeamMatcher@V?$CCondition@VCMatchCondition@@VCTeamInfo@@@@VCGuildMatchHandler@@@@@1@@Z 0056dbb0 f i GuildWar.obj
 0002:0009ac10       ??0?$allocator@UtagReadyElement@?$CTeamMatcher@V?$CCondition@VCMatchCondition@@VCTeamInfo@@@@VCGuildMatchHandler@@@@@std@@QAE@XZ 0056dc10 f i GuildWar.obj
 0002:0009ac50       ??0tagTEAM_MATCH_PACKET@@QAE@XZ 0056dc50 f i GuildWar.obj
 0002:0009aca0       ??0?$pair@Viterator@?$_Tree@V?$_Tmap_traits@V?$CCondition@VCMatchCondition@@I@@V?$vector@UtagReadyElement@?$CTeamMatcher@V?$CCondition@VCMatchCondition@@VCTeamInfo@@@@VCGuildMatchHandler@@@@V?$allocator@UtagReadyElement@?$CTeamMatcher@V?$CCondition@VCMatchCondition@@VCTeamInfo@@@@VCGuildMatchHandler@@@@@std@@@std@@U?$less@V?$CCondition@VCMatchCondition@@I@@@3@V?$allocator@U?$pair@$$CBV?$CCondition@VCMatchCondition@@I@@V?$vector@UtagReadyElement@?$CTeamMatcher@V?$CCondition@VCMatchCondition@@VCTeamInfo@@@@VCGuildMatchHandler@@@@V?$allocator@UtagReadyElement@?$CTeamMatcher@V?$CCondition@VCMatchCondition@@VCTeamInfo@@@@VCGuildMatchHandler@@@@@std@@@std@@@std@@@3@$0A@@std@@@std@@_N@std@@QAE@ABViterator@?$_Tree@V?$_Tmap_traits@V?$CCondition@VCMatchCondition@@I@@V?$vector@UtagReadyElement@?$CTeamMatcher@V?$CCondition@VCMatchCondition@@VCTeamInfo@@@@VCGuildMatchHandler@@@@V?$allocator@UtagReadyElement@?$CTeamMatcher@V?$CCondition@VCMatchCondition@@VCTeamInfo@@@@VCGuildMatchHandler@@@@@std@@@std@@U?$less@V?$CCondition@VCMatchCondition@@I@@@3@V?$allocator@U?$pair@$$CBV?$CCondition@VCMatchCondition@@I@@V?$vector@UtagReadyElement@?$CTeamMatcher@V?$CCondition@VCMatchCondition@@VCTeamInfo@@@@VCGuildMatchHandler@@@@V?$allocator@UtagReadyElement@?$CTeamMatcher@V?$CCondition@VCMatchCondition@@VCTeamInfo@@@@VCGuildMatchHandler@@@@@std@@@std@@@std@@@3@$0A@@std@@@1@AB_N@Z 0056dca0 f i GuildWar.obj
 0002:0009ad00       ?GetPacketSize@tagTEAM_MATCH_PACKET@@QAEKXZ 0056dd00 f i GuildWar.obj
 0002:0009ade0       ??0iterator@?$vector@UtagReadyElement@?$CTeamMatcher@V?$CCondition@VCMatchCondition@@VCTeamInfo@@@@VCGuildMatchHandler@@@@V?$allocator@UtagReadyElement@?$CTeamMatcher@V?$CCondition@VCMatchCondition@@VCTeamInfo@@@@VCGuildMatchHandler@@@@@std@@@std@@QAE@PAUtagReadyElement@?$CTeamMatcher@V?$CCondition@VCMatchCondition@@VCTeamInfo@@@@VCGuildMatchHandler@@@@@Z 0056dde0 f i GuildWar.obj
 0002:0009ae40       ??Fiterator@?$vector@UtagReadyElement@?$CTeamMatcher@V?$CCondition@VCMatchCondition@@VCTeamInfo@@@@VCGuildMatchHandler@@@@V?$allocator@UtagReadyElement@?$CTeamMatcher@V?$CCondition@VCMatchCondition@@VCTeamInfo@@@@VCGuildMatchHandler@@@@@std@@@std@@QAEAAV012@XZ 0056de40 f i GuildWar.obj
 0002:0009ae90       ??Dconst_iterator@?$vector@UtagReadyElement@?$CTeamMatcher@V?$CCondition@VCMatchCondition@@VCTeamInfo@@@@VCGuildMatchHandler@@@@V?$allocator@UtagReadyElement@?$CTeamMatcher@V?$CCondition@VCMatchCondition@@VCTeamInfo@@@@VCGuildMatchHandler@@@@@std@@@std@@QBEABUtagReadyElement@?$CTeamMatcher@V?$CCondition@VCMatchCondition@@VCTeamInfo@@@@VCGuildMatchHandler@@@@XZ 0056de90 f i GuildWar.obj
 0002:0009aed0       ??8const_iterator@?$vector@UtagReadyElement@?$CTeamMatcher@V?$CCondition@VCMatchCondition@@VCTeamInfo@@@@VCGuildMatchHandler@@@@V?$allocator@UtagReadyElement@?$CTeamMatcher@V?$CCondition@VCMatchCondition@@VCTeamInfo@@@@VCGuildMatchHandler@@@@@std@@@std@@QBE_NABV012@@Z 0056ded0 f i GuildWar.obj
 0002:0009af20       ??0tagGUILD_MATCHBEGIN_SETTING@@QAE@XZ 0056df20 f i GuildWar.obj
 0002:0009af70       ??0?$reverse_iterator@Viterator@?$vector@UtagReadyElement@?$CTeamMatcher@V?$CCondition@VCMatchCondition@@VCTeamInfo@@@@VCGuildMatchHandler@@@@V?$allocator@UtagReadyElement@?$CTeamMatcher@V?$CCondition@VCMatchCondition@@VCTeamInfo@@@@VCGuildMatchHandler@@@@@std@@@std@@@std@@QAE@Viterator@?$vector@UtagReadyElement@?$CTeamMatcher@V?$CCondition@VCMatchCondition@@VCTeamInfo@@@@VCGuildMatchHandler@@@@V?$allocator@UtagReadyElement@?$CTeamMatcher@V?$CCondition@VCMatchCondition@@VCTeamInfo@@@@VCGuildMatchHandler@@@@@std@@@1@@Z 0056df70 f i GuildWar.obj
 0002:0009afc0       ?GetPacketSize@tagGUILD_MATCHBEGIN_SETTING@@QAEKXZ 0056dfc0 f i GuildWar.obj
 0002:0009b000       ?capacity@?$vector@IV?$allocator@I@std@@@std@@QBEIXZ 0056e000 f i GuildWar.obj
 0002:0009b070       ??0tagGUILD_MATCH_STATUS@@QAE@XZ 0056e070 f i GuildWar.obj
 0002:0009b0c0       ?size@?$vector@IV?$allocator@I@std@@@std@@QBEIXZ 0056e0c0 f i GuildWar.obj
 0002:0009b130       ?GetPacketSize@tagGUILD_MATCH_STATUS@@QAEKXZ 0056e130 f i GuildWar.obj
 0002:0009b170       ?insert@?$vector@IV?$allocator@I@std@@@std@@QAE?AViterator@12@V312@ABI@Z 0056e170 f i GuildWar.obj
 0002:0009b250       ??0tagGUILD_MATCH_STATUS_RESULT@@QAE@XZ 0056e250 f i GuildWar.obj
 0002:0009b2a0       ?_Buy@?$vector@IV?$allocator@I@std@@@std@@IAE_NI@Z 0056e2a0 f i GuildWar.obj
 0002:0009b380       ?GetPacketSize@tagGUILD_MATCH_STATUS_RESULT@@QAEKXZ 0056e380 f i GuildWar.obj
 0002:0009b3c0       ?_Tidy@?$vector@IV?$allocator@I@std@@@std@@IAEXXZ 0056e3c0 f i GuildWar.obj
 0002:0009b480       ??0CMatchCondition@@QAE@ABK@Z 0056e480 f i GuildWar.obj
 0002:0009b520       ?_Ufill@?$vector@IV?$allocator@I@std@@@std@@IAEPAIPAIIABI@Z 0056e520 f i GuildWar.obj
 0002:0009b590       ?_Xran@?$vector@IV?$allocator@I@std@@@std@@IBEXXZ 0056e590 f i GuildWar.obj
 0002:0009b650       ??0?$_Vector_val@IV?$allocator@I@std@@@std@@IAE@V?$allocator@I@1@@Z 0056e650 f i GuildWar.obj
 0002:0009b6b0       ?MatchLevel@CMatchCondition@@QBEKXZ 0056e6b0 f i GuildWar.obj
 0002:0009b6f0       ??0iterator@?$vector@IV?$allocator@I@std@@@std@@QAE@PAI@Z 0056e6f0 f i GuildWar.obj
 0002:0009b750       ??Diterator@?$vector@IV?$allocator@I@std@@@std@@QBEAAIXZ 0056e750 f i GuildWar.obj
 0002:0009b7a0       ??Hiterator@?$vector@IV?$allocator@I@std@@@std@@QBE?AV012@H@Z 0056e7a0 f i GuildWar.obj
 0002:0009b850       ??8CMatchCondition@@QBE_NABV0@@Z 0056e850 f i GuildWar.obj
 0002:0009b8c0       ?CommonFlag@CMatchCondition@@QBEKXZ 0056e8c0 f i GuildWar.obj
 0002:0009b910       ??0CTeamInfo@@QAE@K@Z      0056e910 f i GuildWar.obj
 0002:0009b9d0       ?TeamIndex@CTeamInfo@@QBEHXZ 0056e9d0 f i GuildWar.obj
 0002:0009ba10       ?TeamType@CTeamInfo@@QBEABKXZ 0056ea10 f i GuildWar.obj
 0002:0009ba50       ??8CTeamInfo@@QBE_NABV0@@Z 0056ea50 f i GuildWar.obj
 0002:0009bae0       ??8tagStadiumData@@QAE_NABU0@@Z 0056eae0 f i GuildWar.obj
 0002:0009bb60       ??0tagGUILD_WAR_INVITE@@QAE@XZ 0056eb60 f i GuildWar.obj
 0002:0009bbb0       ?GetPacketSize@tagGUILD_WAR_INVITE@@QAEKXZ 0056ebb0 f i GuildWar.obj
 0002:0009bbf0       ??0tagGUILD_WAR_BBS@@QAE@XZ 0056ebf0 f i GuildWar.obj
 0002:0009bc40       ?GetPacketSize@tagGUILD_WAR_BBS@@QAEKXZ 0056ec40 f i GuildWar.obj
 0002:0009bc80       ??0iterator@?$_Tree@V?$_Tmap_traits@HUSReadyRoom@?$CMatcher@UMATCH_CONDITION_PARTY@@KVCMatcherActionParty@@@@U?$less@H@std@@V?$allocator@U?$pair@$$CBHUSReadyRoom@?$CMatcher@UMATCH_CONDITION_PARTY@@KVCMatcherActionParty@@@@@std@@@4@$0A@@std@@@std@@QAE@XZ 0056ec80 f i GuildWar.obj
 0002:0009bce0       ?append@?$basic_string@DU?$char_traits@D@std@@V?$allocator@D@2@@std@@QAEAAV12@ABV12@@Z 0056ece0 f i GuildWar.obj
 0002:0009bd40       ?append@?$basic_string@DU?$char_traits@D@std@@V?$allocator@D@2@@std@@QAEAAV12@PBD@Z 0056ed40 f i GuildWar.obj
 0002:0009bdb0       ??0?$_Tree@V?$_Tmap_traits@V?$basic_string@DU?$char_traits@D@std@@V?$allocator@D@2@@std@@UtagStadiumPlayer@@U?$less@V?$basic_string@DU?$char_traits@D@std@@V?$allocator@D@2@@std@@@2@V?$allocator@U?$pair@$$CBV?$basic_string@DU?$char_traits@D@std@@V?$allocator@D@2@@std@@UtagStadiumPlayer@@@std@@@2@$0A@@std@@@std@@QAE@ABU?$less@V?$basic_string@DU?$char_traits@D@std@@V?$allocator@D@2@@std@@@1@ABV?$allocator@U?$pair@$$CBV?$basic_string@DU?$char_traits@D@std@@V?$allocator@D@2@@std@@UtagStadiumPlayer@@@std@@@1@@Z 0056edb0 f i GuildWar.obj
 0002:0009be30       ??0?$allocator@U?$pair@$$CBV?$basic_string@DU?$char_traits@D@std@@V?$allocator@D@2@@std@@UtagStadiumPlayer@@@std@@@std@@QAE@XZ 0056ee30 f i GuildWar.obj
 0002:0009be70       ??0?$_Tree@V?$_Tmap_traits@IUtagTeamData@@U?$less@I@std@@V?$allocator@U?$pair@$$CBIUtagTeamData@@@std@@@3@$0A@@std@@@std@@QAE@ABU?$less@I@1@ABV?$allocator@U?$pair@$$CBIUtagTeamData@@@std@@@1@@Z 0056ee70 f i GuildWar.obj
 0002:0009bef0       ?GetPacketSize@tagDSTWS_STADIUM_STATE@@QAEKXZ 0056eef0 f i GuildWar.obj
 0002:0009bf80       ??0tagWSTDS_TEAM_MATCH@@QAE@XZ 0056ef80 f i GuildWar.obj
 0002:0009bfd0       ?GetPacketSize@tagWSTDS_TEAM_MATCH@@QAEKXZ 0056efd0 f i GuildWar.obj
 0002:0009c070       ??0?$allocator@U?$pair@$$CBIUtagTeamData@@@std@@@std@@QAE@XZ 0056f070 f i GuildWar.obj
 0002:0009c0b0       ??0?$allocator@I@std@@QAE@ABV01@@Z 0056f0b0 f i GuildWar.obj
 0002:0009c0f0       ?deallocate@?$allocator@I@std@@QAEXPAII@Z 0056f0f0 f i GuildWar.obj
 0002:0009c150       ?allocate@?$allocator@I@std@@QAEPAII@Z 0056f150 f i GuildWar.obj
 0002:0009c1b0       ??0?$list@VCStadium@@V?$allocator@VCStadium@@@std@@@std@@QAE@XZ 0056f1b0 f i GuildWar.obj
 0002:0009c230       ?_Insert@?$list@VCStadium@@V?$allocator@VCStadium@@@std@@@std@@QAEXViterator@12@ABVCStadium@@@Z 0056f230 f i GuildWar.obj
 0002:0009c300       ?_Buynode@?$list@VCStadium@@V?$allocator@VCStadium@@@std@@@std@@IAEPAU_Node@?$_List_nod@VCStadium@@V?$allocator@VCStadium@@@std@@@2@XZ 0056f300 f i GuildWar.obj
 0002:0009c490       ?_Tidy@?$list@VCStadium@@V?$allocator@VCStadium@@@std@@@std@@IAEXXZ 0056f490 f i GuildWar.obj
 0002:0009c550       ??0?$_List_val@VCStadium@@V?$allocator@VCStadium@@@std@@@std@@IAE@V?$allocator@VCStadium@@@1@@Z 0056f550 f i GuildWar.obj
 0002:0009c5d0       ??0?$allocator@VCStadium@@@std@@QAE@ABV01@@Z 0056f5d0 f i GuildWar.obj
 0002:0009c610       ?_Key@?$_Tree@V?$_Tmap_traits@KV?$CHS_LIST@VCStadium@@PAX@@U?$less@K@std@@V?$allocator@U?$pair@$$CBKV?$CHS_LIST@VCStadium@@PAX@@@std@@@3@$0A@@std@@@std@@KAABKPAU_Node@?$_Tree_nod@V?$_Tmap_traits@KV?$CHS_LIST@VCStadium@@PAX@@U?$less@K@std@@V?$allocator@U?$pair@$$CBKV?$CHS_LIST@VCStadium@@PAX@@@std@@@3@$0A@@std@@@2@@Z 0056f610 f i GuildWar.obj
 0002:0009c670       ?_Insert@?$_Tree@V?$_Tmap_traits@KV?$CHS_LIST@VCStadium@@PAX@@U?$less@K@std@@V?$allocator@U?$pair@$$CBKV?$CHS_LIST@VCStadium@@PAX@@@std@@@3@$0A@@std@@@std@@IAE?AViterator@12@_NPAU_Node@?$_Tree_nod@V?$_Tmap_traits@KV?$CHS_LIST@VCStadium@@PAX@@U?$less@K@std@@V?$allocator@U?$pair@$$CBKV?$CHS_LIST@VCStadium@@PAX@@@std@@@3@$0A@@std@@@2@ABU?$pair@$$CBKV?$CHS_LIST@VCStadium@@PAX@@@2@@Z 0056f670 f i GuildWar.obj
 0002:0009cc20       ?_Color@?$_Tree@V?$_Tmap_traits@KV?$CHS_LIST@VCStadium@@PAX@@U?$less@K@std@@V?$allocator@U?$pair@$$CBKV?$CHS_LIST@VCStadium@@PAX@@@std@@@3@$0A@@std@@@std@@KAAADPAU_Node@?$_Tree_nod@V?$_Tmap_traits@KV?$CHS_LIST@VCStadium@@PAX@@U?$less@K@std@@V?$allocator@U?$pair@$$CBKV?$CHS_LIST@VCStadium@@PAX@@@std@@@3@$0A@@std@@@2@@Z 0056fc20 f i GuildWar.obj
 0002:0009cc60       ?_Lrotate@?$_Tree@V?$_Tmap_traits@KV?$CHS_LIST@VCStadium@@PAX@@U?$less@K@std@@V?$allocator@U?$pair@$$CBKV?$CHS_LIST@VCStadium@@PAX@@@std@@@3@$0A@@std@@@std@@IAEXPAU_Node@?$_Tree_nod@V?$_Tmap_traits@KV?$CHS_LIST@VCStadium@@PAX@@U?$less@K@std@@V?$allocator@U?$pair@$$CBKV?$CHS_LIST@VCStadium@@PAX@@@std@@@3@$0A@@std@@@2@@Z 0056fc60 f i GuildWar.obj
 0002:0009ce10       ?_Rmost@?$_Tree@V?$_Tmap_traits@KV?$CHS_LIST@VCStadium@@PAX@@U?$less@K@std@@V?$allocator@U?$pair@$$CBKV?$CHS_LIST@VCStadium@@PAX@@@std@@@3@$0A@@std@@@std@@IAEAAPAU_Node@?$_Tree_nod@V?$_Tmap_traits@KV?$CHS_LIST@VCStadium@@PAX@@U?$less@K@std@@V?$allocator@U?$pair@$$CBKV?$CHS_LIST@VCStadium@@PAX@@@std@@@3@$0A@@std@@@2@XZ 0056fe10 f i GuildWar.obj
 0002:0009ce70       ?_Root@?$_Tree@V?$_Tmap_traits@KV?$CHS_LIST@VCStadium@@PAX@@U?$less@K@std@@V?$allocator@U?$pair@$$CBKV?$CHS_LIST@VCStadium@@PAX@@@std@@@3@$0A@@std@@@std@@IAEAAPAU_Node@?$_Tree_nod@V?$_Tmap_traits@KV?$CHS_LIST@VCStadium@@PAX@@U?$less@K@std@@V?$allocator@U?$pair@$$CBKV?$CHS_LIST@VCStadium@@PAX@@@std@@@3@$0A@@std@@@2@XZ 0056fe70 f i GuildWar.obj
 0002:0009ced0       ?_Rrotate@?$_Tree@V?$_Tmap_traits@KV?$CHS_LIST@VCStadium@@PAX@@U?$less@K@std@@V?$allocator@U?$pair@$$CBKV?$CHS_LIST@VCStadium@@PAX@@@std@@@3@$0A@@std@@@std@@IAEXPAU_Node@?$_Tree_nod@V?$_Tmap_traits@KV?$CHS_LIST@VCStadium@@PAX@@U?$less@K@std@@V?$allocator@U?$pair@$$CBKV?$CHS_LIST@VCStadium@@PAX@@@std@@@3@$0A@@std@@@2@@Z 0056fed0 f i GuildWar.obj
 0002:0009d080       ?_Kfn@?$_Tmap_traits@KV?$CHS_LIST@VCStadium@@PAX@@U?$less@K@std@@V?$allocator@U?$pair@$$CBKV?$CHS_LIST@VCStadium@@PAX@@@std@@@3@$0A@@std@@SAABKABU?$pair@$$CBKV?$CHS_LIST@VCStadium@@PAX@@@2@@Z 00570080 f i GuildWar.obj
 0002:0009d0c0       ??R?$less@K@std@@QBE_NABK0@Z 005700c0 f i GuildWar.obj
 0002:0009d110       ?_Left@?$_Tree@V?$_Tmap_traits@V?$CCondition@VCMatchCondition@@VCTeamInfo@@@@PAVCGuildMatchHandler@@U?$less@V?$CCondition@VCMatchCondition@@VCTeamInfo@@@@@std@@V?$allocator@U?$pair@$$CBV?$CCondition@VCMatchCondition@@VCTeamInfo@@@@PAVCGuildMatchHandler@@@std@@@4@$0A@@std@@@std@@KAAAPAU_Node@?$_Tree_nod@V?$_Tmap_traits@V?$CCondition@VCMatchCondition@@VCTeamInfo@@@@PAVCGuildMatchHandler@@U?$less@V?$CCondition@VCMatchCondition@@VCTeamInfo@@@@@std@@V?$allocator@U?$pair@$$CBV?$CCondition@VCMatchCondition@@VCTeamInfo@@@@PAVCGuildMatchHandler@@@std@@@4@$0A@@std@@@2@PAU342@@Z 00570110 f i GuildWar.obj
 0002:0009d150       ?_Myval@?$_Tree@V?$_Tmap_traits@V?$CCondition@VCMatchCondition@@VCTeamInfo@@@@PAVCGuildMatchHandler@@U?$less@V?$CCondition@VCMatchCondition@@VCTeamInfo@@@@@std@@V?$allocator@U?$pair@$$CBV?$CCondition@VCMatchCondition@@VCTeamInfo@@@@PAVCGuildMatchHandler@@@std@@@4@$0A@@std@@@std@@KAAAU?$pair@$$CBV?$CCondition@VCMatchCondition@@VCTeamInfo@@@@PAVCGuildMatchHandler@@@2@PAU_Node@?$_Tree_nod@V?$_Tmap_traits@V?$CCondition@VCMatchCondition@@VCTeamInfo@@@@PAVCGuildMatchHandler@@U?$less@V?$CCondition@VCMatchCondition@@VCTeamInfo@@@@@std@@V?$allocator@U?$pair@$$CBV?$CCondition@VCMatchCondition@@VCTeamInfo@@@@PAVCGuildMatchHandler@@@std@@@4@$0A@@std@@@2@@Z 00570150 f i GuildWar.obj
 0002:0009d190       ?_Color@?$_Tree@V?$_Tmap_traits@V?$CCondition@VCMatchCondition@@I@@V?$vector@UtagReadyElement@?$CTeamMatcher@V?$CCondition@VCMatchCondition@@VCTeamInfo@@@@VCGuildMatchHandler@@@@V?$allocator@UtagReadyElement@?$CTeamMatcher@V?$CCondition@VCMatchCondition@@VCTeamInfo@@@@VCGuildMatchHandler@@@@@std@@@std@@U?$less@V?$CCondition@VCMatchCondition@@I@@@3@V?$allocator@U?$pair@$$CBV?$CCondition@VCMatchCondition@@I@@V?$vector@UtagReadyElement@?$CTeamMatcher@V?$CCondition@VCMatchCondition@@VCTeamInfo@@@@VCGuildMatchHandler@@@@V?$allocator@UtagReadyElement@?$CTeamMatcher@V?$CCondition@VCMatchCondition@@VCTeamInfo@@@@VCGuildMatchHandler@@@@@std@@@std@@@std@@@3@$0A@@std@@@std@@KAAADPAU_Node@?$_Tree_nod@V?$_Tmap_traits@V?$CCondition@VCMatchCondition@@I@@V?$vector@UtagReadyElement@?$CTeamMatcher@V?$CCondition@VCMatchCondition@@VCTeamInfo@@@@VCGuildMatchHandler@@@@V?$allocator@UtagReadyElement@?$CTeamMatcher@V?$CCondition@VCMatchCondition@@VCTeamInfo@@@@VCGuildMatchHandler@@@@@std@@@std@@U?$less@V?$CCondition@VCMatchCondition@@I@@@3@V?$allocator@U?$pair@$$CBV?$CCondition@VCMatchCondition@@I@@V?$vector@UtagReadyElement@?$CTeamMatcher@V?$CCondition@VCMatchCondition@@VCTeamInfo@@@@VCGuildMatchHandler@@@@V?$allocator@UtagReadyElement@?$CTeamMatcher@V?$CCondition@VCMatchCondition@@VCTeamInfo@@@@VCGuildMatchHandler@@@@@std@@@std@@@std@@@3@$0A@@std@@@2@@Z 00570190 f i GuildWar.obj
 0002:0009d1d0       ?_Parent@?$_Tree@V?$_Tmap_traits@V?$CCondition@VCMatchCondition@@I@@V?$vector@UtagReadyElement@?$CTeamMatcher@V?$CCondition@VCMatchCondition@@VCTeamInfo@@@@VCGuildMatchHandler@@@@V?$allocator@UtagReadyElement@?$CTeamMatcher@V?$CCondition@VCMatchCondition@@VCTeamInfo@@@@VCGuildMatchHandler@@@@@std@@@std@@U?$less@V?$CCondition@VCMatchCondition@@I@@@3@V?$allocator@U?$pair@$$CBV?$CCondition@VCMatchCondition@@I@@V?$vector@UtagReadyElement@?$CTeamMatcher@V?$CCondition@VCMatchCondition@@VCTeamInfo@@@@VCGuildMatchHandler@@@@V?$allocator@UtagReadyElement@?$CTeamMatcher@V?$CCondition@VCMatchCondition@@VCTeamInfo@@@@VCGuildMatchHandler@@@@@std@@@std@@@std@@@3@$0A@@std@@@std@@KAAAPAU_Node@?$_Tree_nod@V?$_Tmap_traits@V?$CCondition@VCMatchCondition@@I@@V?$vector@UtagReadyElement@?$CTeamMatcher@V?$CCondition@VCMatchCondition@@VCTeamInfo@@@@VCGuildMatchHandler@@@@V?$allocator@UtagReadyElement@?$CTeamMatcher@V?$CCondition@VCMatchCondition@@VCTeamInfo@@@@VCGuildMatchHandler@@@@@std@@@std@@U?$less@V?$CCondition@VCMatchCondition@@I@@@3@V?$allocator@U?$pair@$$CBV?$CCondition@VCMatchCondition@@I@@V?$vector@UtagReadyElement@?$CTeamMatcher@V?$CCondition@VCMatchCondition@@VCTeamInfo@@@@VCGuildMatchHandler@@@@V?$allocator@UtagReadyElement@?$CTeamMatcher@V?$CCondition@VCMatchCondition@@VCTeamInfo@@@@VCGuildMatchHandler@@@@@std@@@std@@@std@@@3@$0A@@std@@@2@PAU342@@Z 005701d0 f i GuildWar.obj
 0002:0009d210       ?_Myval@?$_Tree@V?$_Tmap_traits@V?$CCondition@VCMatchCondition@@I@@V?$vector@UtagReadyElement@?$CTeamMatcher@V?$CCondition@VCMatchCondition@@VCTeamInfo@@@@VCGuildMatchHandler@@@@V?$allocator@UtagReadyElement@?$CTeamMatcher@V?$CCondition@VCMatchCondition@@VCTeamInfo@@@@VCGuildMatchHandler@@@@@std@@@std@@U?$less@V?$CCondition@VCMatchCondition@@I@@@3@V?$allocator@U?$pair@$$CBV?$CCondition@VCMatchCondition@@I@@V?$vector@UtagReadyElement@?$CTeamMatcher@V?$CCondition@VCMatchCondition@@VCTeamInfo@@@@VCGuildMatchHandler@@@@V?$allocator@UtagReadyElement@?$CTeamMatcher@V?$CCondition@VCMatchCondition@@VCTeamInfo@@@@VCGuildMatchHandler@@@@@std@@@std@@@std@@@3@$0A@@std@@@std@@KAAAU?$pair@$$CBV?$CCondition@VCMatchCondition@@I@@V?$vector@UtagReadyElement@?$CTeamMatcher@V?$CCondition@VCMatchCondition@@VCTeamInfo@@@@VCGuildMatchHandler@@@@V?$allocator@UtagReadyElement@?$CTeamMatcher@V?$CCondition@VCMatchCondition@@VCTeamInfo@@@@VCGuildMatchHandler@@@@@std@@@std@@@2@PAU_Node@?$_Tree_nod@V?$_Tmap_traits@V?$CCondition@VCMatchCondition@@I@@V?$vector@UtagReadyElement@?$CTeamMatcher@V?$CCondition@VCMatchCondition@@VCTeamInfo@@@@VCGuildMatchHandler@@@@V?$allocator@UtagReadyElement@?$CTeamMatcher@V?$CCondition@VCMatchCondition@@VCTeamInfo@@@@VCGuildMatchHandler@@@@@std@@@std@@U?$less@V?$CCondition@VCMatchCondition@@I@@@3@V?$allocator@U?$pair@$$CBV?$CCondition@VCMatchCondition@@I@@V?$vector@UtagReadyElement@?$CTeamMatcher@V?$CCondition@VCMatchCondition@@VCTeamInfo@@@@VCGuildMatchHandler@@@@V?$allocator@UtagReadyElement@?$CTeamMatcher@V?$CCondition@VCMatchCondition@@VCTeamInfo@@@@VCGuildMatchHandler@@@@@std@@@std@@@std@@@3@$0A@@std@@@2@@Z 00570210 f i GuildWar.obj
 0002:0009d250       ?max_size@?$_Tree@V?$_Tmap_traits@V?$CCondition@VCMatchCondition@@I@@V?$vector@UtagReadyElement@?$CTeamMatcher@V?$CCondition@VCMatchCondition@@VCTeamInfo@@@@VCGuildMatchHandler@@@@V?$allocator@UtagReadyElement@?$CTeamMatcher@V?$CCondition@VCMatchCondition@@VCTeamInfo@@@@VCGuildMatchHandler@@@@@std@@@std@@U?$less@V?$CCondition@VCMatchCondition@@I@@@3@V?$allocator@U?$pair@$$CBV?$CCondition@VCMatchCondition@@I@@V?$vector@UtagReadyElement@?$CTeamMatcher@V?$CCondition@VCMatchCondition@@VCTeamInfo@@@@VCGuildMatchHandler@@@@V?$allocator@UtagReadyElement@?$CTeamMatcher@V?$CCondition@VCMatchCondition@@VCTeamInfo@@@@VCGuildMatchHandler@@@@@std@@@std@@@std@@@3@$0A@@std@@@std@@QBEIXZ 00570250 f i GuildWar.obj
 0002:0009d2b0       ?erase@?$_Tree@V?$_Tmap_traits@V?$CCondition@VCMatchCondition@@I@@V?$vector@UtagReadyElement@?$CTeamMatcher@V?$CCondition@VCMatchCondition@@VCTeamInfo@@@@VCGuildMatchHandler@@@@V?$allocator@UtagReadyElement@?$CTeamMatcher@V?$CCondition@VCMatchCondition@@VCTeamInfo@@@@VCGuildMatchHandler@@@@@std@@@std@@U?$less@V?$CCondition@VCMatchCondition@@I@@@3@V?$allocator@U?$pair@$$CBV?$CCondition@VCMatchCondition@@I@@V?$vector@UtagReadyElement@?$CTeamMatcher@V?$CCondition@VCMatchCondition@@VCTeamInfo@@@@VCGuildMatchHandler@@@@V?$allocator@UtagReadyElement@?$CTeamMatcher@V?$CCondition@VCMatchCondition@@VCTeamInfo@@@@VCGuildMatchHandler@@@@@std@@@std@@@std@@@3@$0A@@std@@@std@@QAE?AViterator@12@V312@0@Z 005702b0 f i GuildWar.obj
 0002:0009d3c0       ?_Init@?$_Tree@V?$_Tmap_traits@V?$CCondition@VCMatchCondition@@I@@V?$vector@UtagReadyElement@?$CTeamMatcher@V?$CCondition@VCMatchCondition@@VCTeamInfo@@@@VCGuildMatchHandler@@@@V?$allocator@UtagReadyElement@?$CTeamMatcher@V?$CCondition@VCMatchCondition@@VCTeamInfo@@@@VCGuildMatchHandler@@@@@std@@@std@@U?$less@V?$CCondition@VCMatchCondition@@I@@@3@V?$allocator@U?$pair@$$CBV?$CCondition@VCMatchCondition@@I@@V?$vector@UtagReadyElement@?$CTeamMatcher@V?$CCondition@VCMatchCondition@@VCTeamInfo@@@@VCGuildMatchHandler@@@@V?$allocator@UtagReadyElement@?$CTeamMatcher@V?$CCondition@VCMatchCondition@@VCTeamInfo@@@@VCGuildMatchHandler@@@@@std@@@std@@@std@@@3@$0A@@std@@@std@@IAEXXZ 005703c0 f i GuildWar.obj
 0002:0009d480       ?_Lbound@?$_Tree@V?$_Tmap_traits@V?$CCondition@VCMatchCondition@@I@@V?$vector@UtagReadyElement@?$CTeamMatcher@V?$CCondition@VCMatchCondition@@VCTeamInfo@@@@VCGuildMatchHandler@@@@V?$allocator@UtagReadyElement@?$CTeamMatcher@V?$CCondition@VCMatchCondition@@VCTeamInfo@@@@VCGuildMatchHandler@@@@@std@@@std@@U?$less@V?$CCondition@VCMatchCondition@@I@@@3@V?$allocator@U?$pair@$$CBV?$CCondition@VCMatchCondition@@I@@V?$vector@UtagReadyElement@?$CTeamMatcher@V?$CCondition@VCMatchCondition@@VCTeamInfo@@@@VCGuildMatchHandler@@@@V?$allocator@UtagReadyElement@?$CTeamMatcher@V?$CCondition@VCMatchCondition@@VCTeamInfo@@@@VCGuildMatchHandler@@@@@std@@@std@@@std@@@3@$0A@@std@@@std@@IBEPAU_Node@?$_Tree_nod@V?$_Tmap_traits@V?$CCondition@VCMatchCondition@@I@@V?$vector@UtagReadyElement@?$CTeamMatcher@V?$CCondition@VCMatchCondition@@VCTeamInfo@@@@VCGuildMatchHandler@@@@V?$allocator@UtagReadyElement@?$CTeamMatcher@V?$CCondition@VCMatchCondition@@VCTeamInfo@@@@VCGuildMatchHandler@@@@@std@@@std@@U?$less@V?$CCondition@VCMatchCondition@@I@@@3@V?$allocator@U?$pair@$$CBV?$CCondition@VCMatchCondition@@I@@V?$vector@UtagReadyElement@?$CTeamMatcher@V?$CCondition@VCMatchCondition@@VCTeamInfo@@@@VCGuildMatchHandler@@@@V?$allocator@UtagReadyElement@?$CTeamMatcher@V?$CCondition@VCMatchCondition@@VCTeamInfo@@@@VCGuildMatchHandler@@@@@std@@@std@@@std@@@3@$0A@@std@@@2@ABV?$CCondition@VCMatchCondition@@I@@@Z 00570480 f i GuildWar.obj
 0002:0009d560       ?_Lrotate@?$_Tree@V?$_Tmap_traits@V?$CCondition@VCMatchCondition@@I@@V?$vector@UtagReadyElement@?$CTeamMatcher@V?$CCondition@VCMatchCondition@@VCTeamInfo@@@@VCGuildMatchHandler@@@@V?$allocator@UtagReadyElement@?$CTeamMatcher@V?$CCondition@VCMatchCondition@@VCTeamInfo@@@@VCGuildMatchHandler@@@@@std@@@std@@U?$less@V?$CCondition@VCMatchCondition@@I@@@3@V?$allocator@U?$pair@$$CBV?$CCondition@VCMatchCondition@@I@@V?$vector@UtagReadyElement@?$CTeamMatcher@V?$CCondition@VCMatchCondition@@VCTeamInfo@@@@VCGuildMatchHandler@@@@V?$allocator@UtagReadyElement@?$CTeamMatcher@V?$CCondition@VCMatchCondition@@VCTeamInfo@@@@VCGuildMatchHandler@@@@@std@@@std@@@std@@@3@$0A@@std@@@std@@IAEXPAU_Node@?$_Tree_nod@V?$_Tmap_traits@V?$CCondition@VCMatchCondition@@I@@V?$vector@UtagReadyElement@?$CTeamMatcher@V?$CCondition@VCMatchCondition@@VCTeamInfo@@@@VCGuildMatchHandler@@@@V?$allocator@UtagReadyElement@?$CTeamMatcher@V?$CCondition@VCMatchCondition@@VCTeamInfo@@@@VCGuildMatchHandler@@@@@std@@@std@@U?$less@V?$CCondition@VCMatchCondition@@I@@@3@V?$allocator@U?$pair@$$CBV?$CCondition@VCMatchCondition@@I@@V?$vector@UtagReadyElement@?$CTeamMatcher@V?$CCondition@VCMatchCondition@@VCTeamInfo@@@@VCGuildMatchHandler@@@@V?$allocator@UtagReadyElement@?$CTeamMatcher@V?$CCondition@VCMatchCondition@@VCTeamInfo@@@@VCGuildMatchHandler@@@@@std@@@std@@@std@@@3@$0A@@std@@@2@@Z 00570560 f i GuildWar.obj
 0002:0009d710       ?_Rrotate@?$_Tree@V?$_Tmap_traits@V?$CCondition@VCMatchCondition@@I@@V?$vector@UtagReadyElement@?$CTeamMatcher@V?$CCondition@VCMatchCondition@@VCTeamInfo@@@@VCGuildMatchHandler@@@@V?$allocator@UtagReadyElement@?$CTeamMatcher@V?$CCondition@VCMatchCondition@@VCTeamInfo@@@@VCGuildMatchHandler@@@@@std@@@std@@U?$less@V?$CCondition@VCMatchCondition@@I@@@3@V?$allocator@U?$pair@$$CBV?$CCondition@VCMatchCondition@@I@@V?$vector@UtagReadyElement@?$CTeamMatcher@V?$CCondition@VCMatchCondition@@VCTeamInfo@@@@VCGuildMatchHandler@@@@V?$allocator@UtagReadyElement@?$CTeamMatcher@V?$CCondition@VCMatchCondition@@VCTeamInfo@@@@VCGuildMatchHandler@@@@@std@@@std@@@std@@@3@$0A@@std@@@std@@IAEXPAU_Node@?$_Tree_nod@V?$_Tmap_traits@V?$CCondition@VCMatchCondition@@I@@V?$vector@UtagReadyElement@?$CTeamMatcher@V?$CCondition@VCMatchCondition@@VCTeamInfo@@@@VCGuildMatchHandler@@@@V?$allocator@UtagReadyElement@?$CTeamMatcher@V?$CCondition@VCMatchCondition@@VCTeamInfo@@@@VCGuildMatchHandler@@@@@std@@@std@@U?$less@V?$CCondition@VCMatchCondition@@I@@@3@V?$allocator@U?$pair@$$CBV?$CCondition@VCMatchCondition@@I@@V?$vector@UtagReadyElement@?$CTeamMatcher@V?$CCondition@VCMatchCondition@@VCTeamInfo@@@@VCGuildMatchHandler@@@@V?$allocator@UtagReadyElement@?$CTeamMatcher@V?$CCondition@VCMatchCondition@@VCTeamInfo@@@@VCGuildMatchHandler@@@@@std@@@std@@@std@@@3@$0A@@std@@@2@@Z 00570710 f i GuildWar.obj
 0002:0009d8c0       ?_Buynode@?$_Tree@V?$_Tmap_traits@V?$CCondition@VCMatchCondition@@I@@V?$vector@UtagReadyElement@?$CTeamMatcher@V?$CCondition@VCMatchCondition@@VCTeamInfo@@@@VCGuildMatchHandler@@@@V?$allocator@UtagReadyElement@?$CTeamMatcher@V?$CCondition@VCMatchCondition@@VCTeamInfo@@@@VCGuildMatchHandler@@@@@std@@@std@@U?$less@V?$CCondition@VCMatchCondition@@I@@@3@V?$allocator@U?$pair@$$CBV?$CCondition@VCMatchCondition@@I@@V?$vector@UtagReadyElement@?$CTeamMatcher@V?$CCondition@VCMatchCondition@@VCTeamInfo@@@@VCGuildMatchHandler@@@@V?$allocator@UtagReadyElement@?$CTeamMatcher@V?$CCondition@VCMatchCondition@@VCTeamInfo@@@@VCGuildMatchHandler@@@@@std@@@std@@@std@@@3@$0A@@std@@@std@@IAEPAU_Node@?$_Tree_nod@V?$_Tmap_traits@V?$CCondition@VCMatchCondition@@I@@V?$vector@UtagReadyElement@?$CTeamMatcher@V?$CCondition@VCMatchCondition@@VCTeamInfo@@@@VCGuildMatchHandler@@@@V?$allocator@UtagReadyElement@?$CTeamMatcher@V?$CCondition@VCMatchCondition@@VCTeamInfo@@@@VCGuildMatchHandler@@@@@std@@@std@@U?$less@V?$CCondition@VCMatchCondition@@I@@@3@V?$allocator@U?$pair@$$CBV?$CCondition@VCMatchCondition@@I@@V?$vector@UtagReadyElement@?$CTeamMatcher@V?$CCondition@VCMatchCondition@@VCTeamInfo@@@@VCGuildMatchHandler@@@@V?$allocator@UtagReadyElement@?$CTeamMatcher@V?$CCondition@VCMatchCondition@@VCTeamInfo@@@@VCGuildMatchHandler@@@@@std@@@std@@@std@@@3@$0A@@std@@@2@PAU342@00ABU?$pair@$$CBV?$CCondition@VCMatchCondition@@I@@V?$vector@UtagReadyElement@?$CTeamMatcher@V?$CCondition@VCMatchCondition@@VCTeamInfo@@@@VCGuildMatchHandler@@@@V?$allocator@UtagReadyElement@?$CTeamMatcher@V?$CCondition@VCMatchCondition@@VCTeamInfo@@@@VCGuildMatchHandler@@@@@std@@@std@@@2@D@Z 005708c0 f i GuildWar.obj
 0002:0009da20       ??0?$_Tree_val@V?$_Tmap_traits@V?$CCondition@VCMatchCondition@@I@@V?$vector@UtagReadyElement@?$CTeamMatcher@V?$CCondition@VCMatchCondition@@VCTeamInfo@@@@VCGuildMatchHandler@@@@V?$allocator@UtagReadyElement@?$CTeamMatcher@V?$CCondition@VCMatchCondition@@VCTeamInfo@@@@VCGuildMatchHandler@@@@@std@@@std@@U?$less@V?$CCondition@VCMatchCondition@@I@@@3@V?$allocator@U?$pair@$$CBV?$CCondition@VCMatchCondition@@I@@V?$vector@UtagReadyElement@?$CTeamMatcher@V?$CCondition@VCMatchCondition@@VCTeamInfo@@@@VCGuildMatchHandler@@@@V?$allocator@UtagReadyElement@?$CTeamMatcher@V?$CCondition@VCMatchCondition@@VCTeamInfo@@@@VCGuildMatchHandler@@@@@std@@@std@@@std@@@3@$0A@@std@@@std@@IAE@ABU?$less@V?$CCondition@VCMatchCondition@@I@@@1@V?$allocator@U?$pair@$$CBV?$CCondition@VCMatchCondition@@I@@V?$vector@UtagReadyElement@?$CTeamMatcher@V?$CCondition@VCMatchCondition@@VCTeamInfo@@@@VCGuildMatchHandler@@@@V?$allocator@UtagReadyElement@?$CTeamMatcher@V?$CCondition@VCMatchCondition@@VCTeamInfo@@@@VCGuildMatchHandler@@@@@std@@@std@@@std@@@1@@Z 00570a20 f i GuildWar.obj
 0002:0009daa0       ??0?$allocator@U?$pair@$$CBV?$CCondition@VCMatchCondition@@I@@V?$vector@UtagReadyElement@?$CTeamMatcher@V?$CCondition@VCMatchCondition@@VCTeamInfo@@@@VCGuildMatchHandler@@@@V?$allocator@UtagReadyElement@?$CTeamMatcher@V?$CCondition@VCMatchCondition@@VCTeamInfo@@@@VCGuildMatchHandler@@@@@std@@@std@@@std@@@std@@QAE@ABV01@@Z 00570aa0 f i GuildWar.obj
 0002:0009dae0       ?deallocate@?$allocator@U_Node@?$_Tree_nod@V?$_Tmap_traits@V?$CCondition@VCMatchCondition@@I@@V?$vector@UtagReadyElement@?$CTeamMatcher@V?$CCondition@VCMatchCondition@@VCTeamInfo@@@@VCGuildMatchHandler@@@@V?$allocator@UtagReadyElement@?$CTeamMatcher@V?$CCondition@VCMatchCondition@@VCTeamInfo@@@@VCGuildMatchHandler@@@@@std@@@std@@U?$less@V?$CCondition@VCMatchCondition@@I@@@3@V?$allocator@U?$pair@$$CBV?$CCondition@VCMatchCondition@@I@@V?$vector@UtagReadyElement@?$CTeamMatcher@V?$CCondition@VCMatchCondition@@VCTeamInfo@@@@VCGuildMatchHandler@@@@V?$allocator@UtagReadyElement@?$CTeamMatcher@V?$CCondition@VCMatchCondition@@VCTeamInfo@@@@VCGuildMatchHandler@@@@@std@@@std@@@std@@@3@$0A@@std@@@std@@@std@@QAEXPAU_Node@?$_Tree_nod@V?$_Tmap_traits@V?$CCondition@VCMatchCondition@@I@@V?$vector@UtagReadyElement@?$CTeamMatcher@V?$CCondition@VCMatchCondition@@VCTeamInfo@@@@VCGuildMatchHandler@@@@V?$allocator@UtagReadyElement@?$CTeamMatcher@V?$CCondition@VCMatchCondition@@VCTeamInfo@@@@VCGuildMatchHandler@@@@@std@@@std@@U?$less@V?$CCondition@VCMatchCondition@@I@@@3@V?$allocator@U?$pair@$$CBV?$CCondition@VCMatchCondition@@I@@V?$vector@UtagReadyElement@?$CTeamMatcher@V?$CCondition@VCMatchCondition@@VCTeamInfo@@@@VCGuildMatchHandler@@@@V?$allocator@UtagReadyElement@?$CTeamMatcher@V?$CCondition@VCMatchCondition@@VCTeamInfo@@@@VCGuildMatchHandler@@@@@std@@@std@@@std@@@3@$0A@@std@@@2@I@Z 00570ae0 f i GuildWar.obj
 0002:0009db40       ?destroy@?$allocator@U_Node@?$_Tree_nod@V?$_Tmap_traits@V?$CCondition@VCMatchCondition@@I@@V?$vector@UtagReadyElement@?$CTeamMatcher@V?$CCondition@VCMatchCondition@@VCTeamInfo@@@@VCGuildMatchHandler@@@@V?$allocator@UtagReadyElement@?$CTeamMatcher@V?$CCondition@VCMatchCondition@@VCTeamInfo@@@@VCGuildMatchHandler@@@@@std@@@std@@U?$less@V?$CCondition@VCMatchCondition@@I@@@3@V?$allocator@U?$pair@$$CBV?$CCondition@VCMatchCondition@@I@@V?$vector@UtagReadyElement@?$CTeamMatcher@V?$CCondition@VCMatchCondition@@VCTeamInfo@@@@VCGuildMatchHandler@@@@V?$allocator@UtagReadyElement@?$CTeamMatcher@V?$CCondition@VCMatchCondition@@VCTeamInfo@@@@VCGuildMatchHandler@@@@@std@@@std@@@std@@@3@$0A@@std@@@std@@@std@@QAEXPAU_Node@?$_Tree_nod@V?$_Tmap_traits@V?$CCondition@VCMatchCondition@@I@@V?$vector@UtagReadyElement@?$CTeamMatcher@V?$CCondition@VCMatchCondition@@VCTeamInfo@@@@VCGuildMatchHandler@@@@V?$allocator@UtagReadyElement@?$CTeamMatcher@V?$CCondition@VCMatchCondition@@VCTeamInfo@@@@VCGuildMatchHandler@@@@@std@@@std@@U?$less@V?$CCondition@VCMatchCondition@@I@@@3@V?$allocator@U?$pair@$$CBV?$CCondition@VCMatchCondition@@I@@V?$vector@UtagReadyElement@?$CTeamMatcher@V?$CCondition@VCMatchCondition@@VCTeamInfo@@@@VCGuildMatchHandler@@@@V?$allocator@UtagReadyElement@?$CTeamMatcher@V?$CCondition@VCMatchCondition@@VCTeamInfo@@@@VCGuildMatchHandler@@@@@std@@@std@@@std@@@3@$0A@@std@@@2@@Z 00570b40 f i GuildWar.obj
 0002:0009dba0       ?destroy@?$allocator@PAU_Node@?$_Tree_nod@V?$_Tmap_traits@V?$CCondition@VCMatchCondition@@I@@V?$vector@UtagReadyElement@?$CTeamMatcher@V?$CCondition@VCMatchCondition@@VCTeamInfo@@@@VCGuildMatchHandler@@@@V?$allocator@UtagReadyElement@?$CTeamMatcher@V?$CCondition@VCMatchCondition@@VCTeamInfo@@@@VCGuildMatchHandler@@@@@std@@@std@@U?$less@V?$CCondition@VCMatchCondition@@I@@@3@V?$allocator@U?$pair@$$CBV?$CCondition@VCMatchCondition@@I@@V?$vector@UtagReadyElement@?$CTeamMatcher@V?$CCondition@VCMatchCondition@@VCTeamInfo@@@@VCGuildMatchHandler@@@@V?$allocator@UtagReadyElement@?$CTeamMatcher@V?$CCondition@VCMatchCondition@@VCTeamInfo@@@@VCGuildMatchHandler@@@@@std@@@std@@@std@@@3@$0A@@std@@@std@@@std@@QAEXPAPAU_Node@?$_Tree_nod@V?$_Tmap_traits@V?$CCondition@VCMatchCondition@@I@@V?$vector@UtagReadyElement@?$CTeamMatcher@V?$CCondition@VCMatchCondition@@VCTeamInfo@@@@VCGuildMatchHandler@@@@V?$allocator@UtagReadyElement@?$CTeamMatcher@V?$CCondition@VCMatchCondition@@VCTeamInfo@@@@VCGuildMatchHandler@@@@@std@@@std@@U?$less@V?$CCondition@VCMatchCondition@@I@@@3@V?$allocator@U?$pair@$$CBV?$CCondition@VCMatchCondition@@I@@V?$vector@UtagReadyElement@?$CTeamMatcher@V?$CCondition@VCMatchCondition@@VCTeamInfo@@@@VCGuildMatchHandler@@@@V?$allocator@UtagReadyElement@?$CTeamMatcher@V?$CCondition@VCMatchCondition@@VCTeamInfo@@@@VCGuildMatchHandler@@@@@std@@@std@@@std@@@3@$0A@@std@@@2@@Z 00570ba0 f i GuildWar.obj
 0002:0009dc00       ??0const_iterator@?$_Tree@V?$_Tmap_traits@V?$CCondition@VCMatchCondition@@VCTeamInfo@@@@PAVCGuildMatchHandler@@U?$less@V?$CCondition@VCMatchCondition@@VCTeamInfo@@@@@std@@V?$allocator@U?$pair@$$CBV?$CCondition@VCMatchCondition@@VCTeamInfo@@@@PAVCGuildMatchHandler@@@std@@@4@$0A@@std@@@std@@QAE@PAU_Node@?$_Tree_nod@V?$_Tmap_traits@V?$CCondition@VCMatchCondition@@VCTeamInfo@@@@PAVCGuildMatchHandler@@U?$less@V?$CCondition@VCMatchCondition@@VCTeamInfo@@@@@std@@V?$allocator@U?$pair@$$CBV?$CCondition@VCMatchCondition@@VCTeamInfo@@@@PAVCGuildMatchHandler@@@std@@@4@$0A@@std@@@2@@Z 00570c00 f i GuildWar.obj
 0002:0009dc50       ?_Inc@const_iterator@?$_Tree@V?$_Tmap_traits@V?$CCondition@VCMatchCondition@@VCTeamInfo@@@@PAVCGuildMatchHandler@@U?$less@V?$CCondition@VCMatchCondition@@VCTeamInfo@@@@@std@@V?$allocator@U?$pair@$$CBV?$CCondition@VCMatchCondition@@VCTeamInfo@@@@PAVCGuildMatchHandler@@@std@@@4@$0A@@std@@@std@@QAEXXZ 00570c50 f i GuildWar.obj
 0002:0009dd70       ?_Isnil@?$_Tree@V?$_Tmap_traits@V?$CCondition@VCMatchCondition@@VCTeamInfo@@@@PAVCGuildMatchHandler@@U?$less@V?$CCondition@VCMatchCondition@@VCTeamInfo@@@@@std@@V?$allocator@U?$pair@$$CBV?$CCondition@VCMatchCondition@@VCTeamInfo@@@@PAVCGuildMatchHandler@@@std@@@4@$0A@@std@@@std@@KAAADPAU_Node@?$_Tree_nod@V?$_Tmap_traits@V?$CCondition@VCMatchCondition@@VCTeamInfo@@@@PAVCGuildMatchHandler@@U?$less@V?$CCondition@VCMatchCondition@@VCTeamInfo@@@@@std@@V?$allocator@U?$pair@$$CBV?$CCondition@VCMatchCondition@@VCTeamInfo@@@@PAVCGuildMatchHandler@@@std@@@4@$0A@@std@@@2@@Z 00570d70 f i GuildWar.obj
 0002:0009ddb0       ?_Parent@?$_Tree@V?$_Tmap_traits@V?$CCondition@VCMatchCondition@@VCTeamInfo@@@@PAVCGuildMatchHandler@@U?$less@V?$CCondition@VCMatchCondition@@VCTeamInfo@@@@@std@@V?$allocator@U?$pair@$$CBV?$CCondition@VCMatchCondition@@VCTeamInfo@@@@PAVCGuildMatchHandler@@@std@@@4@$0A@@std@@@std@@KAAAPAU_Node@?$_Tree_nod@V?$_Tmap_traits@V?$CCondition@VCMatchCondition@@VCTeamInfo@@@@PAVCGuildMatchHandler@@U?$less@V?$CCondition@VCMatchCondition@@VCTeamInfo@@@@@std@@V?$allocator@U?$pair@$$CBV?$CCondition@VCMatchCondition@@VCTeamInfo@@@@PAVCGuildMatchHandler@@@std@@@4@$0A@@std@@@2@PAU342@@Z 00570db0 f i GuildWar.obj
 0002:0009ddf0       ?_Right@?$_Tree@V?$_Tmap_traits@V?$CCondition@VCMatchCondition@@VCTeamInfo@@@@PAVCGuildMatchHandler@@U?$less@V?$CCondition@VCMatchCondition@@VCTeamInfo@@@@@std@@V?$allocator@U?$pair@$$CBV?$CCondition@VCMatchCondition@@VCTeamInfo@@@@PAVCGuildMatchHandler@@@std@@@4@$0A@@std@@@std@@KAAAPAU_Node@?$_Tree_nod@V?$_Tmap_traits@V?$CCondition@VCMatchCondition@@VCTeamInfo@@@@PAVCGuildMatchHandler@@U?$less@V?$CCondition@VCMatchCondition@@VCTeamInfo@@@@@std@@V?$allocator@U?$pair@$$CBV?$CCondition@VCMatchCondition@@VCTeamInfo@@@@PAVCGuildMatchHandler@@@std@@@4@$0A@@std@@@2@PAU342@@Z 00570df0 f i GuildWar.obj
 0002:0009de30       ?_Min@?$_Tree@V?$_Tmap_traits@V?$CCondition@VCMatchCondition@@VCTeamInfo@@@@PAVCGuildMatchHandler@@U?$less@V?$CCondition@VCMatchCondition@@VCTeamInfo@@@@@std@@V?$allocator@U?$pair@$$CBV?$CCondition@VCMatchCondition@@VCTeamInfo@@@@PAVCGuildMatchHandler@@@std@@@4@$0A@@std@@@std@@KAPAU_Node@?$_Tree_nod@V?$_Tmap_traits@V?$CCondition@VCMatchCondition@@VCTeamInfo@@@@PAVCGuildMatchHandler@@U?$less@V?$CCondition@VCMatchCondition@@VCTeamInfo@@@@@std@@V?$allocator@U?$pair@$$CBV?$CCondition@VCMatchCondition@@VCTeamInfo@@@@PAVCGuildMatchHandler@@@std@@@4@$0A@@std@@@2@PAU342@@Z 00570e30 f i GuildWar.obj
 0002:0009deb0       ??M?$CCondition@VCMatchCondition@@I@@QBE_NABV0@@Z 00570eb0 f i GuildWar.obj
 0002:0009df60       ??MCMatchCondition@@QBE_NABV0@@Z 00570f60 f i GuildWar.obj
 0002:0009dfd0       ??0const_iterator@?$_Tree@V?$_Tmap_traits@V?$CCondition@VCMatchCondition@@I@@V?$vector@UtagReadyElement@?$CTeamMatcher@V?$CCondition@VCMatchCondition@@VCTeamInfo@@@@VCGuildMatchHandler@@@@V?$allocator@UtagReadyElement@?$CTeamMatcher@V?$CCondition@VCMatchCondition@@VCTeamInfo@@@@VCGuildMatchHandler@@@@@std@@@std@@U?$less@V?$CCondition@VCMatchCondition@@I@@@3@V?$allocator@U?$pair@$$CBV?$CCondition@VCMatchCondition@@I@@V?$vector@UtagReadyElement@?$CTeamMatcher@V?$CCondition@VCMatchCondition@@VCTeamInfo@@@@VCGuildMatchHandler@@@@V?$allocator@UtagReadyElement@?$CTeamMatcher@V?$CCondition@VCMatchCondition@@VCTeamInfo@@@@VCGuildMatchHandler@@@@@std@@@std@@@std@@@3@$0A@@std@@@std@@QAE@PAU_Node@?$_Tree_nod@V?$_Tmap_traits@V?$CCondition@VCMatchCondition@@I@@V?$vector@UtagReadyElement@?$CTeamMatcher@V?$CCondition@VCMatchCondition@@VCTeamInfo@@@@VCGuildMatchHandler@@@@V?$allocator@UtagReadyElement@?$CTeamMatcher@V?$CCondition@VCMatchCondition@@VCTeamInfo@@@@VCGuildMatchHandler@@@@@std@@@std@@U?$less@V?$CCondition@VCMatchCondition@@I@@@3@V?$allocator@U?$pair@$$CBV?$CCondition@VCMatchCondition@@I@@V?$vector@UtagReadyElement@?$CTeamMatcher@V?$CCondition@VCMatchCondition@@VCTeamInfo@@@@VCGuildMatchHandler@@@@V?$allocator@UtagReadyElement@?$CTeamMatcher@V?$CCondition@VCMatchCondition@@VCTeamInfo@@@@VCGuildMatchHandler@@@@@std@@@std@@@std@@@3@$0A@@std@@@2@@Z 00570fd0 f i GuildWar.obj
 0002:0009e020       ??Fconst_iterator@?$_Tree@V?$_Tmap_traits@V?$CCondition@VCMatchCondition@@I@@V?$vector@UtagReadyElement@?$CTeamMatcher@V?$CCondition@VCMatchCondition@@VCTeamInfo@@@@VCGuildMatchHandler@@@@V?$allocator@UtagReadyElement@?$CTeamMatcher@V?$CCondition@VCMatchCondition@@VCTeamInfo@@@@VCGuildMatchHandler@@@@@std@@@std@@U?$less@V?$CCondition@VCMatchCondition@@I@@@3@V?$allocator@U?$pair@$$CBV?$CCondition@VCMatchCondition@@I@@V?$vector@UtagReadyElement@?$CTeamMatcher@V?$CCondition@VCMatchCondition@@VCTeamInfo@@@@VCGuildMatchHandler@@@@V?$allocator@UtagReadyElement@?$CTeamMatcher@V?$CCondition@VCMatchCondition@@VCTeamInfo@@@@VCGuildMatchHandler@@@@@std@@@std@@@std@@@3@$0A@@std@@@std@@QAEAAV012@XZ 00571020 f i GuildWar.obj
 0002:0009e080       ?_Inc@const_iterator@?$_Tree@V?$_Tmap_traits@V?$CCondition@VCMatchCondition@@I@@V?$vector@UtagReadyElement@?$CTeamMatcher@V?$CCondition@VCMatchCondition@@VCTeamInfo@@@@VCGuildMatchHandler@@@@V?$allocator@UtagReadyElement@?$CTeamMatcher@V?$CCondition@VCMatchCondition@@VCTeamInfo@@@@VCGuildMatchHandler@@@@@std@@@std@@U?$less@V?$CCondition@VCMatchCondition@@I@@@3@V?$allocator@U?$pair@$$CBV?$CCondition@VCMatchCondition@@I@@V?$vector@UtagReadyElement@?$CTeamMatcher@V?$CCondition@VCMatchCondition@@VCTeamInfo@@@@VCGuildMatchHandler@@@@V?$allocator@UtagReadyElement@?$CTeamMatcher@V?$CCondition@VCMatchCondition@@VCTeamInfo@@@@VCGuildMatchHandler@@@@@std@@@std@@@std@@@3@$0A@@std@@@std@@QAEXXZ 00571080 f i GuildWar.obj
 0002:0009e1a0       ?max_size@?$vector@UtagReadyElement@?$CTeamMatcher@V?$CCondition@VCMatchCondition@@VCTeamInfo@@@@VCGuildMatchHandler@@@@V?$allocator@UtagReadyElement@?$CTeamMatcher@V?$CCondition@VCMatchCondition@@VCTeamInfo@@@@VCGuildMatchHandler@@@@@std@@@std@@QBEIXZ 005711a0 f i GuildWar.obj
 0002:0009e1f0       ?_Insert_n@?$vector@UtagReadyElement@?$CTeamMatcher@V?$CCondition@VCMatchCondition@@VCTeamInfo@@@@VCGuildMatchHandler@@@@V?$allocator@UtagReadyElement@?$CTeamMatcher@V?$CCondition@VCMatchCondition@@VCTeamInfo@@@@VCGuildMatchHandler@@@@@std@@@std@@IAEXViterator@12@IABUtagReadyElement@?$CTeamMatcher@V?$CCondition@VCMatchCondition@@VCTeamInfo@@@@VCGuildMatchHandler@@@@@Z 005711f0 f i GuildWar.obj
 0002:0009e690       ?_Xlen@?$vector@UtagReadyElement@?$CTeamMatcher@V?$CCondition@VCMatchCondition@@VCTeamInfo@@@@VCGuildMatchHandler@@@@V?$allocator@UtagReadyElement@?$CTeamMatcher@V?$CCondition@VCMatchCondition@@VCTeamInfo@@@@VCGuildMatchHandler@@@@@std@@@std@@IBEXXZ 00571690 f i GuildWar.obj
 0002:0009e750       ??0?$allocator@UtagReadyElement@?$CTeamMatcher@V?$CCondition@VCMatchCondition@@VCTeamInfo@@@@VCGuildMatchHandler@@@@@std@@QAE@ABV01@@Z 00571750 f i GuildWar.obj
 0002:0009e790       ?deallocate@?$allocator@UtagReadyElement@?$CTeamMatcher@V?$CCondition@VCMatchCondition@@VCTeamInfo@@@@VCGuildMatchHandler@@@@@std@@QAEXPAUtagReadyElement@?$CTeamMatcher@V?$CCondition@VCMatchCondition@@VCTeamInfo@@@@VCGuildMatchHandler@@@@I@Z 00571790 f i GuildWar.obj
 0002:0009e7f0       ?allocate@?$allocator@UtagReadyElement@?$CTeamMatcher@V?$CCondition@VCMatchCondition@@VCTeamInfo@@@@VCGuildMatchHandler@@@@@std@@QAEPAUtagReadyElement@?$CTeamMatcher@V?$CCondition@VCMatchCondition@@VCTeamInfo@@@@VCGuildMatchHandler@@@@I@Z 005717f0 f i GuildWar.obj
 0002:0009e850       ??Hiterator@?$vector@UtagReadyElement@?$CTeamMatcher@V?$CCondition@VCMatchCondition@@VCTeamInfo@@@@VCGuildMatchHandler@@@@V?$allocator@UtagReadyElement@?$CTeamMatcher@V?$CCondition@VCMatchCondition@@VCTeamInfo@@@@VCGuildMatchHandler@@@@@std@@@std@@QBE?AV012@H@Z 00571850 f i GuildWar.obj
 0002:0009e900       ??Giterator@?$vector@UtagReadyElement@?$CTeamMatcher@V?$CCondition@VCMatchCondition@@VCTeamInfo@@@@VCGuildMatchHandler@@@@V?$allocator@UtagReadyElement@?$CTeamMatcher@V?$CCondition@VCMatchCondition@@VCTeamInfo@@@@VCGuildMatchHandler@@@@@std@@@std@@QBEHABVconst_iterator@12@@Z 00571900 f i GuildWar.obj
 0002:0009e970       ??0const_iterator@?$vector@UtagReadyElement@?$CTeamMatcher@V?$CCondition@VCMatchCondition@@VCTeamInfo@@@@VCGuildMatchHandler@@@@V?$allocator@UtagReadyElement@?$CTeamMatcher@V?$CCondition@VCMatchCondition@@VCTeamInfo@@@@VCGuildMatchHandler@@@@@std@@@std@@QAE@PAUtagReadyElement@?$CTeamMatcher@V?$CCondition@VCMatchCondition@@VCTeamInfo@@@@VCGuildMatchHandler@@@@@Z 00571970 f i GuildWar.obj
 0002:0009e9c0       ?max_size@?$vector@IV?$allocator@I@std@@@std@@QBEIXZ 005719c0 f i GuildWar.obj
 0002:0009ea10       ?_Destroy@?$vector@IV?$allocator@I@std@@@std@@IAEXPAI0@Z 00571a10 f i GuildWar.obj
 0002:0009ea70       ?_Insert_n@?$vector@IV?$allocator@I@std@@@std@@IAEXViterator@12@IABI@Z 00571a70 f i GuildWar.obj
 0002:0009eed0       ?_Xlen@?$vector@IV?$allocator@I@std@@@std@@IBEXXZ 00571ed0 f i GuildWar.obj
 0002:0009ef90       ??Yiterator@?$vector@IV?$allocator@I@std@@@std@@QAEAAV012@H@Z 00571f90 f i GuildWar.obj
 0002:0009efe0       ??Giterator@?$vector@IV?$allocator@I@std@@@std@@QBEHABVconst_iterator@12@@Z 00571fe0 f i GuildWar.obj
 0002:0009f050       ??0const_iterator@?$vector@IV?$allocator@I@std@@@std@@QAE@PAI@Z 00572050 f i GuildWar.obj
 0002:0009f0a0       ??Dconst_iterator@?$vector@IV?$allocator@I@std@@@std@@QBEABIXZ 005720a0 f i GuildWar.obj
 0002:0009f0e0       ??Fiterator@?$_Tree@V?$_Tmap_traits@KV?$CHS_LIST@VCStadium@@PAX@@U?$less@K@std@@V?$allocator@U?$pair@$$CBKV?$CHS_LIST@VCStadium@@PAX@@@std@@@3@$0A@@std@@@std@@QAEAAV012@XZ 005720e0 f i GuildWar.obj
 0002:0009f140       ?_Mynode@const_iterator@?$_Tree@V?$_Tmap_traits@KV?$CHS_LIST@VCStadium@@PAX@@U?$less@K@std@@V?$allocator@U?$pair@$$CBKV?$CHS_LIST@VCStadium@@PAX@@@std@@@3@$0A@@std@@@std@@QBEPAU_Node@?$_Tree_nod@V?$_Tmap_traits@KV?$CHS_LIST@VCStadium@@PAX@@U?$less@K@std@@V?$allocator@U?$pair@$$CBKV?$CHS_LIST@VCStadium@@PAX@@@std@@@3@$0A@@std@@@3@XZ 00572140 f i GuildWar.obj
 0002:0009f180       ??0?$pair@Viterator@?$_Tree@V?$_Tmap_traits@KV?$CHS_LIST@VCStadium@@PAX@@U?$less@K@std@@V?$allocator@U?$pair@$$CBKV?$CHS_LIST@VCStadium@@PAX@@@std@@@3@$0A@@std@@@std@@_N@std@@QAE@ABViterator@?$_Tree@V?$_Tmap_traits@KV?$CHS_LIST@VCStadium@@PAX@@U?$less@K@std@@V?$allocator@U?$pair@$$CBKV?$CHS_LIST@VCStadium@@PAX@@@std@@@3@$0A@@std@@@1@AB_N@Z 00572180 f i GuildWar.obj
 0002:0009f1e0       ??0const_iterator@?$_Tree@V?$_Tmap_traits@HUSReadyRoom@?$CMatcher@UMATCH_CONDITION_PARTY@@KVCMatcherActionParty@@@@U?$less@H@std@@V?$allocator@U?$pair@$$CBHUSReadyRoom@?$CMatcher@UMATCH_CONDITION_PARTY@@KVCMatcherActionParty@@@@@std@@@4@$0A@@std@@@std@@QAE@XZ 005721e0 f i GuildWar.obj
